 mysqlmanager

 Timestamp is 4e0df752 (Fri Jul 01 18:35:30 2011)

 Preferred load address is 00400000

 Start         Length     Name                   Class
 0001:00000000 000bcef6H .text                   CODE
 0001:000bcf00 00001021H .text$yc                CODE
 0001:000bdf21 00001019H .text$yd                CODE
 0002:00000000 00000104H .CRT$XCA                DATA
 0002:00000104 00000109H .CRT$XCU                DATA
 0002:00000210 00000104H .CRT$XCZ                DATA
 0002:00000314 00000104H .CRT$XIA                DATA
 0002:00000418 00000118H .CRT$XIC                DATA
 0002:00000530 00000104H .CRT$XIY                DATA
 0002:00000634 00000104H .CRT$XIZ                DATA
 0002:00000738 00000004H .CRT$XLA                DATA
 0002:0000073c 00000004H .CRT$XLZ                DATA
 0002:00000740 00000104H .CRT$XPA                DATA
 0002:00000844 00000104H .CRT$XPX                DATA
 0002:00000948 00000104H .CRT$XPXA               DATA
 0002:00000a4c 00000104H .CRT$XPZ                DATA
 0002:00000b50 00000104H .CRT$XTA                DATA
 0002:00000c54 00000104H .CRT$XTZ                DATA
 0002:00000d60 0001bcf7H .rdata                  DATA
 0002:0001ca58 0000011cH .rdata$T                DATA
 0002:0001cb74 000001abH .rdata$debug            DATA
 0002:0001cd20 00002de3H .rdata$r                DATA
 0002:0001fb10 0000010eH .rdata$sxdata           DATA
 0002:0001fc20 00000104H .rtc$IAA                DATA
 0002:0001fd24 00000104H .rtc$IZZ                DATA
 0002:0001fe28 00000104H .rtc$TAA                DATA
 0002:0001ff2c 00000104H .rtc$TZZ                DATA
 0002:00020030 000010c4H .xdata$x                DATA
 0002:000210f4 00000000H .edata                  DATA
 0003:00000000 0014f6c9H .data                   DATA
 0003:0014f6e0 000047a4H .bss                    DATA
 0004:00000000 00000050H .idata$2                DATA
 0004:00000050 00000014H .idata$3                DATA
 0004:00000064 00000404H .idata$4                DATA
 0004:00000468 00000404H .idata$5                DATA
 0004:0000086c 00000dbeH .idata$6                DATA
 0005:00000000 00000101H .tls                    DATA
 0005:00000108 00000186H .tls$                   DATA
 0005:0000028e 00000101H .tls$ZZZ                DATA

  Address         Publics by Value              Rva+Base       Lib:Object

 0000:00000000       __except_list              00000000     <absolute>
 0000:00000003       ___safe_se_handler_count   00000003     <absolute>
 0000:0000002c       __tls_array                0000002c     <absolute>
 0000:00000000       ___ImageBase               00400000     <linker-defined>
 0001:000012a0       ?reserve@Buffer@@QAEHII@Z  004022a0 f   buffer.obj
 0001:000013c0       ?get_size@Buffer@@QAEHXZ   004023c0 f   buffer.obj
 0001:000013d0       ?is_error@Buffer@@QAEHXZ   004023d0 f   buffer.obj
 0001:000013e0       ?append@Buffer@@QAEHIPBDI@Z 004023e0 f   buffer.obj
 0001:00001430       ?get_instance_map@Manager@@SAPAVInstance_map@@XZ 00402430 f i command.obj
 0001:00001440       ?get_guardian@Manager@@SAPAVGuardian@@XZ 00402440 f i command.obj
 0001:00001450       ??0Command@@QAE@XZ         00402450 f   command.obj
 0001:00001480       ??1Command@@UAE@XZ         00402480 f   command.obj
 0001:00001490       ??_ECommand@@UAEPAXI@Z     00402490 f i command.obj
 0001:00001490       ??_GCommand@@UAEPAXI@Z     00402490 f i command.obj
 0001:000014c0       ?alloc_str@Named_value@@SAPADPBUst_mysql_lex_string@@@Z 004024c0 f i commands.obj
 0001:000014e0       ?free_str@Named_value@@SAXPAPAD@Z 004024e0 f i commands.obj
 0001:00001500       ??0Named_value@@QAE@XZ     00402500 f i commands.obj
 0001:00001520       ??0Named_value@@QAE@PAD0@Z 00402520 f i commands.obj
 0001:00001540       ?get_name@Named_value@@QAEPADXZ 00402540 f i commands.obj
 0001:00001550       ?get_value@Named_value@@QAEPADXZ 00402550 f i commands.obj
 0001:00001560       ?free@Named_value@@QAEXXZ  00402560 f i commands.obj
 0001:00001590       ?get_size@Named_value_arr@@QBEHXZ 00402590 f i commands.obj
 0001:000015a0       ?get_element@Named_value_arr@@QBE?AVNamed_value@@H@Z 004025a0 f i commands.obj
 0001:000015e0       ?add_element@Named_value_arr@@QAE_NPAVNamed_value@@@Z 004025e0 f i commands.obj
 0001:00001600       ?get_word@@YAXPAPBDPAIW4enum_seek_method@@@Z 00402600 f i commands.obj
 0001:00001700       ?get_num_options@Instance_options@@QBEHXZ 00402700 f i commands.obj
 0001:00001710       ?get_option@Instance_options@@QBE?AVNamed_value@@H@Z 00402710 f i commands.obj
 0001:00001750       ?get_str@Instance_name@@QBEPBUst_mysql_lex_string@@XZ 00402750 f i commands.obj
 0001:00001760       ?is_mysqld_compatible@Instance@@QBE_NXZ 00402760 f i commands.obj
 0001:00001770       ?is_configured@Instance@@QBE_NXZ 00402770 f i commands.obj
 0001:00001780       ?get_name@Instance@@QBEPBUst_mysql_lex_string@@XZ 00402780 f i commands.obj
 0001:00001790       ?set_state@Instance@@QAEXW4enum_instance_state@1@@Z 00402790 f i commands.obj
 0001:000017a0       ?get_instance_name@Instance_cmd@@IBEPBUst_mysql_lex_string@@XZ 004027a0 f i commands.obj
 0001:000017c0       ??0Buffer@@QAE@I@Z         004027c0 f i commands.obj
 0001:00001800       ??1Buffer@@QAE@XZ          00402800 f i commands.obj
 0001:00001810       ??0Iterator@Instance_map@@QAE@PAV1@@Z 00402810 f i commands.obj
 0001:000018c0       ??0Instance_name@@QAE@PBUst_mysql_lex_string@@@Z 004028c0 f   commands.obj
 0001:00001910       ?write_header@Show_instances@@AAEHPAUst_net@@@Z 00402910 f   commands.obj
 0001:00001990       ?write_data@Show_instances@@AAEHPAUst_net@@@Z 00402990 f   commands.obj
 0001:00001af0       ?execute@Flush_instances@@UAEHPAUst_net@@K@Z 00402af0 f   commands.obj
 0001:00001b30       ??0Instance_cmd@@QAE@PBUst_mysql_lex_string@@@Z 00402b30 f   commands.obj
 0001:00001b60       ??1Instance_cmd@@UAE@XZ    00402b60 f i commands.obj
 0001:00001b70       ??0Abstract_instance_cmd@@QAE@PBUst_mysql_lex_string@@@Z 00402b70 f   commands.obj
 0001:00001b90       ??1Abstract_instance_cmd@@UAE@XZ 00402b90 f i commands.obj
 0001:00001ba0       ?execute@Abstract_instance_cmd@@UAEHPAUst_net@@K@Z 00402ba0 f   commands.obj
 0001:00001c40       ??0Show_instance_status@@QAE@PBUst_mysql_lex_string@@@Z 00402c40 f   commands.obj
 0001:00001c60       ??1Show_instance_status@@UAE@XZ 00402c60 f i commands.obj
 0001:00001c70       ?send_ok_response@Show_instance_status@@MAEHPAUst_net@@K@Z 00402c70 f   commands.obj
 0001:00001cb0       ?write_header@Show_instance_status@@AAEHPAUst_net@@@Z 00402cb0 f   commands.obj
 0001:00001db0       ?write_data@Show_instance_status@@AAEHPAUst_net@@PAVInstance@@@Z 00402db0 f   commands.obj
 0001:00001fb0       ??0Show_instance_options@@QAE@PBUst_mysql_lex_string@@@Z 00402fb0 f   commands.obj
 0001:00001fd0       ??1Show_instance_options@@UAE@XZ 00402fd0 f i commands.obj
 0001:00001fe0       ?send_ok_response@Show_instance_options@@MAEHPAUst_net@@K@Z 00402fe0 f   commands.obj
 0001:00002020       ?write_header@Show_instance_options@@AAEHPAUst_net@@@Z 00403020 f   commands.obj
 0001:000020a0       ?write_data@Show_instance_options@@AAEHPAUst_net@@PAVInstance@@@Z 004030a0 f   commands.obj
 0001:00002280       ??0Start_instance@@QAE@PBUst_mysql_lex_string@@@Z 00403280 f   commands.obj
 0001:000022a0       ??1Start_instance@@UAE@XZ  004032a0 f i commands.obj
 0001:000022b0       ?execute_impl@Start_instance@@MAEHPAUst_net@@PAVInstance@@@Z 004032b0 f   commands.obj
 0001:00002320       ?send_ok_response@Start_instance@@MAEHPAUst_net@@K@Z 00403320 f   commands.obj
 0001:00002350       ??0Stop_instance@@QAE@PBUst_mysql_lex_string@@@Z 00403350 f   commands.obj
 0001:00002370       ??1Stop_instance@@UAE@XZ   00403370 f i commands.obj
 0001:00002380       ?execute_impl@Stop_instance@@MAEHPAUst_net@@PAVInstance@@@Z 00403380 f   commands.obj
 0001:000023d0       ?send_ok_response@Stop_instance@@MAEHPAUst_net@@K@Z 004033d0 f   commands.obj
 0001:00002400       ??0Create_instance@@QAE@PBUst_mysql_lex_string@@@Z 00403400 f   commands.obj
 0001:00002430       ??1Create_instance@@UAE@XZ 00403430 f i commands.obj
 0001:00002450       ?parse_args@Create_instance@@AAE_NPAPBD@Z 00403450 f   commands.obj
 0001:00002680       ?execute@Create_instance@@MAEHPAUst_net@@K@Z 00403680 f   commands.obj
 0001:00002790       ??0Drop_instance@@QAE@PBUst_mysql_lex_string@@@Z 00403790 f   commands.obj
 0001:000027b0       ??1Drop_instance@@UAE@XZ   004037b0 f i commands.obj
 0001:000027c0       ?execute@Drop_instance@@MAEHPAUst_net@@K@Z 004037c0 f   commands.obj
 0001:000028f0       ??0Show_instance_log@@QAE@PBUst_mysql_lex_string@@W4Log_type@@II@Z 004038f0 f   commands.obj
 0001:00002940       ??1Show_instance_log@@UAE@XZ 00403940 f i commands.obj
 0001:00002950       ?send_ok_response@Show_instance_log@@MAEHPAUst_net@@K@Z 00403950 f   commands.obj
 0001:00002990       ?check_params@Show_instance_log@@AAEHPAVInstance@@@Z 00403990 f   commands.obj
 0001:000029f0       ?write_header@Show_instance_log@@AAEHPAUst_net@@@Z 004039f0 f   commands.obj
 0001:00002a50       ?write_data@Show_instance_log@@AAEHPAUst_net@@PAVInstance@@@Z 00403a50 f   commands.obj
 0001:00002c90       ??0Show_instance_log_files@@QAE@PBUst_mysql_lex_string@@@Z 00403c90 f   commands.obj
 0001:00002cb0       ??1Show_instance_log_files@@UAE@XZ 00403cb0 f i commands.obj
 0001:00002cc0       ?send_ok_response@Show_instance_log_files@@MAEHPAUst_net@@K@Z 00403cc0 f   commands.obj
 0001:00002d00       ?write_header@Show_instance_log_files@@AAEHPAUst_net@@@Z 00403d00 f   commands.obj
 0001:00002da0       ?write_data@Show_instance_log_files@@AAEHPAUst_net@@PAVInstance@@@Z 00403da0 f   commands.obj
 0001:00002fb0       ?get_instance_name@Instance_options_list@@QBEPBUst_mysql_lex_string@@XZ 00403fb0 f i commands.obj
 0001:00002fc0       ??0Instance_options_list@@QAE@PBUst_mysql_lex_string@@@Z 00403fc0 f   commands.obj
 0001:00002ff0       ?init@Instance_options_list@@QAE_NXZ 00403ff0 f   commands.obj
 0001:00003020       ??1Instance_options_list@@QAE@XZ 00404020 f i commands.obj
 0001:00003030       ??0Abstract_option_cmd@@IAE@XZ 00404030 f   commands.obj
 0001:00003050       ??1Abstract_option_cmd@@UAE@XZ 00404050 f   commands.obj
 0001:00003080       ?correct_file@Abstract_option_cmd@@IAEHPAVInstance@@PAVNamed_value@@_N@Z 00404080 f   commands.obj
 0001:000030f0       ?execute_impl@Abstract_option_cmd@@AAEHPAUst_net@@K@Z 004040f0 f   commands.obj
 0001:00003280       ?process_option@Set_option@@MAEHPAVInstance@@PAVNamed_value@@@Z 00404280 f   commands.obj
 0001:00003310       ?process_option@Unset_option@@MAEHPAVInstance@@PAVNamed_value@@@Z 00404310 f   commands.obj
 0001:00003350       ?execute@Syntax_error@@UAEHPAUst_net@@K@Z 00404350 f   commands.obj
 0001:00003360       ?execute@Show_instances@@UAEHPAUst_net@@K@Z 00404360 f   commands.obj
 0001:000033c0       ??_EInstance_cmd@@UAEPAXI@Z 004043c0 f i commands.obj
 0001:000033c0       ??_GInstance_cmd@@UAEPAXI@Z 004043c0 f i commands.obj
 0001:000033f0       ??_GAbstract_instance_cmd@@UAEPAXI@Z 004043f0 f i commands.obj
 0001:000033f0       ??_EAbstract_instance_cmd@@UAEPAXI@Z 004043f0 f i commands.obj
 0001:00003420       ??_GShow_instance_status@@UAEPAXI@Z 00404420 f i commands.obj
 0001:00003420       ??_EShow_instance_status@@UAEPAXI@Z 00404420 f i commands.obj
 0001:00003450       ?execute_impl@Show_instance_status@@MAEHPAUst_net@@PAVInstance@@@Z 00404450 f   commands.obj
 0001:00003490       ??_EShow_instance_options@@UAEPAXI@Z 00404490 f i commands.obj
 0001:00003490       ??_GShow_instance_options@@UAEPAXI@Z 00404490 f i commands.obj
 0001:000034c0       ?execute_impl@Show_instance_options@@MAEHPAUst_net@@PAVInstance@@@Z 004044c0 f   commands.obj
 0001:00003500       ??_GStart_instance@@UAEPAXI@Z 00404500 f i commands.obj
 0001:00003500       ??_EStart_instance@@UAEPAXI@Z 00404500 f i commands.obj
 0001:00003530       ??_EStop_instance@@UAEPAXI@Z 00404530 f i commands.obj
 0001:00003530       ??_GStop_instance@@UAEPAXI@Z 00404530 f i commands.obj
 0001:00003560       ??_ECreate_instance@@UAEPAXI@Z 00404560 f i commands.obj
 0001:00003560       ??_GCreate_instance@@UAEPAXI@Z 00404560 f i commands.obj
 0001:000035a0       ?init@Create_instance@@QAE_NPAPBD@Z 004045a0 f   commands.obj
 0001:000035e0       ??_EDrop_instance@@UAEPAXI@Z 004045e0 f i commands.obj
 0001:000035e0       ??_GDrop_instance@@UAEPAXI@Z 004045e0 f i commands.obj
 0001:00003610       ??_GShow_instance_log@@UAEPAXI@Z 00404610 f i commands.obj
 0001:00003610       ??_EShow_instance_log@@UAEPAXI@Z 00404610 f i commands.obj
 0001:00003640       ?execute_impl@Show_instance_log@@MAEHPAUst_net@@PAVInstance@@@Z 00404640 f   commands.obj
 0001:00003690       ??_GShow_instance_log_files@@UAEPAXI@Z 00404690 f i commands.obj
 0001:00003690       ??_EShow_instance_log_files@@UAEPAXI@Z 00404690 f i commands.obj
 0001:000036c0       ?execute_impl@Show_instance_log_files@@MAEHPAUst_net@@PAVInstance@@@Z 004046c0 f   commands.obj
 0001:00003700       ??_GInstance_options_list@@QAEPAXI@Z 00404700 f i commands.obj
 0001:00003730       ??_EAbstract_option_cmd@@UAEPAXI@Z 00404730 f i commands.obj
 0001:00003730       ??_GAbstract_option_cmd@@UAEPAXI@Z 00404730 f i commands.obj
 0001:00003760       ?execute@Abstract_option_cmd@@UAEHPAUst_net@@K@Z 00404760 f   commands.obj
 0001:000037a0       ?get_instance_options_list@Abstract_option_cmd@@AAEPAVInstance_options_list@@PBUst_mysql_lex_string@@@Z 004047a0 f   commands.obj
 0001:00003870       ?add_option@Abstract_option_cmd@@QAE_NPBUst_mysql_lex_string@@PAVNamed_value@@@Z 00404870 f   commands.obj
 0001:000038b0       ?init@Abstract_option_cmd@@QAE_NPAPBD@Z 004048b0 f   commands.obj
 0001:00003910       ?parse_args@Set_option@@MAE_NPAPBD@Z 00404910 f   commands.obj
 0001:00003c00       ?parse_args@Unset_option@@MAE_NPAPBD@Z 00404c00 f   commands.obj
 0001:00003e20       ??0Thread_info@@QAE@XZ     00404e20 f i guardian.obj
 0001:00003e30       ??0Thread@@QAE@XZ          00404e30 f i guardian.obj
 0001:00003e40       ??_EThread@@MAEPAXI@Z      00404e40 f i guardian.obj
 0001:00003e40       ??_GThread@@MAEPAXI@Z      00404e40 f i guardian.obj
 0001:00003e70       ?is_guarded@Instance@@QBE_NXZ 00404e70 f i guardian.obj
 0001:00003e80       ?get_state@Instance@@QBE?AW4enum_instance_state@1@XZ 00404e80 f i guardian.obj
 0001:00003e90       ?is_crashed@Instance@@QAE_NXZ 00404e90 f i guardian.obj
 0001:00003ea0       ??0Guardian@@QAE@PAVThread_registry@@PAVInstance_map@@@Z 00404ea0 f   guardian.obj
 0001:00003ef0       ?process_instance@Guardian@@AAEXPAVInstance@@@Z 00404ef0 f   guardian.obj
 0001:00004230       ?ping@Guardian@@QAEXXZ     00405230 f   guardian.obj
 0001:00004240       ?init@Guardian@@QAEXXZ     00405240 f   guardian.obj
 0001:000042b0       ?stop_instances@Guardian@@AAEXXZ 004052b0 f   guardian.obj
 0001:000043d0       ?lock@Guardian@@QAEXXZ     004053d0 f   guardian.obj
 0001:000043e0       ?unlock@Guardian@@QAEXXZ   004053e0 f   guardian.obj
 0001:000043f0       ??1Guardian@@UAE@XZ        004053f0 f   guardian.obj
 0001:00004430       ?request_shutdown@Guardian@@QAEXXZ 00405430 f   guardian.obj
 0001:00004460       ?run@Guardian@@MAEXXZ      00405460 f   guardian.obj
 0001:00004600       ?is_stopped@Guardian@@QAE_NXZ 00405600 f   guardian.obj
 0001:00004630       ??_GGuardian@@UAEPAXI@Z    00405630 f i guardian.obj
 0001:00004630       ??_EGuardian@@UAEPAXI@Z    00405630 f i guardian.obj
 0001:00004670       ?get_thread_registry@Manager@@SAPAVThread_registry@@XZ 00405670 f i instance.obj
 0001:000048b0       ?SafeTerminateProcess@@YAHPAXI@Z 004058b0 f   instance.obj
 0001:000049f0       ?kill@@YAHHH@Z             004059f0 f   instance.obj
 0001:00004a30       ??0Instance_monitor@@QAE@PAVInstance@@@Z 00405a30 f i instance.obj
 0001:00004a50       ??1Instance_monitor@@UAE@XZ 00405a50 f i instance.obj
 0001:00004a60       ?is_name_valid@Instance@@SA_NPBUst_mysql_lex_string@@@Z 00405a60 f   instance.obj
 0001:00004ac0       ?is_mysqld_compatible_name@Instance@@SA_NPBUst_mysql_lex_string@@@Z 00405ac0 f   instance.obj
 0001:00004af0       ?get_instance_state_name@Instance@@CAPBDW4enum_instance_state@1@@Z 00405af0 f   instance.obj
 0001:00004b70       ??0Instance@@QAE@XZ        00405b70 f   instance.obj
 0001:00004be0       ??1Instance@@QAE@XZ        00405be0 f   instance.obj
 0001:00004c20       ?init@Instance@@QAE_NPBUst_mysql_lex_string@@@Z 00405c20 f   instance.obj
 0001:00004c50       ?complete_initialization@Instance@@QAE_NXZ 00405c50 f   instance.obj
 0001:00004c80       ?is_mysqld_running@Instance@@QAE_NXZ 00405c80 f   instance.obj
 0001:00004d80       ?kill_mysqld@Instance@@QAE_NH@Z 00405d80 f   instance.obj
 0001:00004e40       ?lock@Instance@@QAEXXZ     00405e40 f   instance.obj
 0001:00004e60       ?unlock@Instance@@QAEXXZ   00405e60 f   instance.obj
 0001:00004e80       ?reset_stat@Instance@@QAEXXZ 00405e80 f   instance.obj
 0001:00004eb0       ?remove_pid@Instance@@AAEXXZ 00405eb0 f   instance.obj
 0001:00004ef0       ?wait_for_stop@Instance@@AAE_NXZ 00405ef0 f   instance.obj
 0001:00004fa0       ??_EInstance_monitor@@UAEPAXI@Z 00405fa0 f i instance.obj
 0001:00004fa0       ??_GInstance_monitor@@UAEPAXI@Z 00405fa0 f i instance.obj
 0001:00004fd0       ?start_and_monitor_instance@Instance_monitor@@IAEXXZ 00405fd0 f   instance.obj
 0001:00005140       ?is_active@Instance@@QAE_NXZ 00406140 f   instance.obj
 0001:00005170       ?start_mysqld@Instance@@QAE_NXZ 00406170 f   instance.obj
 0001:00005210       ?stop_mysqld@Instance@@QAE_NXZ 00406210 f   instance.obj
 0001:00005300       ?get_state_name@Instance@@QAEPBDXZ 00406300 f   instance.obj
 0001:00005350       ?run@Instance_monitor@@MAEXXZ 00406350 f   instance.obj
 0001:00005390       ??_GInstance@@QAEPAXI@Z    00406390 f i instance_map.obj
 0001:00005420       ??0Instance_map@@QAE@XZ    00406420 f   instance_map.obj
 0001:00005440       ?lock@Instance_map@@QAEXXZ 00406440 f   instance_map.obj
 0001:00005450       ?unlock@Instance_map@@QAEXXZ 00406450 f   instance_map.obj
 0001:00005460       ?add_instance@Instance_map@@QAEHPAVInstance@@@Z 00406460 f   instance_map.obj
 0001:00005480       ?remove_instance@Instance_map@@QAEHPAVInstance@@@Z 00406480 f   instance_map.obj
 0001:000054a0       ?create_instance@Instance_map@@QAEHPBUst_mysql_lex_string@@PBVNamed_value_arr@@@Z 004064a0 f   instance_map.obj
 0001:00005680       ?find@Instance_map@@QAEPAVInstance@@PBUst_mysql_lex_string@@@Z 00406680 f   instance_map.obj
 0001:000056a0       ?go_to_first@Iterator@Instance_map@@QAEXXZ 004066a0 f   instance_map.obj
 0001:000056b0       ?next@Iterator@Instance_map@@QAEPAVInstance@@XZ 004066b0 f   instance_map.obj
 0001:000056e0       ?create_instance_in_file@@YAHPBUst_mysql_lex_string@@PBVNamed_value_arr@@@Z 004066e0 f   instance_map.obj
 0001:000059e0       ?process_one_option@Instance_map@@QAEHPBUst_mysql_lex_string@@PBD@Z 004069e0 f   instance_map.obj
 0001:00005ba0       ?init@Instance_map@@QAE_NXZ 00406ba0 f   instance_map.obj
 0001:00005be0       ?reset@Instance_map@@QAE_NXZ 00406be0 f   instance_map.obj
 0001:00005c00       ??1Instance_map@@QAE@XZ    00406c00 f   instance_map.obj
 0001:00005ca0       ?is_there_active_instance@Instance_map@@QAE_NXZ 00406ca0 f   instance_map.obj
 0001:00005d10       ?complete_initialization@Instance_map@@AAE_NXZ 00406d10 f   instance_map.obj
 0001:00005e50       ?load@Instance_map@@QAEHXZ 00406e50 f   instance_map.obj
 0001:00005f70       ?strstr@@YAPADPADPBD@Z     00406f70 f i instance_options.obj
 0001:00005f80       ?alloc_str@Named_value@@SAPADPBD@Z 00406f80 f i instance_options.obj
 0001:00005fa0       ?remove_element@Named_value_arr@@QAEXH@Z 00406fa0 f i instance_options.obj
 0001:00006010       ?replace_element@Named_value_arr@@QAE_NHPAVNamed_value@@@Z 00407010 f i instance_options.obj
 0001:00006170       ?is_option_im_specific@Instance_options@@SA_NPBD@Z 00407170 f   instance_options.obj
 0001:000061e0       ??0Instance_options@@QAE@XZ 004071e0 f   instance_options.obj
 0001:00006280       ?get_default_option@Instance_options@@AAEHPADIPBD@Z 00407280 f   instance_options.obj
 0001:00006360       ?fill_instance_version@Instance_options@@AAE_NXZ 00407360 f   instance_options.obj
 0001:00006500       ?fill_mysqld_real_path@Instance_options@@AAE_NXZ 00407500 f   instance_options.obj
 0001:000066b0       ?fill_log_options@Instance_options@@AAE_NXZ 004076b0 f   instance_options.obj
 0001:00006aa0       ?get_pid_filename@Instance_options@@QAEHPAD@Z 00407aa0 f   instance_options.obj
 0001:00006b60       ?unlink_pidfile@Instance_options@@QAEHXZ 00407b60 f   instance_options.obj
 0001:00006b70       ?load_pid@Instance_options@@QAEHXZ 00407b70 f   instance_options.obj
 0001:00006be0       ?update_var@Instance_options@@AAEXPBD0@Z 00407be0 f   instance_options.obj
 0001:00006d40       ?find_option@Instance_options@@AAEHPBD@Z 00407d40 f   instance_options.obj
 0001:00006e00       ?add_to_argv@Instance_options@@AAEHPBD@Z 00407e00 f   instance_options.obj
 0001:00006e30       ?print_argv@Instance_options@@QAEXXZ 00407e30 f   instance_options.obj
 0001:00006e90       ?init@Instance_options@@QAE_NPBUst_mysql_lex_string@@@Z 00407e90 f   instance_options.obj
 0001:00006f10       ??1Instance_options@@QAE@XZ 00407f10 f   instance_options.obj
 0001:00006f40       ?get_shutdown_delay@Instance_options@@QBEIXZ 00407f40 f   instance_options.obj
 0001:00006f60       ?get_mysqld_port@Instance_options@@QBEHXZ 00407f60 f   instance_options.obj
 0001:00006f80       ?set_option@Instance_options@@QAE_NPAVNamed_value@@@Z 00407f80 f   instance_options.obj
 0001:00007090       ?unset_option@Instance_options@@QAEXPBD@Z 00408090 f   instance_options.obj
 0001:000070d0       ?complete_initialization@Instance_options@@QAE_NXZ 004080d0 f   instance_options.obj
 0001:000074a0       ?is_shutdown@Thread_registry@@QAE_NXZ 004084a0 f i listener.obj
 0001:00007510       ??0Listener@@QAE@PAVThread_registry@@PAVUser_map@@@Z 00408510 f   listener.obj
 0001:00007540       ??1Listener@@UAE@XZ        00408540 f i listener.obj
 0001:00007550       ?create_tcp_socket@Listener@@AAEHXZ 00408550 f   listener.obj
 0001:00007740       ?handle_new_mysql_connection@Listener@@AAEXPAUst_vio@@@Z 00408740 f   listener.obj
 0001:000077d0       ??_EListener@@UAEPAXI@Z    004087d0 f i listener.obj
 0001:000077d0       ??_GListener@@UAEPAXI@Z    004087d0 f i listener.obj
 0001:00007800       ?run@Listener@@MAEXXZ      00408800 f   listener.obj
 0001:00007cb0       ?log_init@@YAXXZ           00408cb0 f   log.obj
 0001:00007cd0       ?log_error@@YAXPBDZZ       00408cd0 f   log.obj
 0001:00007d40       ?log_info@@YAXPBDZZ        00408d40 f   log.obj
 0001:00007d70       ?die@@YAXPBDZZ             00408d70 f   log.obj
 0001:00007de0       ?onsignal@@YAXH@Z          00408de0 f   manager.obj
 0001:00007df0       ?set_signals@@YAXPAH@Z     00408df0 f   manager.obj
 0001:00007e20       ?my_sigwait@@YAHPBHPAH@Z   00408e20 f   manager.obj
 0001:00007e50       ??0ThreadModelChecker@?A0xaa3af1e8@@QAE@XZ 00408e50 f i manager.obj
 0001:00007e70       ?is_linux_threads@ThreadModelChecker@?A0xaa3af1e8@@QBE_NXZ 00408e70 f i manager.obj
 0001:00007e80       ?run@ThreadModelChecker@?A0xaa3af1e8@@MAEXXZ 00408e80 f i manager.obj
 0001:00007ea0       ??1ThreadModelChecker@?A0xaa3af1e8@@UAE@XZ 00408ea0 f i manager.obj
 0001:00007eb0       ?check_if_linux_threads@?A0xaa3af1e8@@YA_NPA_N@Z 00408eb0 f   manager.obj
 0001:00007f20       ?stop_all_threads@Manager@@CAXXZ 00408f20 f   manager.obj
 0001:00007f50       ?init_user_map@Manager@@CA_NPAVUser_map@@@Z 00408f50 f   manager.obj
 0001:00007fe0       ?flush_instances@Manager@@SAHXZ 00408fe0 f   manager.obj
 0001:00008080       ??_EThreadModelChecker@?A0xaa3af1e8@@UAEPAXI@Z 00409080 f i manager.obj
 0001:00008080       ??_GThreadModelChecker@?A0xaa3af1e8@@UAEPAXI@Z 00409080 f i manager.obj
 0001:000080b0       ?main@Manager@@SAHXZ       004090b0 f   manager.obj
 0001:00008580       ?message@@YAPBDI@Z         00409580 f   messages.obj
 0001:00008590       ?errno_to_sqlstate@@YAPBDI@Z 00409590 f   messages.obj
 0001:000085b0       ??0Mysql_connection@@QAE@PAVThread_registry@@PAVUser_map@@PAUst_vio@@K@Z 004095b0 f   mysql_connection.obj
 0001:000085e0       _my_net_local_init         004095e0 f   mysql_connection.obj
 0001:00008630       _slave_io_thread_detach_vio 00409630 f   mysql_connection.obj
 0001:00008640       ?init@Mysql_connection@@AAE_NXZ 00409640 f   mysql_connection.obj
 0001:000086f0       ?cleanup@Mysql_connection@@AAEXXZ 004096f0 f   mysql_connection.obj
 0001:00008720       ??1Mysql_connection@@UAE@XZ 00409720 f   mysql_connection.obj
 0001:00008750       ?check_connection@Mysql_connection@@AAEHXZ 00409750 f   mysql_connection.obj
 0001:000089e0       ?dispatch_command@Mysql_connection@@AAEHW4enum_server_command@@PBD@Z 004099e0 f   mysql_connection.obj
 0001:00008b70       ??_EMysql_connection@@UAEPAXI@Z 00409b70 f i mysql_connection.obj
 0001:00008b70       ??_GMysql_connection@@UAEPAXI@Z 00409b70 f i mysql_connection.obj
 0001:00008ba0       ?do_command@Mysql_connection@@AAEHXZ 00409ba0 f   mysql_connection.obj
 0001:00008c90       ?main@Mysql_connection@@AAEXXZ 00409c90 f   mysql_connection.obj
 0001:00008d50       ?run@Mysql_connection@@MAEXXZ 00409d50 f   mysql_connection.obj
 0001:00008df0       _main                      00409df0 f   mysqlmanager.obj
 0001:00008e80       ?strchr@@YAPADPADH@Z       00409e80 f i options.obj
 0001:00008e90       ?strrchr@@YAPADPADH@Z      00409e90 f i options.obj
 0001:00008ea0       ??0User_management_cmd@@QAE@XZ 00409ea0 f i options.obj
 0001:00008eb0       ??1User_management_cmd@@UAE@XZ 00409eb0 f i options.obj
 0001:00008ec0       ??_EUser_management_cmd@@UAEPAXI@Z 00409ec0 f i options.obj
 0001:00008ec0       ??_GUser_management_cmd@@UAEPAXI@Z 00409ec0 f i options.obj
 0001:00008ef0       ??0Print_password_line_cmd@@QAE@XZ 00409ef0 f i options.obj
 0001:00008f00       ??1Print_password_line_cmd@@UAE@XZ 00409f00 f i options.obj
 0001:00008f10       ??0Add_user_cmd@@QAE@XZ    00409f10 f i options.obj
 0001:00008f20       ??1Add_user_cmd@@UAE@XZ    00409f20 f i options.obj
 0001:00008f30       ??0Drop_user_cmd@@QAE@XZ   00409f30 f i options.obj
 0001:00008f40       ??1Drop_user_cmd@@UAE@XZ   00409f40 f i options.obj
 0001:00008f50       ??0Edit_user_cmd@@QAE@XZ   00409f50 f i options.obj
 0001:00008f60       ??1Edit_user_cmd@@UAE@XZ   00409f60 f i options.obj
 0001:00008f70       ??0Clean_db_cmd@@QAE@XZ    00409f70 f i options.obj
 0001:00008f80       ??1Clean_db_cmd@@UAE@XZ    00409f80 f i options.obj
 0001:00008f90       ??0Check_db_cmd@@QAE@XZ    00409f90 f i options.obj
 0001:00008fa0       ??1Check_db_cmd@@UAE@XZ    00409fa0 f i options.obj
 0001:00008fb0       ??0List_users_cmd@@QAE@XZ  00409fb0 f i options.obj
 0001:00008fc0       ??1List_users_cmd@@UAE@XZ  00409fc0 f i options.obj
 0001:00009350       ?cleanup@Options@@SAXXZ    0040a350 f   options.obj
 0001:00009520       ??_EPrint_password_line_cmd@@UAEPAXI@Z 0040a520 f i options.obj
 0001:00009520       ??_GPrint_password_line_cmd@@UAEPAXI@Z 0040a520 f i options.obj
 0001:00009550       ??_EAdd_user_cmd@@UAEPAXI@Z 0040a550 f i options.obj
 0001:00009550       ??_GAdd_user_cmd@@UAEPAXI@Z 0040a550 f i options.obj
 0001:00009580       ??_EDrop_user_cmd@@UAEPAXI@Z 0040a580 f i options.obj
 0001:00009580       ??_GDrop_user_cmd@@UAEPAXI@Z 0040a580 f i options.obj
 0001:000095b0       ??_EEdit_user_cmd@@UAEPAXI@Z 0040a5b0 f i options.obj
 0001:000095b0       ??_GEdit_user_cmd@@UAEPAXI@Z 0040a5b0 f i options.obj
 0001:000095e0       ??_GClean_db_cmd@@UAEPAXI@Z 0040a5e0 f i options.obj
 0001:000095e0       ??_EClean_db_cmd@@UAEPAXI@Z 0040a5e0 f i options.obj
 0001:00009610       ??_GCheck_db_cmd@@UAEPAXI@Z 0040a610 f i options.obj
 0001:00009610       ??_ECheck_db_cmd@@UAEPAXI@Z 0040a610 f i options.obj
 0001:00009640       ??_GList_users_cmd@@UAEPAXI@Z 0040a640 f i options.obj
 0001:00009640       ??_EList_users_cmd@@UAEPAXI@Z 0040a640 f i options.obj
 0001:00009670       ?load@Options@@SAHHPAPAD@Z 0040a670 f   options.obj
 0001:000097f0       ??0Show_instances@@QAE@XZ  0040a7f0 f i parse.obj
 0001:00009810       ??1Show_instances@@UAE@XZ  0040a810 f i parse.obj
 0001:00009820       ??0Flush_instances@@QAE@XZ 0040a820 f i parse.obj
 0001:00009840       ??1Flush_instances@@UAE@XZ 0040a840 f i parse.obj
 0001:00009850       ??0Set_option@@QAE@XZ      0040a850 f i parse.obj
 0001:00009870       ??1Set_option@@UAE@XZ      0040a870 f i parse.obj
 0001:00009880       ??0Unset_option@@QAE@XZ    0040a880 f i parse.obj
 0001:000098a0       ??1Unset_option@@UAE@XZ    0040a8a0 f i parse.obj
 0001:000098b0       ??0Syntax_error@@QAE@XZ    0040a8b0 f i parse.obj
 0001:000098d0       ??1Syntax_error@@UAE@XZ    0040a8d0 f i parse.obj
 0001:000098e0       ??0Named_value_arr@@QAE@XZ 0040a8e0 f   parse.obj
 0001:000098f0       ?init@Named_value_arr@@QAE_NXZ 0040a8f0 f   parse.obj
 0001:00009920       ??1Named_value_arr@@QAE@XZ 0040a920 f   parse.obj
 0001:000099b0       ?find_token@@YA?AW4Token@@PBDI@Z 0040a9b0 f i parse.obj
 0001:00009a10       ?get_token@@YA?AW4Token@@PAPBDPAI@Z 0040aa10 f   parse.obj
 0001:00009a50       ?shift_token@@YA?AW4Token@@PAPBDPAI@Z 0040aa50 f   parse.obj
 0001:00009a80       ?get_text_id@@YAHPAPBDPAUst_mysql_lex_string@@@Z 0040aa80 f   parse.obj
 0001:00009b00       ?parse_option_value@@YA_NPBDPAIPAPAD@Z 0040ab00 f   parse.obj
 0001:00009ca0       ?skip_spaces@@YAXPAPBD@Z   0040aca0 f   parse.obj
 0001:00009ce0       ?parse_command@@YAPAVCommand@@PBD@Z 0040ace0 f   parse.obj
 0001:0000a430       ??_EShow_instances@@UAEPAXI@Z 0040b430 f i parse.obj
 0001:0000a430       ??_GShow_instances@@UAEPAXI@Z 0040b430 f i parse.obj
 0001:0000a460       ??_EFlush_instances@@UAEPAXI@Z 0040b460 f i parse.obj
 0001:0000a460       ??_GFlush_instances@@UAEPAXI@Z 0040b460 f i parse.obj
 0001:0000a490       ??_GSet_option@@UAEPAXI@Z  0040b490 f i parse.obj
 0001:0000a490       ??_ESet_option@@UAEPAXI@Z  0040b490 f i parse.obj
 0001:0000a4c0       ??_GUnset_option@@UAEPAXI@Z 0040b4c0 f i parse.obj
 0001:0000a4c0       ??_EUnset_option@@UAEPAXI@Z 0040b4c0 f i parse.obj
 0001:0000a4f0       ??_GSyntax_error@@UAEPAXI@Z 0040b4f0 f i parse.obj
 0001:0000a4f0       ??_ESyntax_error@@UAEPAXI@Z 0040b4f0 f i parse.obj
 0001:0000a520       ?trim_space@?A0x1beba216@@YAXPAPBDPAI@Z 0040b520 f   parse_output.obj
 0001:0000a5a0       ??0Mysqld_output_parser@?A0x1beba216@@QAE@XZ 0040b5a0 f i parse_output.obj
 0001:0000a5b0       ??1Mysqld_output_parser@?A0x1beba216@@UAE@XZ 0040b5b0 f i parse_output.obj
 0001:0000a5c0       ??_EMysqld_output_parser@?A0x1beba216@@UAEPAXI@Z 0040b5c0 f i parse_output.obj
 0001:0000a5c0       ??_GMysqld_output_parser@?A0x1beba216@@UAEPAXI@Z 0040b5c0 f i parse_output.obj
 0001:0000a5f0       ?parse@Mysqld_output_parser@?A0x1beba216@@QAE_NPBD0IPADIW4enum_option_type@@@Z 0040b5f0 f   parse_output.obj
 0001:0000a750       ??0Mysqld_output_parser_win@?A0x1beba216@@QAE@XZ 0040b750 f i parse_output.obj
 0001:0000a770       ??1Mysqld_output_parser_win@?A0x1beba216@@UAE@XZ 0040b770 f i parse_output.obj
 0001:0000a780       ?run_command@Mysqld_output_parser_win@?A0x1beba216@@MAE_NPBD@Z 0040b780 f   parse_output.obj
 0001:0000a880       ?read_line@Mysqld_output_parser_win@?A0x1beba216@@MAE_NPADI@Z 0040b880 f   parse_output.obj
 0001:0000a930       ?cleanup@Mysqld_output_parser_win@?A0x1beba216@@MAE_NXZ 0040b930 f   parse_output.obj
 0001:0000a960       ?parse_output_and_get_value@@YA_NPBD0IPADIW4enum_option_type@@@Z 0040b960 f   parse_output.obj
 0001:0000a9c0       ??_EMysqld_output_parser_win@?A0x1beba216@@UAEPAXI@Z 0040b9c0 f i parse_output.obj
 0001:0000a9c0       ??_GMysqld_output_parser_win@?A0x1beba216@@UAEPAXI@Z 0040b9c0 f i parse_output.obj
 0001:0000a9f0       ?create_pid_file@@YA_NPBDH@Z 0040b9f0 f   priv.obj
 0001:0000aac0       ?net_send_error@@YAHPAUst_net@@I@Z 0040bac0 f   protocol.obj
 0001:0000abb0       ?net_send_error_323@@YAHPAUst_net@@I@Z 0040bbb0 f   protocol.obj
 0001:0000ac80       ?net_store_length@@YAPADPADI@Z 0040bc80 f   protocol.obj
 0001:0000acb0       ?store_to_protocol_packet@@YAHPAVBuffer@@PBDPAII@Z 0040bcb0 f   protocol.obj
 0001:0000ad30       ?store_to_protocol_packet@@YAHPAVBuffer@@PBDPAI@Z 0040bd30 f   protocol.obj
 0001:0000ad70       ?send_eof@@YAHPAUst_net@@@Z 0040bd70 f   protocol.obj
 0001:0000add0       ?send_fields@@YAHPAUst_net@@PAUst_list@@@Z 0040bdd0 f   protocol.obj
 0001:0000b000       ?net_send_ok@@YAHPAUst_net@@KPBD@Z 0040c000 f   protocol.obj
 0001:0000b140       ?init@Thread_info@@AAEX_N@Z 0040c140 f   thread_registry.obj
 0001:0000b160       ??0Thread_registry@@QAE@XZ 0040c160 f   thread_registry.obj
 0001:0000b1b0       ??1Thread_registry@@QAE@XZ 0040c1b0 f   thread_registry.obj
 0001:0000b210       ?register_thread@Thread_registry@@QAEXPAVThread_info@@_N@Z 0040c210 f   thread_registry.obj
 0001:0000b270       ?unregister_thread@Thread_registry@@QAEXPAVThread_info@@@Z 0040c270 f   thread_registry.obj
 0001:0000b2d0       ?cond_wait@Thread_registry@@QAEHPAVThread_info@@PAUpthread_cond_t@@PAU_RTL_CRITICAL_SECTION@@@Z 0040c2d0 f   thread_registry.obj
 0001:0000b350       ?cond_timedwait@Thread_registry@@QAEHPAVThread_info@@PAUpthread_cond_t@@PAU_RTL_CRITICAL_SECTION@@PAUtimespec@@@Z 0040c350 f   thread_registry.obj
 0001:0000b3e0       ?request_shutdown@Thread_registry@@QAEXXZ 0040c3e0 f   thread_registry.obj
 0001:0000b400       ?interrupt_threads@Thread_registry@@AAEXXZ 0040c400 f   thread_registry.obj
 0001:0000b460       ?wait_for_threads_to_unregister@Thread_registry@@AAEXXZ 0040c460 f   thread_registry.obj
 0001:0000b4f0       ??1Thread@@MAE@XZ          0040c4f0 f   thread_registry.obj
 0001:0000b500       ?thread_func@Thread@@CAPAXPAX@Z 0040c500 f   thread_registry.obj
 0001:0000b520       ?start@Thread@@QAE_NW4enum_thread_type@1@@Z 0040c520 f   thread_registry.obj
 0001:0000b5a0       ?join@Thread@@QAE_NXZ      0040c5a0 f   thread_registry.obj
 0001:0000b5c0       ?get_error_status@Thread_registry@@QAEHXZ 0040c5c0 f   thread_registry.obj
 0001:0000b5f0       ?set_error_status@Thread_registry@@QAEXXZ 0040c5f0 f   thread_registry.obj
 0001:0000b620       ?deliver_shutdown@Thread_registry@@QAEXXZ 0040c620 f   thread_registry.obj
 0001:0000b670       ??0User@@QAE@XZ            0040c670 f i user_map.obj
 0001:0000b680       ?set_password@User@@QAEXPBD@Z 0040c680 f i user_map.obj
 0001:0000b6a0       ??0Iterator@User_map@@QAE@PAV1@@Z 0040c6a0 f i user_map.obj
 0001:0000b6c0       ??0User@@QAE@PBUst_mysql_lex_string@@PBD@Z 0040c6c0 f   user_map.obj
 0001:0000b700       ?init@User@@QAEHPBD@Z      0040c700 f   user_map.obj
 0001:0000b8b0       ?reset@Iterator@User_map@@QAEXXZ 0040c8b0 f   user_map.obj
 0001:0000b8c0       ?next@Iterator@User_map@@QAEPAUUser@@XZ 0040c8c0 f   user_map.obj
 0001:0000b8f0       ?init@User_map@@QAEHXZ     0040c8f0 f   user_map.obj
 0001:0000b940       ??0User_map@@QAE@XZ        0040c940 f   user_map.obj
 0001:0000b950       ??1User_map@@QAE@XZ        0040c950 f   user_map.obj
 0001:0000b970       ?load@User_map@@QAEHPBDPAPBD@Z 0040c970 f   user_map.obj
 0001:0000bcc0       ?save@User_map@@QAEHPBDPAPBD@Z 0040ccc0 f   user_map.obj
 0001:0000be10       ?find_user@User_map@@QAEPAUUser@@PBUst_mysql_lex_string@@@Z 0040ce10 f   user_map.obj
 0001:0000be30       ?find_user@User_map@@QBEPBUUser@@PBUst_mysql_lex_string@@@Z 0040ce30 f   user_map.obj
 0001:0000be40       ?add_user@User_map@@QAE_NPAUUser@@@Z 0040ce40 f   user_map.obj
 0001:0000be60       ?remove_user@User_map@@QAE_NPAUUser@@@Z 0040ce60 f   user_map.obj
 0001:0000be80       ?authenticate@User_map@@QBEHPBUst_mysql_lex_string@@PBD1@Z 0040ce80 f   user_map.obj
 0001:0000bec0       ??0IMService@@AAE@XZ       0040cec0 f   IMService.obj
 0001:0000bef0       ?Shutdown@WindowsService@@MAEXXZ 0040cef0 f i IMService.obj
 0001:0000bf00       ?Pause@WindowsService@@MAEXXZ 0040cf00 f i IMService.obj
 0001:0000bf10       ?Continue@WindowsService@@MAEXXZ 0040cf10 f i IMService.obj
 0001:0000bf20       ??1IMService@@AAE@XZ       0040cf20 f   IMService.obj
 0001:0000bf30       ?Stop@IMService@@MAEXXZ    0040cf30 f   IMService.obj
 0001:0000bf50       ?Run@IMService@@MAEXKPAPAD@Z 0040cf50 f   IMService.obj
 0001:0000bfb0       ?Log@IMService@@MAEXPBD@Z  0040cfb0 f   IMService.obj
 0001:0000bfd0       ?main@IMService@@SAHXZ     0040cfd0 f   IMService.obj
 0001:0000c140       ??0WindowsService@@QAE@PBD0@Z 0040d140 f   WindowsService.obj
 0001:0000c190       ?Stop@WindowsService@@MAEXXZ 0040d190 f i WindowsService.obj
 0001:0000c1a0       ?Log@WindowsService@@MAEXPBD@Z 0040d1a0 f i WindowsService.obj
 0001:0000c1b0       ??1WindowsService@@QAE@XZ  0040d1b0 f   WindowsService.obj
 0001:0000c1c0       ?IsInstalled@WindowsService@@QAEHXZ 0040d1c0 f   WindowsService.obj
 0001:0000c210       ?SetAcceptedControls@WindowsService@@QAEXK@Z 0040d210 f   WindowsService.obj
 0001:0000c220       ?ReportStatus@WindowsService@@IAEHKKK@Z 0040d220 f   WindowsService.obj
 0001:0000c2e0       ?HandleControlCode@WindowsService@@IAEXK@Z 0040d2e0 f   WindowsService.obj
 0001:0000c380       ?ControlHandler@WindowsService@@SGXK@Z 0040d380 f   WindowsService.obj
 0001:0000c390       ?Install@WindowsService@@QAEHPBD0@Z 0040d390 f   WindowsService.obj
 0001:0000c480       ?Remove@WindowsService@@QAEHXZ 0040d480 f   WindowsService.obj
 0001:0000c510       ?RegisterAndRun@WindowsService@@IAEXKPAPAD@Z 0040d510 f   WindowsService.obj
 0001:0000c580       ?ServiceMain@WindowsService@@SGXKPAPAD@Z 0040d580 f   WindowsService.obj
 0001:0000c590       ?Init@WindowsService@@QAEHXZ 0040d590 f   WindowsService.obj
 0001:0000c860       ?execute@Print_password_line_cmd@@UAEHXZ 0040d860 f   user_management_commands.obj
 0001:0000c920       ?execute@Add_user_cmd@@UAEHXZ 0040d920 f   user_management_commands.obj
 0001:0000ca70       ?execute@Drop_user_cmd@@UAEHXZ 0040da70 f   user_management_commands.obj
 0001:0000cb40       ?execute@Edit_user_cmd@@UAEHXZ 0040db40 f   user_management_commands.obj
 0001:0000cc40       ?execute@Clean_db_cmd@@UAEHXZ 0040dc40 f   user_management_commands.obj
 0001:0000ccc0       ?execute@Check_db_cmd@@UAEHXZ 0040dcc0 f   user_management_commands.obj
 0001:0000cd00       ?execute@List_users_cmd@@UAEHXZ 0040dd00 f   user_management_commands.obj
 0001:0000cdb0       _my_net_init               0040ddb0 f   net_serv.obj
 0001:0000ce60       _net_end                   0040de60 f   net_serv.obj
 0001:0000ce80       _net_realloc               0040de80 f   net_serv.obj
 0001:0000cfb0       _net_clear                 0040dfb0 f   net_serv.obj
 0001:0000d030       _net_real_write            0040e030 f   net_serv.obj
 0001:0000d4d0       _my_net_read               0040e4d0 f   net_serv.obj
 0001:0000d720       _my_net_set_read_timeout   0040e720 f   net_serv.obj
 0001:0000d750       _my_net_set_write_timeout  0040e750 f   net_serv.obj
 0001:0000d780       _net_flush                 0040e780 f   net_serv.obj
 0001:0000d8e0       _my_net_write              0040e8e0 f   net_serv.obj
 0001:0000d9e0       _net_write_command         0040e9e0 f   net_serv.obj
 0001:0000dbb0       _net_field_length@4        0040ebb0 f   pack.obj
 0001:0000dc20       _net_field_length_ll       0040ec20 f   pack.obj
 0001:0000dc90       _net_store_length          0040ec90 f   pack.obj
 0001:0000dd30       _randominit                0040ed30 f   password.obj
 0001:0000dd70       _my_rnd                    0040ed70 f   password.obj
 0001:0000ddc0       _hash_password             0040edc0 f   password.obj
 0001:0000de60       _my_make_scrambled_password_323 0040ee60 f   password.obj
 0001:0000deb0       _make_scrambled_password_323 0040eeb0 f   password.obj
 0001:0000def0       _scramble_323              0040eef0 f   password.obj
 0001:0000e040       _check_scramble_323        0040f040 f   password.obj
 0001:0000e1e0       _get_salt_from_password_323 0040f1e0 f   password.obj
 0001:0000e350       _make_password_from_salt_323 0040f350 f   password.obj
 0001:0000e380       _create_random_string      0040f380 f   password.obj
 0001:0000e3e0       _octet2hex                 0040f3e0 f   password.obj
 0001:0000e510       _my_make_scrambled_password 0040f510 f   password.obj
 0001:0000e5e0       _make_scrambled_password   0040f5e0 f   password.obj
 0001:0000e620       _scramble                  0040f620 f   password.obj
 0001:0000e760       _check_scramble            0040f760 f   password.obj
 0001:0000e920       _get_salt_from_password    0040f920 f   password.obj
 0001:0000e940       _make_password_from_salt   0040f940 f   password.obj
 0001:0000e970       _mysql_errno_to_sqlstate   0040f970 f   sql_state.obj
 0001:0000e9d0       _my_connect                0040f9d0 f   client.obj
 0001:0000e9f0       _set_mysql_error           0040f9f0 f   client.obj
 0001:0000ea60       _net_clear_error           0040fa60 f   client.obj
 0001:0000eae0       _create_named_pipe         0040fae0 f   client.obj
 0001:0000ed30       _free_rows                 0040fd30 f   client.obj
 0001:0000ed60       _free_old_query            0040fd60 f   client.obj
 0001:0000ee10       _mysql_free_result@4       0040fe10 f   client.obj
 0001:0000ef50       _mysql_read_default_options 0040ff50 f   client.obj
 0001:0000f500       _unpack_fields             00410500 f   client.obj
 0001:0000f8e0       _mysql_init@4              004108e0 f   client.obj
 0001:0000f9d0       _mysql_ssl_set@24          004109d0 f   client.obj
 0001:0000fb50       _mysql_get_ssl_cipher@4    00410b50 f   client.obj
 0001:0000fcd0       _mysql_init_character_set  00410cd0 f   client.obj
 0001:0000ff70       _mysql_select_db@8         00410f70 f   client.obj
 0001:00010220       _mysql_detach_stmt_list    00411220 f   client.obj
 0001:00010230       _mysql_send_query@12       00411230 f   client.obj
 0001:00010270       _mysql_real_query@12       00411270 f   client.obj
 0001:000102c0       _mysql_store_result@4      004112c0 f   client.obj
 0001:00010590       _mysql_fetch_lengths@4     00411590 f   client.obj
 0001:000105d0       _mysql_options@12          004115d0 f   client.obj
 0001:00010920       _mysql_num_rows@4          00411920 f   client.obj
 0001:00010930       _mysql_num_fields@4        00411930 f   client.obj
 0001:00010940       _mysql_errno@4             00411940 f   client.obj
 0001:00010960       _mysql_error@4             00411960 f   client.obj
 0001:00010980       _mysql_get_server_version@4 00411980 f   client.obj
 0001:000109f0       _mysql_set_character_set@8 004119f0 f   client.obj
 0001:00010b40       _end_server                00411b40 f   client.obj
 0001:00010ba0       _mysql_close@4             00411ba0 f   client.obj
 0001:00010c80       _cli_safe_read             00411c80 f   client.obj
 0001:00010e60       _cli_read_rows             00411e60 f   client.obj
 0001:00011260       _mysql_real_connect@32     00412260 f   client.obj
 0001:000121e0       _mysql_reconnect           004131e0 f   client.obj
 0001:00012650       _mysql_fetch_row@4         00413650 f   client.obj
 0001:00012740       _cli_advanced_command      00413740 f   client.obj
 0001:00012920       _get_tty_password          00413920 f   get_password.obj
 0001:00012a50       _init_client_errs          00413a50 f   errmsg.obj
 0001:00012a70       _finish_client_errs        00413a70 f   errmsg.obj
 0001:00012a88       _InitializeCriticalSection@4 00413a88 f   kernel32:KERNEL32.dll
 0001:00012a8e       _EnterCriticalSection@4    00413a8e f   kernel32:KERNEL32.dll
 0001:00012a94       _LeaveCriticalSection@4    00413a94 f   kernel32:KERNEL32.dll
 0001:00012a9a       _DeleteCriticalSection@4   00413a9a f   kernel32:KERNEL32.dll
 0001:00012aa0       _GetSystemTimeAsFileTime@4 00413aa0 f   kernel32:KERNEL32.dll
 0001:00012aa6       _CloseHandle@4             00413aa6 f   kernel32:KERNEL32.dll
 0001:00012aac       _GetExitCodeProcess@8      00413aac f   kernel32:KERNEL32.dll
 0001:00012ab2       _WaitForSingleObject@8     00413ab2 f   kernel32:KERNEL32.dll
 0001:00012ab8       _CreateProcessA@40         00413ab8 f   kernel32:KERNEL32.dll
 0001:00012abe       _SetLastError@4            00413abe f   kernel32:KERNEL32.dll
 0001:00012ac4       _GetLastError@0            00413ac4 f   kernel32:KERNEL32.dll
 0001:00012aca       _CreateRemoteThread@28     00413aca f   kernel32:KERNEL32.dll
 0001:00012ad0       _GetProcAddress@8          00413ad0 f   kernel32:KERNEL32.dll
 0001:00012ad6       _DuplicateHandle@28        00413ad6 f   kernel32:KERNEL32.dll
 0001:00012adc       _GetCurrentProcess@0       00413adc f   kernel32:KERNEL32.dll
 0001:00012ae2       _GetModuleHandleA@4        00413ae2 f   kernel32:KERNEL32.dll
 0001:00012ae8       _TerminateProcess@8        00413ae8 f   kernel32:KERNEL32.dll
 0001:00012aee       _OpenProcess@12            00413aee f   kernel32:KERNEL32.dll
 0001:00012af4       _GetCurrentThreadId@0      00413af4 f   kernel32:KERNEL32.dll
 0001:00012afa       _Sleep@4                   00413afa f   kernel32:KERNEL32.dll
 0001:00012b00       _GetFullPathNameA@16       00413b00 f   kernel32:KERNEL32.dll
 0001:00012b06       _GetModuleFileNameA@12     00413b06 f   kernel32:KERNEL32.dll
 0001:00012b0c       _SetHandleInformation@12   00413b0c f   kernel32:KERNEL32.dll
 0001:00012b12       _CreatePipe@16             00413b12 f   kernel32:KERNEL32.dll
 0001:00012b18       _ReadFile@20               00413b18 f   kernel32:KERNEL32.dll
 0001:00012b1e       _SetNamedPipeHandleState@16 00413b1e f   kernel32:KERNEL32.dll
 0001:00012b24       _WaitNamedPipeA@8          00413b24 f   kernel32:KERNEL32.dll
 0001:00012b2a       _CreateFileA@28            00413b2a f   kernel32:KERNEL32.dll
 0001:00012b30       _CloseServiceHandle@4      00413b30 f   advapi32:ADVAPI32.dll
 0001:00012b36       _OpenServiceA@12           00413b36 f   advapi32:ADVAPI32.dll
 0001:00012b3c       _OpenSCManagerA@12         00413b3c f   advapi32:ADVAPI32.dll
 0001:00012b42       _SetServiceStatus@8        00413b42 f   advapi32:ADVAPI32.dll
 0001:00012b48       _CreateServiceA@52         00413b48 f   advapi32:ADVAPI32.dll
 0001:00012b4e       _DeleteService@4           00413b4e f   advapi32:ADVAPI32.dll
 0001:00012b54       _RegisterServiceCtrlHandlerA@8 00413b54 f   advapi32:ADVAPI32.dll
 0001:00012b5a       _StartServiceCtrlDispatcherA@4 00413b5a f   advapi32:ADVAPI32.dll
 0001:00012b60       _my_realloc                00413b60 f   mysys:my_realloc.obj
 0001:00012be0       _my_malloc                 00413be0 f   mysys:my_malloc.obj
 0001:00012c60       _my_no_flags_free          00413c60 f   mysys:my_malloc.obj
 0001:00012c80       _my_memdup                 00413c80 f   mysys:my_malloc.obj
 0001:00012cb0       _my_strdup                 00413cb0 f   mysys:my_malloc.obj
 0001:00012d00       _my_strndup                00413d00 f   mysys:my_malloc.obj
 0001:00012d40       _init_dynamic_array2       00413d40 f   mysys:array.obj
 0001:00012dc0       _init_dynamic_array        00413dc0 f   mysys:array.obj
 0001:00012de0       _alloc_dynamic             00413de0 f   mysys:array.obj
 0001:00012e70       _pop_dynamic               00413e70 f   mysys:array.obj
 0001:00012e90       _allocate_dynamic          00413e90 f   mysys:array.obj
 0001:00012f10       _get_dynamic               00413f10 f   mysys:array.obj
 0001:00012f50       _delete_dynamic            00413f50 f   mysys:array.obj
 0001:00012f90       _delete_dynamic_element    00413f90 f   mysys:array.obj
 0001:00012fc0       _freeze_size               00413fc0 f   mysys:array.obj
 0001:00013000       _get_index_dynamic         00414000 f   mysys:array.obj
 0001:00013020       _insert_dynamic            00414020 f   mysys:array.obj
 0001:00013070       _set_dynamic               00414070 f   mysys:array.obj
 0001:000130e0       _my_charset_same           004140e0 f   mysys:charset.obj
 0001:00013740       _get_charsets_dir          00414740 f   mysys:charset.obj
 0001:00013800       _add_compiled_collation    00414800 f   mysys:charset.obj
 0001:000138d0       _free_charsets             004148d0 f   mysys:charset.obj
 0001:000138e0       _get_collation_number      004148e0 f   mysys:charset.obj
 0001:00013900       _get_charset_number        00414900 f   mysys:charset.obj
 0001:00013970       _get_charset_name          00414970 f   mysys:charset.obj
 0001:00013aa0       _get_charset               00414aa0 f   mysys:charset.obj
 0001:00013b80       _get_charset_by_name       00414b80 f   mysys:charset.obj
 0001:00013c20       _get_charset_by_csname     00414c20 f   mysys:charset.obj
 0001:00013cd0       _resolve_charset           00414cd0 f   mysys:charset.obj
 0001:00013d00       _resolve_collation         00414d00 f   mysys:charset.obj
 0001:00013d30       _escape_string_for_mysql   00414d30 f   mysys:charset.obj
 0001:00013ee0       _fs_character_set          00414ee0 f   mysys:charset.obj
 0001:00013f70       _escape_quotes_for_mysql   00414f70 f   mysys:charset.obj
 0001:00014050       _list_add                  00415050 f   mysys:list.obj
 0001:00014080       _list_delete               00415080 f   mysys:list.obj
 0001:000140b0       _list_free                 004150b0 f   mysys:list.obj
 0001:000140f0       _list_cons                 004150f0 f   mysys:list.obj
 0001:00014120       _list_reverse              00415120 f   mysys:list.obj
 0001:00014150       _list_length               00415150 f   mysys:list.obj
 0001:00014170       _list_walk                 00415170 f   mysys:list.obj
 0001:000141e0       _modify_defaults_file      004151e0 f   mysys:default_modify.obj
 0001:00014650       _my_read                   00415650 f   mysys:my_read.obj
 0001:00014780       _my_seek                   00415780 f   mysys:my_seek.obj
 0001:00014850       _my_tell                   00415850 f   mysys:my_seek.obj
 0001:000148d0       _my_dirend                 004158d0 f   mysys:my_lib.obj
 0001:00014940       _my_dir                    00415940 f   mysys:my_lib.obj
 0001:00014bd0       _my_fstat                  00415bd0 f   mysys:my_lib.obj
 0001:00014bf0       _my_stat                   00415bf0 f   mysys:my_lib.obj
 0001:00014c80       _my_close                  00415c80 f   mysys:my_open.obj
 0001:00014d40       _my_register_filename      00415d40 f   mysys:my_open.obj
 0001:00014e50       _my_sopen                  00415e50 f   mysys:my_open.obj
 0001:000150f0       _my_open                   004160f0 f   mysys:my_open.obj
 0001:000151a0       __my_hash_init             004161a0 f   mysys:hash.obj
 0001:00015240       _my_hash_free              00416240 f   mysys:hash.obj
 0001:00015270       _my_hash_reset             00416270 f   mysys:hash.obj
 0001:000153e0       _my_hash_delete            004163e0 f   mysys:hash.obj
 0001:00015620       _my_hash_element           00416620 f   mysys:hash.obj
 0001:00015640       _my_hash_replace           00416640 f   mysys:hash.obj
 0001:00015660       _my_hash_first             00416660 f   mysys:hash.obj
 0001:00015710       _my_hash_next              00416710 f   mysys:hash.obj
 0001:00015780       _my_hash_update            00416780 f   mysys:hash.obj
 0001:00015980       _my_hash_search            00416980 f   mysys:hash.obj
 0001:000159a0       _my_hash_insert            004169a0 f   mysys:hash.obj
 0001:00015c90       _pthread_cond_init         00416c90 f   mysys:my_wincond.obj
 0001:00015cf0       _pthread_cond_destroy      00416cf0 f   mysys:my_wincond.obj
 0001:00015d40       _pthread_cond_timedwait    00416d40 f   mysys:my_wincond.obj
 0001:00015e20       _pthread_cond_signal       00416e20 f   mysys:my_wincond.obj
 0001:00015e50       _pthread_cond_broadcast    00416e50 f   mysys:my_wincond.obj
 0001:00015e90       _pthread_attr_init         00416e90 f   mysys:my_wincond.obj
 0001:00015eb0       _pthread_attr_setstacksize 00416eb0 f   mysys:my_wincond.obj
 0001:00015ec0       _pthread_attr_setprio      00416ec0 f   mysys:my_wincond.obj
 0001:00015ed0       _pthread_attr_destroy      00416ed0 f   mysys:my_wincond.obj
 0001:00015ee0       _localtime_r               00416ee0 f   mysys:my_wincond.obj
 0001:00015f50       _pthread_cond_wait         00416f50 f   mysys:my_wincond.obj
 0001:00015f70       _my_sleep                  00416f70 f   mysys:my_sleep.obj
 0001:00015f90       _my_write                  00416f90 f   mysys:my_write.obj
 0001:000160e0       _my_access                 004170e0 f   mysys:my_access.obj
 0001:00016170       _check_if_legal_tablename  00417170 f   mysys:my_access.obj
 0001:000161c0       _check_if_legal_filename   004171c0 f   mysys:my_access.obj
 0001:000162f0       _get_defaults_options      004172f0 f   mysys:default.obj
 0001:000163c0       _free_defaults             004173c0 f   mysys:default.obj
 0001:00016e60       _my_print_default_files    00417e60 f   mysys:default.obj
 0001:00016fe0       _print_defaults            00417fe0 f   mysys:default.obj
 0001:00017100       _my_search_option_files    00418100 f   mysys:default.obj
 0001:00017370       _my_load_defaults          00418370 f   mysys:default.obj
 0001:00017650       _load_defaults             00418650 f   mysys:default.obj
 0001:00017680       _init_alloc_root           00418680 f   mysys:my_alloc.obj
 0001:000176e0       _reset_root_defaults       004186e0 f   mysys:my_alloc.obj
 0001:00017780       _alloc_root                00418780 f   mysys:my_alloc.obj
 0001:00017860       _multi_alloc_root          00418860 f   mysys:my_alloc.obj
 0001:00017920       _free_root                 00418920 f   mysys:my_alloc.obj
 0001:000179c0       _set_prealloc_root         004189c0 f   mysys:my_alloc.obj
 0001:00017a10       _strmake_root              00418a10 f   mysys:my_alloc.obj
 0001:00017a50       _memdup_root               00418a50 f   mysys:my_alloc.obj
 0001:00017a80       _strdup_root               00418a80 f   mysys:my_alloc.obj
 0001:00017ab0       _strlength                 00418ab0 f   mysys:mf_format.obj
 0001:00017b00       _fn_format                 00418b00 f   mysys:mf_format.obj
 0001:00017d40       _my_load_path              00418d40 f   mysys:mf_loadpath.obj
 0001:00017f10       _my_freopen                00418f10 f   mysys:my_fopen.obj
 0001:00017f30       _my_fclose                 00418f30 f   mysys:my_fopen.obj
 0001:00018050       _my_fopen                  00419050 f   mysys:my_fopen.obj
 0001:000181c0       _my_fdopen                 004191c0 f   mysys:my_fopen.obj
 0001:000182c0       _dirname_length            004192c0 f   mysys:mf_dirname.obj
 0001:00018310       _convert_dirname           00419310 f   mysys:mf_dirname.obj
 0001:000183c0       _dirname_part              004193c0 f   mysys:mf_dirname.obj
 0001:000183f0       _my_thread_global_end      004193f0 f   mysys:my_thr_init.obj
 0001:00018500       _my_thread_end             00419500 f   mysys:my_thr_init.obj
 0001:00018570       __my_thread_var            00419570 f   mysys:my_thr_init.obj
 0001:00018590       _my_thread_dbug_id         00419590 f   mysys:my_thr_init.obj
 0001:000185a0       _my_thread_name            004195a0 f   mysys:my_thr_init.obj
 0001:000185c0       _my_thread_init            004195c0 f   mysys:my_thr_init.obj
 0001:00018640       _my_thread_global_init     00419640 f   mysys:my_thr_init.obj
 0001:00018700       _my_delete                 00419700 f   mysys:my_delete.obj
 0001:00018780       _nt_share_delete           00419780 f   mysys:my_delete.obj
 0001:000188b0       _my_end                    004198b0 f   mysys:my_init.obj
 0001:00018980       _my_parameter_handler      00419980 f   mysys:my_init.obj
 0001:00018ca0       _my_init                   00419ca0 f   mysys:my_init.obj
 0001:00018de0       _my_getopt_register_get_addr 00419de0 f   mysys:my_getopt.obj
 0001:00018e40       _getopt_compare_strings    00419e40 f   mysys:my_getopt.obj
 0001:00018f90       _getopt_ll_limit_value     00419f90 f   mysys:my_getopt.obj
 0001:00019100       _getopt_ull_limit_value    0041a100 f   mysys:my_getopt.obj
 0001:000194d0       _my_print_help             0041a4d0 f   mysys:my_getopt.obj
 0001:00019700       _my_print_variables        0041a700 f   mysys:my_getopt.obj
 0001:00019ad0       _my_cleanup_options        0041aad0 f   mysys:my_getopt.obj
 0001:00019ca0       _handle_options            0041aca0 f   mysys:my_getopt.obj
 0001:0001a6b0       _gmtime_r                  0041b6b0 f   mysys:my_pthread.obj
 0001:0001a6f0       _pthread_no_free           0041b6f0 f   mysys:my_pthread.obj
 0001:0001a700       _pthread_dummy             0041b700 f   mysys:my_pthread.obj
 0001:0001a710       _win_pthread_init          0041b710 f   mysys:my_winthread.obj
 0001:0001a720       _win_pthread_mutex_trylock 0041b720 f   mysys:my_winthread.obj
 0001:0001a750       _pthread_exit              0041b750 f   mysys:my_winthread.obj
 0001:0001a760       _win_pthread_setspecific   0041b760 f   mysys:my_winthread.obj
 0001:0001a780       _my_pthread_once           0041b780 f   mysys:my_winthread.obj
 0001:0001a7d0       _pthread_start             0041b7d0 f   mysys:my_winthread.obj
 0001:0001a820       _pthread_create            0041b820 f   mysys:my_winthread.obj
 0001:0001a8b0       _my_error                  0041b8b0 f   mysys:my_error.obj
 0001:0001a960       _my_printf_error           0041b960 f   mysys:my_error.obj
 0001:0001a9d0       _my_message                0041b9d0 f   mysys:my_error.obj
 0001:0001a9e0       _my_error_register         0041b9e0 f   mysys:my_error.obj
 0001:0001aa60       _my_error_unregister       0041ba60 f   mysys:my_error.obj
 0001:0001aab0       _my_error_unregister_all   0041bab0 f   mysys:my_error.obj
 0001:0001aaf0       _my_compress_alloc         0041baf0 f   mysys:my_compress.obj
 0001:0001ab80       _my_uncompress             0041bb80 f   mysys:my_compress.obj
 0001:0001ac00       _unpackfrm                 0041bc00 f   mysys:my_compress.obj
 0001:0001ac90       _my_compress               0041bc90 f   mysys:my_compress.obj
 0001:0001acf0       _packfrm                   0041bcf0 f   mysys:my_compress.obj
 0001:0001ad80       _mysql_sha1_reset          0041bd80 f   mysys:sha1.obj
 0001:0001b420       _mysql_sha1_result         0041c420 f   mysys:sha1.obj
 0001:0001b490       _mysql_sha1_input          0041c490 f   mysys:sha1.obj
 0001:0001b4e0       _find_type                 0041c4e0 f   mysys:typelib.obj
 0001:0001b670       _get_type                  0041c670 f   mysys:typelib.obj
 0001:0001b690       _find_typeset              0041c690 f   mysys:typelib.obj
 0001:0001b730       _copy_typelib              0041c730 f   mysys:typelib.obj
 0001:0001b800       _find_type_or_exit         0041c800 f   mysys:typelib.obj
 0001:0001b8d0       _make_type                 0041c8d0 f   mysys:typelib.obj
 0001:0001b900       _my_multi_malloc           0041c900 f   mysys:mulalloc.obj
 0001:0001b970       _my_inet_ntoa              0041c970 f   mysys:my_net.obj
 0001:0001b9a0       _my_gethostbyname_r        0041c9a0 f   mysys:my_net.obj
 0001:0001b9d0       _my_gethostbyname_r_free   0041c9d0 f   mysys:my_net.obj
 0001:0001b9e0       _thr_alarm_kill            0041c9e0 f   mysys:thr_alarm.obj
 0001:0001b9f0       _process_alarm             0041c9f0 f   mysys:thr_alarm.obj
 0001:0001ba00       _thr_alarm                 0041ca00 f   mysys:thr_alarm.obj
 0001:0001ba50       _thr_got_alarm             0041ca50 f   mysys:thr_alarm.obj
 0001:0001bac0       _thr_end_alarm             0041cac0 f   mysys:thr_alarm.obj
 0001:0001baf0       _end_thr_alarm             0041caf0 f   mysys:thr_alarm.obj
 0001:0001bb00       _init_thr_alarm            0041cb00 f   mysys:thr_alarm.obj
 0001:0001bb10       _thr_alarm_info            0041cb10 f   mysys:thr_alarm.obj
 0001:0001bb20       _resize_thr_alarm          0041cb20 f   mysys:thr_alarm.obj
 0001:0001bb30       _my_once_alloc             0041cb30 f   mysys:my_once.obj
 0001:0001bbf0       _my_once_strdup            0041cbf0 f   mysys:my_once.obj
 0001:0001bc40       _my_once_memdup            0041cc40 f   mysys:my_once.obj
 0001:0001bc70       _my_once_free              0041cc70 f   mysys:my_once.obj
 0001:0001bca0       _my_getwd                  0041cca0 f   mysys:my_getwd.obj
 0001:0001bd50       _test_if_hard_path         0041cd50 f   mysys:my_getwd.obj
 0001:0001bda0       _has_path                  0041cda0 f   mysys:my_getwd.obj
 0001:0001bde0       _my_setwd                  0041cde0 f   mysys:my_getwd.obj
 0001:0001be90       _init_compiled_charsets    0041ce90 f   mysys:charset-def.obj
 0001:0001c170       _my_fread                  0041d170 f   mysys:my_fstream.obj
 0001:0001c240       _my_fseek                  0041d240 f   mysys:my_fstream.obj
 0001:0001c270       _my_ftell                  0041d270 f   mysys:my_fstream.obj
 0001:0001c280       _my_fwrite                 0041d280 f   mysys:my_fstream.obj
 0001:0001c390       _my_chsize                 0041d390 f   mysys:my_chsize.obj
 0001:0001c520       _my_filename               0041d520 f   mysys:my_div.obj
 0001:0001c550       _my_qsort                  0041d550 f   mysys:mf_qsort.obj
 0001:0001cbe0       _init_glob_errs            0041dbe0 f   mysys:errors.obj
 0001:0001cbf0       _wait_for_free_space       0041dbf0 f   mysys:errors.obj
 0001:0001cc60       _array_append_string_unique 0041dc60 f   mysys:mf_arr_appstr.obj
 0001:0001cce0       _cleanup_dirname           0041dce0 f   mysys:mf_pack.obj
 0001:0001d140       _symdirget                 0041e140 f   mysys:mf_pack.obj
 0001:0001d280       _system_filename           0041e280 f   mysys:mf_pack.obj
 0001:0001d2a0       _intern_filename           0041e2a0 f   mysys:mf_pack.obj
 0001:0001d320       _pack_dirname              0041e320 f   mysys:mf_pack.obj
 0001:0001d6b0       _normalize_dirname         0041e6b0 f   mysys:mf_pack.obj
 0001:0001d750       _unpack_dirname            0041e750 f   mysys:mf_pack.obj
 0001:0001d850       _unpack_filename           0041e850 f   mysys:mf_pack.obj
 0001:0001d910       _fn_ext                    0041e910 f   mysys:mf_fn_ext.obj
 0001:0001d970       _my_readlink               0041e970 f   mysys:my_symlink.obj
 0001:0001d990       _my_symlink                0041e990 f   mysys:my_symlink.obj
 0001:0001d9a0       _my_is_symlink             0041e9a0 f   mysys:my_symlink.obj
 0001:0001d9c0       _my_realpath               0041e9c0 f   mysys:my_symlink.obj
 0001:0001da30       _my_message_no_curses      0041ea30 f   mysys:my_messnc.obj
 0001:0001dad0       _my_sync                   0041ead0 f   mysys:my_sync.obj
 0001:0001db60       _my_sync_dir               0041eb60 f   mysys:my_sync.obj
 0001:0001db70       _my_sync_dir_by_file       0041eb70 f   mysys:my_sync.obj
 0001:0001db80       _strnmov                   0041eb80 f   strings:strnmov.obj
 0001:0001dbb0       _strmake                   0041ebb0 f   strings:strmake.obj
 0001:0001dbe0       _int2str                   0041ebe0 f   strings:int2str.obj
 0001:0001dcc0       _int10_to_str              0041ecc0 f   strings:int2str.obj
 0001:0001dd70       _strxnmov                  0041ed70 f   strings:strxnmov.obj
 0001:0001ddc0       _strmov                    0041edc0 f   strings:strmov.obj
 0001:0001dde0       _strend                    0041ede0 f   strings:strend.obj
 0001:0001de00       _strxmov                   0041ee00 f   strings:strxmov.obj
 0001:0001de40       _is_prefix                 0041ee40 f   strings:is_prefix.obj
 0001:0001de70       _my_strtoll10              0041ee70 f   strings:my_strtoll10.obj
 0001:0001e3d0       _my_hash_sort_latin1_de    0041f3d0 f   strings:ctype-latin1.obj
 0001:0001e470       _my_vsnprintf              0041f470 f   strings:my_vsnprintf.obj
 0001:0001e780       _my_snprintf               0041f780 f   strings:my_vsnprintf.obj
 0001:0001e7a0       _strcend                   0041f7a0 f   strings:strcend.obj
 0001:0001e7d0       _my_strnxfrmlen_simple     0041f7d0 f   strings:ctype-simple.obj
 0001:0001e7f0       _my_strnxfrm_simple        0041f7f0 f   strings:ctype-simple.obj
 0001:0001e870       _my_strnncoll_simple       0041f870 f   strings:ctype-simple.obj
 0001:0001e8f0       _my_strnncollsp_simple     0041f8f0 f   strings:ctype-simple.obj
 0001:0001e9b0       _my_caseup_str_8bit        0041f9b0 f   strings:ctype-simple.obj
 0001:0001e9f0       _my_casedn_str_8bit        0041f9f0 f   strings:ctype-simple.obj
 0001:0001ea30       _my_caseup_8bit            0041fa30 f   strings:ctype-simple.obj
 0001:0001ea60       _my_casedn_8bit            0041fa60 f   strings:ctype-simple.obj
 0001:0001ea90       _my_strcasecmp_8bit        0041fa90 f   strings:ctype-simple.obj
 0001:0001eaf0       _my_mb_wc_8bit             0041faf0 f   strings:ctype-simple.obj
 0001:0001eb30       _my_wc_mb_8bit             0041fb30 f   strings:ctype-simple.obj
 0001:0001eb90       _my_snprintf_8bit          0041fb90 f   strings:ctype-simple.obj
 0001:0001ebb0       _my_hash_sort_simple       0041fbb0 f   strings:ctype-simple.obj
 0001:0001ec30       _my_strntol_8bit           0041fc30 f   strings:ctype-simple.obj
 0001:0001ed90       _my_strntoul_8bit          0041fd90 f   strings:ctype-simple.obj
 0001:0001eed0       _my_strntoll_8bit          0041fed0 f   strings:ctype-simple.obj
 0001:0001f090       _my_strntoull_8bit         00420090 f   strings:ctype-simple.obj
 0001:0001f220       _my_strntod_8bit           00420220 f   strings:ctype-simple.obj
 0001:0001f250       _my_long10_to_str_8bit     00420250 f   strings:ctype-simple.obj
 0001:0001f320       _my_longlong10_to_str_8bit 00420320 f   strings:ctype-simple.obj
 0001:0001f450       _my_wildcmp_8bit           00420450 f   strings:ctype-simple.obj
 0001:0001f5f0       _my_like_range_simple      004205f0 f   strings:ctype-simple.obj
 0001:0001f710       _my_scan_8bit              00420710 f   strings:ctype-simple.obj
 0001:0001f780       _my_fill_8bit              00420780 f   strings:ctype-simple.obj
 0001:0001f7a0       _my_numchars_8bit          004207a0 f   strings:ctype-simple.obj
 0001:0001f7b0       _my_numcells_8bit          004207b0 f   strings:ctype-simple.obj
 0001:0001f7c0       _my_charpos_8bit           004207c0 f   strings:ctype-simple.obj
 0001:0001f7d0       _my_well_formed_len_8bit   004207d0 f   strings:ctype-simple.obj
 0001:0001f7f0       _my_lengthsp_8bit          004207f0 f   strings:ctype-simple.obj
 0001:0001f810       _my_instr_simple           00420810 f   strings:ctype-simple.obj
 0001:0001fcd0       _my_strtoll10_8bit         00420cd0 f   strings:ctype-simple.obj
 0001:0001fcf0       _my_mb_ctype_8bit          00420cf0 f   strings:ctype-simple.obj
 0001:0001fd30       _my_strntoull10rnd_8bit    00420d30 f   strings:ctype-simple.obj
 0001:000201d0       _my_propagate_simple       004211d0 f   strings:ctype-simple.obj
 0001:000201e0       _my_propagate_complex      004211e0 f   strings:ctype-simple.obj
 0001:000202b0       _my_lengthsp_binary        004212b0 f   strings:ctype-bin.obj
 0001:00020460       _my_mbcharlen_8bit         00421460 f   strings:ctype-bin.obj
 0001:000204c0       _my_hash_sort_8bit_bin     004214c0 f   strings:ctype-bin.obj
 0001:00020520       _my_hash_sort_bin          00421520 f   strings:ctype-bin.obj
 0001:00020570       _my_wildcmp_bin            00421570 f   strings:ctype-bin.obj
 0001:00020e70       _my_parse_charset_xml      00421e70 f   strings:ctype.obj
 0001:00020f30       _my_string_repertoire      00421f30 f   strings:ctype.obj
 0001:00020fb0       _my_charset_repertoire     00421fb0 f   strings:ctype.obj
 0001:00020fd0       _my_charset_is_ascii_based 00421fd0 f   strings:ctype.obj
 0001:00021010       _my_charset_is_8bit_pure_ascii 00422010 f   strings:ctype.obj
 0001:00022ad0       _str2int                   00423ad0 f   strings:str2int.obj
 0001:00022c80       _strtoll                   00423c80 f   strings:strtoll.obj
 0001:00022ea0       _llstr                     00423ea0 f   strings:llstr.obj
 0001:00022ec0       _ullstr                    00423ec0 f   strings:llstr.obj
 0001:00022ee0       _my_strtod                 00423ee0 f   strings:strtod.obj
 0001:00023250       _my_atof                   00424250 f   strings:strtod.obj
 0001:00023280       _longlong2str              00424280 f   strings:longlong2str.obj
 0001:000233b0       _longlong10_to_str         004243b0 f   strings:longlong2str.obj
 0001:000234c0       _my_wildcmp_unicode        004244c0 f   strings:ctype-utf8.obj
 0001:00026790       _my_strntol_ucs2           00427790 f   strings:ctype-ucs2.obj
 0001:000269a0       _my_strntoul_ucs2          004279a0 f   strings:ctype-ucs2.obj
 0001:00026b90       _my_strntoll_ucs2          00427b90 f   strings:ctype-ucs2.obj
 0001:00026e20       _my_strntoull_ucs2         00427e20 f   strings:ctype-ucs2.obj
 0001:00027070       _my_strntod_ucs2           00428070 f   strings:ctype-ucs2.obj
 0001:00027160       _my_strntoull10rnd_ucs2    00428160 f   strings:ctype-ucs2.obj
 0001:00027250       _my_l10tostr_ucs2          00428250 f   strings:ctype-ucs2.obj
 0001:00027350       _my_ll10tostr_ucs2         00428350 f   strings:ctype-ucs2.obj
 0001:00027490       _my_strtoll10_ucs2         00428490 f   strings:ctype-ucs2.obj
 0001:00027b60       _my_like_range_ucs2        00428b60 f   strings:ctype-ucs2.obj
 0001:00027e30       _my_scan_ucs2              00428e30 f   strings:ctype-ucs2.obj
 0001:000287b0       _my_strnncoll_gbk_internal 004297b0 f   strings:ctype-gbk.obj
 0001:000288b0       _my_strnncoll_gbk          004298b0 f   strings:ctype-gbk.obj
 0001:0002c080       _bchange                   0042d080 f   strings:bchange.obj
 0001:0002c0e0       _bmove_upp                 0042d0e0 f   strings:bmove_upp.obj
 0001:0002c780       _my_xml_parse              0042d780 f   strings:xml.obj
 0001:0002cb20       _my_xml_parser_create      0042db20 f   strings:xml.obj
 0001:0002cb40       _my_xml_parser_free        0042db40 f   strings:xml.obj
 0001:0002cb50       _my_xml_set_value_handler  0042db50 f   strings:xml.obj
 0001:0002cb60       _my_xml_set_enter_handler  0042db60 f   strings:xml.obj
 0001:0002cb70       _my_xml_set_leave_handler  0042db70 f   strings:xml.obj
 0001:0002cb80       _my_xml_set_user_data      0042db80 f   strings:xml.obj
 0001:0002cb90       _my_xml_error_string       0042db90 f   strings:xml.obj
 0001:0002cba0       _my_xml_error_pos          0042dba0 f   strings:xml.obj
 0001:0002cbd0       _my_xml_error_lineno       0042dbd0 f   strings:xml.obj
 0001:0002cc00       _my_caseup_str_mb          0042dc00 f   strings:ctype-mb.obj
 0001:0002cc50       _my_casedn_str_mb          0042dc50 f   strings:ctype-mb.obj
 0001:0002cca0       _my_caseup_mb              0042dca0 f   strings:ctype-mb.obj
 0001:0002ccf0       _my_casedn_mb              0042dcf0 f   strings:ctype-mb.obj
 0001:0002cd40       _my_strcasecmp_mb          0042dd40 f   strings:ctype-mb.obj
 0001:0002cde0       _my_wildcmp_mb             0042dde0 f   strings:ctype-mb.obj
 0001:0002d230       _my_numchars_mb            0042e230 f   strings:ctype-mb.obj
 0001:0002d270       _my_charpos_mb             0042e270 f   strings:ctype-mb.obj
 0001:0002d2d0       _my_well_formed_len_mb     0042e2d0 f   strings:ctype-mb.obj
 0001:0002d340       _my_instr_mb               0042e340 f   strings:ctype-mb.obj
 0001:0002d700       _my_like_range_mb          0042e700 f   strings:ctype-mb.obj
 0001:0002dd70       _my_numcells_mb            0042ed70 f   strings:ctype-mb.obj
 0001:0002dde0       _my_mb_ctype_mb            0042ede0 f   strings:ctype-mb.obj
 0001:0002de80       _vio_delete                0042ee80 f   vio:vio.obj
 0001:0002deb0       _vio_end                   0042eeb0 f   vio:vio.obj
 0001:0002e0a0       _vio_reset                 0042f0a0 f   vio:vio.obj
 0001:0002e0d0       _vio_new                   0042f0d0 f   vio:vio.obj
 0001:0002e150       _vio_new_win32pipe         0042f150 f   vio:vio.obj
 0001:0002e1a0       _vio_new_win32shared_memory 0042f1a0 f   vio:vio.obj
 0001:0002e240       _vio_errno                 0042f240 f   vio:viosocket.obj
 0001:0002e250       _vio_read                  0042f250 f   vio:viosocket.obj
 0001:0002e270       _vio_read_buff             0042f270 f   vio:viosocket.obj
 0001:0002e310       _vio_write                 0042f310 f   vio:viosocket.obj
 0001:0002e330       _vio_blocking              0042f330 f   vio:viosocket.obj
 0001:0002e3a0       _vio_is_blocking           0042f3a0 f   vio:viosocket.obj
 0001:0002e3b0       _vio_fastsend              0042f3b0 f   vio:viosocket.obj
 0001:0002e3e0       _vio_keepalive             0042f3e0 f   vio:viosocket.obj
 0001:0002e420       _vio_should_retry          0042f420 f   vio:viosocket.obj
 0001:0002e450       _vio_was_interrupted       0042f450 f   vio:viosocket.obj
 0001:0002e480       _vio_close                 0042f480 f   vio:viosocket.obj
 0001:0002e4d0       _vio_description           0042f4d0 f   vio:viosocket.obj
 0001:0002e4e0       _vio_type                  0042f4e0 f   vio:viosocket.obj
 0001:0002e4f0       _vio_fd                    0042f4f0 f   vio:viosocket.obj
 0001:0002e500       _vio_peer_addr             0042f500 f   vio:viosocket.obj
 0001:0002e580       _vio_in_addr               0042f580 f   vio:viosocket.obj
 0001:0002e5a0       _vio_poll_read             0042f5a0 f   vio:viosocket.obj
 0001:0002e5b0       _vio_timeout               0042f5b0 f   vio:viosocket.obj
 0001:0002e630       _vio_read_pipe             0042f630 f   vio:viosocket.obj
 0001:0002e680       _vio_write_pipe            0042f680 f   vio:viosocket.obj
 0001:0002e6d0       _vio_close_pipe            0042f6d0 f   vio:viosocket.obj
 0001:0002e710       _vio_win32_timeout         0042f710 f   vio:viosocket.obj
 0001:0002e750       _vio_read_shared_memory    0042f750 f   vio:viosocket.obj
 0001:0002e830       _vio_write_shared_memory   0042f830 f   vio:viosocket.obj
 0001:0002e8e0       _vio_close_shared_memory   0042f8e0 f   vio:viosocket.obj
 0001:0002e9c0       _vio_ssl_read              0042f9c0 f   vio:viossl.obj
 0001:0002e9e0       _vio_ssl_write             0042f9e0 f   vio:viossl.obj
 0001:0002ea00       _vio_ssl_close             0042fa00 f   vio:viossl.obj
 0001:0002ea40       _vio_ssl_delete            0042fa40 f   vio:viossl.obj
 0001:0002eb50       _sslaccept                 0042fb50 f   vio:viossl.obj
 0001:0002eb70       _sslconnect                0042fb70 f   vio:viossl.obj
 0001:0002eb90       _vio_ssl_blocking          0042fb90 f   vio:viossl.obj
 0001:0002ec30       _sslGetErrString           0042fc30 f   vio:viosslfactories.obj
 0001:0002ee60       _new_VioSSLConnectorFd     0042fe60 f   vio:viosslfactories.obj
 0001:0002eec0       _new_VioSSLAcceptorFd      0042fec0 f   vio:viosslfactories.obj
 0001:0002ef20       _free_vio_ssl_acceptor_fd  0042ff20 f   vio:viosslfactories.obj
 0001:0002ef40       ??2@YAPAXIPAUDummy@@@Z     0042ff40 f i yassl:ssl.obj
 0001:0002ef50       ??1Message@yaSSL@@UAE@XZ   0042ff50 f i yassl:ssl.obj
 0001:0002ef60       ??_EMessage@yaSSL@@UAEPAXI@Z 0042ff60 f i yassl:ssl.obj
 0001:0002ef60       ??_GMessage@yaSSL@@UAEPAXI@Z 0042ff60 f i yassl:ssl.obj
 0001:0002ef80       ??1Alert@yaSSL@@UAE@XZ     0042ff80 f i yassl:ssl.obj
 0001:0002ef90       ??1HandShakeBase@yaSSL@@UAE@XZ 0042ff90 f i yassl:ssl.obj
 0001:0002efa0       ??_GHandShakeBase@yaSSL@@UAEPAXI@Z 0042ffa0 f i yassl:ssl.obj
 0001:0002efa0       ??_EHandShakeBase@yaSSL@@UAEPAXI@Z 0042ffa0 f i yassl:ssl.obj
 0001:0002efc0       ??0EncryptedInfo@yaSSL@@QAE@XZ 0042ffc0 f i yassl:ssl.obj
 0001:0002efd0       ?min@TaoCrypt@@YAIII@Z     0042ffd0 f i yassl:ssl.obj
 0001:0002efe0       ??0Error@TaoCrypt@@QAE@W4ErrorNumber@1@@Z 0042ffe0 f i yassl:ssl.obj
 0001:0002eff0       ?assign@BIGNUM@yaSSL@@QAEXPBEI@Z 0042fff0 f i yassl:ssl.obj
 0001:0002f000       ??1Finished@yaSSL@@UAE@XZ  00430000 f i yassl:ssl.obj
 0001:0002f010       ??1HASH@TaoCrypt@@UAE@XZ   00430010 f i yassl:ssl.obj
 0001:0002f020       ??_EHASH@TaoCrypt@@UAEPAXI@Z 00430020 f i yassl:ssl.obj
 0001:0002f020       ??_GHASH@TaoCrypt@@UAEPAXI@Z 00430020 f i yassl:ssl.obj
 0001:0002f040       ??1HASHwithTransform@TaoCrypt@@UAE@XZ 00430040 f i yassl:ssl.obj
 0001:0002f050       ??0MD5@TaoCrypt@@QAE@XZ    00430050 f i yassl:ssl.obj
 0001:0002f070       ?getByteOrder@MD5@TaoCrypt@@UBE?AW4ByteOrder@2@XZ 00430070 f i yassl:ssl.obj
 0001:0002f080       ?getBlockSize@MD5@TaoCrypt@@UBEIXZ 00430080 f i yassl:ssl.obj
 0001:0002f090       ?getDigestSize@MD5@TaoCrypt@@UBEIXZ 00430090 f i yassl:ssl.obj
 0001:0002f0a0       ?getPadSize@MD5@TaoCrypt@@UBEIXZ 004300a0 f i yassl:ssl.obj
 0001:0002f0b0       ??1MD5@TaoCrypt@@UAE@XZ    004300b0 f i yassl:ssl.obj
 0001:0002f0c0       ??0MD4@TaoCrypt@@QAE@XZ    004300c0 f i yassl:ssl.obj
 0001:0002f0e0       ?getByteOrder@MD4@TaoCrypt@@UBE?AW4ByteOrder@2@XZ 004300e0 f i yassl:ssl.obj
 0001:0002f0f0       ?getBlockSize@MD4@TaoCrypt@@UBEIXZ 004300f0 f i yassl:ssl.obj
 0001:0002f100       ?getDigestSize@MD4@TaoCrypt@@UBEIXZ 00430100 f i yassl:ssl.obj
 0001:0002f110       ?getPadSize@MD4@TaoCrypt@@UBEIXZ 00430110 f i yassl:ssl.obj
 0001:0002f120       ??1MD4@TaoCrypt@@UAE@XZ    00430120 f i yassl:ssl.obj
 0001:0002f130       _yaSSLv3_server_method     00430130 f   yassl:ssl.obj
 0001:0002f170       _yaSSLv3_client_method     00430170 f   yassl:ssl.obj
 0001:0002f1b0       _yaTLSv1_server_method     004301b0 f   yassl:ssl.obj
 0001:0002f1f0       _yaTLSv1_client_method     004301f0 f   yassl:ssl.obj
 0001:0002f230       _yaTLSv1_1_server_method   00430230 f   yassl:ssl.obj
 0001:0002f270       _yaTLSv1_1_client_method   00430270 f   yassl:ssl.obj
 0001:0002f2b0       _yaSSLv23_server_method    004302b0 f   yassl:ssl.obj
 0001:0002f2f0       _yaSSLv23_client_method    004302f0 f   yassl:ssl.obj
 0001:0002f330       _yaSSL_CTX_new             00430330 f   yassl:ssl.obj
 0001:0002f360       _yaSSL_new                 00430360 f   yassl:ssl.obj
 0001:0002f390       _yaSSL_set_fd              00430390 f   yassl:ssl.obj
 0001:0002f3b0       _yaSSL_get_fd              004303b0 f   yassl:ssl.obj
 0001:0002f3c0       _yaSSL_connect             004303c0 f   yassl:ssl.obj
 0001:0002f610       _yaSSL_write               00430610 f   yassl:ssl.obj
 0001:0002f620       ??1Data@yaSSL@@UAE@XZ      00430620 f i yassl:ssl.obj
 0001:0002f630       _yaSSL_accept              00430630 f   yassl:ssl.obj
 0001:0002f8b0       _yaSSL_do_handshake        004308b0 f   yassl:ssl.obj
 0001:0002f8e0       _yaSSL_clear               004308e0 f   yassl:ssl.obj
 0001:0002f900       _yaSSL_shutdown            00430900 f   yassl:ssl.obj
 0001:0002f970       _yaSSL_set_quiet_shutdown  00430970 f   yassl:ssl.obj
 0001:0002f990       _yaSSL_get_quiet_shutdown  00430990 f   yassl:ssl.obj
 0001:0002f9a0       _yaSSL_CTX_set_session_cache_mode 004309a0 f   yassl:ssl.obj
 0001:0002f9d0       _yaSSL_get_session         004309d0 f   yassl:ssl.obj
 0001:0002fa20       _yaSSL_set_session         00430a20 f   yassl:ssl.obj
 0001:0002fa60       _yaSSL_session_reused      00430a60 f   yassl:ssl.obj
 0001:0002fa80       _yaSSL_SESSION_set_timeout 00430a80 f   yassl:ssl.obj
 0001:0002faa0       _yaSSL_get_default_timeout 00430aa0 f   yassl:ssl.obj
 0001:0002fab0       _yaSSL_flush_sessions      00430ab0 f   yassl:ssl.obj
 0001:0002fad0       _yaSSL_get_cipher          00430ad0 f   yassl:ssl.obj
 0001:0002faf0       _yaSSL_get_shared_ciphers  00430af0 f   yassl:ssl.obj
 0001:0002fb10       _yaSSL_get_cipher_list     00430b10 f   yassl:ssl.obj
 0001:0002fb60       _yaSSL_CTX_set_cipher_list 00430b60 f   yassl:ssl.obj
 0001:0002fb80       _yaSSL_get_version         00430b80 f   yassl:ssl.obj
 0001:0002fba0       _yaSSLeay_version          00430ba0 f   yassl:ssl.obj
 0001:0002fbb0       _yaSSL_get_error           00430bb0 f   yassl:ssl.obj
 0001:0002fbc0       _yaSSL_set_compression     00430bc0 f   yassl:ssl.obj
 0001:0002fbd0       _yaSSL_get_peer_certificate 00430bd0 f   yassl:ssl.obj
 0001:0002fbf0       _yaX509_free               00430bf0 f   yassl:ssl.obj
 0001:0002fc00       _yaX509_STORE_CTX_get_current_cert 00430c00 f   yassl:ssl.obj
 0001:0002fc10       _yaX509_STORE_CTX_get_error 00430c10 f   yassl:ssl.obj
 0001:0002fc20       _yaX509_STORE_CTX_get_error_depth 00430c20 f   yassl:ssl.obj
 0001:0002fc30       _yaX509_NAME_oneline       00430c30 f   yassl:ssl.obj
 0001:0002fcb0       _yaX509_get_issuer_name    00430cb0 f   yassl:ssl.obj
 0001:0002fcc0       _yaX509_get_subject_name   00430cc0 f   yassl:ssl.obj
 0001:0002fcd0       _yaSSL_load_error_strings  00430cd0 f   yassl:ssl.obj
 0001:0002fce0       _yaSSL_set_connect_state   00430ce0 f   yassl:ssl.obj
 0001:0002fcf0       _yaSSL_set_accept_state    00430cf0 f   yassl:ssl.obj
 0001:0002fd10       _yaSSL_get_verify_result   00430d10 f   yassl:ssl.obj
 0001:0002fd20       _yaSSL_CTX_sess_set_cache_size 00430d20 f   yassl:ssl.obj
 0001:0002fd30       _yaSSL_CTX_get_session_cache_mode 00430d30 f   yassl:ssl.obj
 0001:0002fd40       _yaSSL_CTX_set_tmp_dh      00430d40 f   yassl:ssl.obj
 0001:0002fd60       _yaSSL_CTX_set_verify      00430d60 f   yassl:ssl.obj
 0001:0002fda0       _yaSSL_CTX_set_default_verify_paths 00430da0 f   yassl:ssl.obj
 0001:0002fdb0       _yaSSL_CTX_set_session_id_context 00430db0 f   yassl:ssl.obj
 0001:0002fdc0       _yaSSL_CTX_check_private_key 00430dc0 f   yassl:ssl.obj
 0001:0002fdd0       _yaSSL_CTX_sess_accept     00430dd0 f   yassl:ssl.obj
 0001:0002fde0       _yaSSL_CTX_sess_connect    00430de0 f   yassl:ssl.obj
 0001:0002fdf0       _yaSSL_CTX_sess_accept_good 00430df0 f   yassl:ssl.obj
 0001:0002fe00       _yaSSL_CTX_sess_connect_good 00430e00 f   yassl:ssl.obj
 0001:0002fe10       _yaSSL_CTX_sess_accept_renegotiate 00430e10 f   yassl:ssl.obj
 0001:0002fe20       _yaSSL_CTX_sess_connect_renegotiate 00430e20 f   yassl:ssl.obj
 0001:0002fe30       _yaSSL_CTX_sess_hits       00430e30 f   yassl:ssl.obj
 0001:0002fe40       _yaSSL_CTX_sess_cb_hits    00430e40 f   yassl:ssl.obj
 0001:0002fe50       _yaSSL_CTX_sess_cache_full 00430e50 f   yassl:ssl.obj
 0001:0002fe60       _yaSSL_CTX_sess_misses     00430e60 f   yassl:ssl.obj
 0001:0002fe70       _yaSSL_CTX_sess_timeouts   00430e70 f   yassl:ssl.obj
 0001:0002fe80       _yaSSL_CTX_sess_number     00430e80 f   yassl:ssl.obj
 0001:0002fe90       _yaSSL_CTX_sess_get_cache_size 00430e90 f   yassl:ssl.obj
 0001:0002fea0       _yaSSL_CTX_get_verify_mode 00430ea0 f   yassl:ssl.obj
 0001:0002feb0       _yaSSL_get_verify_mode     00430eb0 f   yassl:ssl.obj
 0001:0002fed0       _yaSSL_CTX_get_verify_depth 00430ed0 f   yassl:ssl.obj
 0001:0002fee0       _yaSSL_get_verify_depth    00430ee0 f   yassl:ssl.obj
 0001:0002ff00       _yaSSL_CTX_set_options     00430f00 f   yassl:ssl.obj
 0001:0002ff10       _yaSSL_CTX_set_info_callback 00430f10 f   yassl:ssl.obj
 0001:0002ff20       _yaOpenSSL_add_all_algorithms 00430f20 f   yassl:ssl.obj
 0001:0002ff30       _yaSSL_library_init        00430f30 f   yassl:ssl.obj
 0001:0002ff40       _yaDH_new                  00430f40 f   yassl:ssl.obj
 0001:0002ff60       ??0BIGNUM@yaSSL@@QAE@XZ    00430f60 f i yassl:ssl.obj
 0001:0002ff70       _yaERR_get_error_line_data 00430f70 f   yassl:ssl.obj
 0001:0002ff80       _yaERR_print_errors_fp     00430f80 f   yassl:ssl.obj
 0001:0002ff90       _yaERR_error_string        00430f90 f   yassl:ssl.obj
 0001:0002ffc0       _yaX509_verify_cert_error_string 00430fc0 f   yassl:ssl.obj
 0001:0002ffd0       _yaEVP_md5                 00430fd0 f   yassl:ssl.obj
 0001:0002ffe0       _yaEVP_des_ede3_cbc        00430fe0 f   yassl:ssl.obj
 0001:0002fff0       _yaEVP_BytesToKey          00430ff0 f   yassl:ssl.obj
 0001:00030260       _yaDES_set_key_unchecked   00431260 f   yassl:ssl.obj
 0001:00030280       _yaDES_ede3_cbc_encrypt    00431280 f   yassl:ssl.obj
 0001:00030360       _yaRAND_status             00431360 f   yassl:ssl.obj
 0001:00030370       _yaDES_set_key             00431370 f   yassl:ssl.obj
 0001:00030390       _yaDES_set_odd_parity      00431390 f   yassl:ssl.obj
 0001:000303a0       _yaDES_ecb_encrypt         004313a0 f   yassl:ssl.obj
 0001:00030410       _yaSSL_CTX_set_default_passwd_cb_userdata 00431410 f   yassl:ssl.obj
 0001:00030420       _yaSSL_get_certificate     00431420 f   yassl:ssl.obj
 0001:00030430       _yaSSL_get_privatekey      00431430 f   yassl:ssl.obj
 0001:00030440       _yaSSL_SESSION_free        00431440 f   yassl:ssl.obj
 0001:00030450       _yaX509_get_pubkey         00431450 f   yassl:ssl.obj
 0001:00030460       _yaEVP_PKEY_copy_parameters 00431460 f   yassl:ssl.obj
 0001:00030470       _yaEVP_PKEY_free           00431470 f   yassl:ssl.obj
 0001:00030480       _yaERR_error_string_n      00431480 f   yassl:ssl.obj
 0001:000304a0       _yaERR_free_strings        004314a0 f   yassl:ssl.obj
 0001:000304b0       _yaEVP_cleanup             004314b0 f   yassl:ssl.obj
 0001:000304c0       _yaX509_get_notBefore      004314c0 f   yassl:ssl.obj
 0001:000304d0       _yaX509_get_notAfter       004314d0 f   yassl:ssl.obj
 0001:000304e0       _yaSSLv2_client_method     004314e0 f   yassl:ssl.obj
 0001:000304f0       _yaSSL_get1_session        004314f0 f   yassl:ssl.obj
 0001:00030500       _yaGENERAL_NAMES_free      00431500 f   yassl:ssl.obj
 0001:00030510       _yask_GENERAL_NAME_num     00431510 f   yassl:ssl.obj
 0001:00030520       _yask_GENERAL_NAME_value   00431520 f   yassl:ssl.obj
 0001:00030530       _yaASN1_STRING_data        00431530 f   yassl:ssl.obj
 0001:00030540       _yaASN1_STRING_length      00431540 f   yassl:ssl.obj
 0001:00030550       _yaASN1_STRING_type        00431550 f   yassl:ssl.obj
 0001:00030560       _yaX509_NAME_get_index_by_NID 00431560 f   yassl:ssl.obj
 0001:000305a0       _yaX509_NAME_ENTRY_get_data 004315a0 f   yassl:ssl.obj
 0001:000305b0       _yaX509_NAME_get_entry     004315b0 f   yassl:ssl.obj
 0001:000305c0       _yaASN1_STRING_to_UTF8     004315c0 f   yassl:ssl.obj
 0001:00030610       _yaX509_get_ext_d2i        00431610 f   yassl:ssl.obj
 0001:00030620       _yaMD4_Init                00431620 f   yassl:ssl.obj
 0001:00030650       _yaMD4_Update              00431650 f   yassl:ssl.obj
 0001:00030670       _yaMD4_Final               00431670 f   yassl:ssl.obj
 0001:00030690       _yaMD5_Init                00431690 f   yassl:ssl.obj
 0001:000306c0       _yaMD5_Update              004316c0 f   yassl:ssl.obj
 0001:000306e0       _yaMD5_Final               004316e0 f   yassl:ssl.obj
 0001:00030700       _yaRAND_bytes              00431700 f   yassl:ssl.obj
 0001:00030750       _yaSSL_peek                00431750 f   yassl:ssl.obj
 0001:00030790       _yaSSL_pending             00431790 f   yassl:ssl.obj
 0001:000307b0       _yaSSL_CTX_set_default_passwd_cb 004317b0 f   yassl:ssl.obj
 0001:000307c0       _yaSSLeay_add_ssl_algorithms 004317c0 f   yassl:ssl.obj
 0001:000307d0       _yaERR_remove_state        004317d0 f   yassl:ssl.obj
 0001:000307e0       _yaERR_GET_REASON          004317e0 f   yassl:ssl.obj
 0001:000307f0       _err_helper                004317f0 f   yassl:ssl.obj
 0001:00030820       _yaERR_peek_error          00431820 f   yassl:ssl.obj
 0001:00030830       _yaERR_get_error           00431830 f   yassl:ssl.obj
 0001:00030840       _yaRAND_screen             00431840 f   yassl:ssl.obj
 0001:00030850       _yaRAND_file_name          00431850 f   yassl:ssl.obj
 0001:00030860       _yaRAND_write_file         00431860 f   yassl:ssl.obj
 0001:00030870       _yaRAND_load_file          00431870 f   yassl:ssl.obj
 0001:00030880       _yaRSA_free                00431880 f   yassl:ssl.obj
 0001:00030890       _yaRSA_generate_key        00431890 f   yassl:ssl.obj
 0001:000308a0       _yaX509_LOOKUP_add_dir     004318a0 f   yassl:ssl.obj
 0001:000308b0       _yaX509_LOOKUP_load_file   004318b0 f   yassl:ssl.obj
 0001:000308c0       _yaX509_LOOKUP_hash_dir    004318c0 f   yassl:ssl.obj
 0001:000308d0       _yaX509_LOOKUP_file        004318d0 f   yassl:ssl.obj
 0001:000308e0       _yaX509_STORE_add_lookup   004318e0 f   yassl:ssl.obj
 0001:000308f0       _yaX509_STORE_get_by_subject 004318f0 f   yassl:ssl.obj
 0001:00030900       _yaX509_STORE_new          00431900 f   yassl:ssl.obj
 0001:00030910       _yaSSL_alert_type_string_long 00431910 f   yassl:ssl.obj
 0001:00030920       _yaSSL_alert_desc_string_long 00431920 f   yassl:ssl.obj
 0001:00030930       _yaSSL_state_string_long   00431930 f   yassl:ssl.obj
 0001:00030940       _yaSSL_CTX_set_tmp_rsa_callback 00431940 f   yassl:ssl.obj
 0001:00030950       _yaSSL_CTX_set_timeout     00431950 f   yassl:ssl.obj
 0001:00030960       _yaSSL_CTX_use_certificate_chain_file 00431960 f   yassl:ssl.obj
 0001:00030970       _yaSSL_CTX_use_RSAPrivateKey_file 00431970 f   yassl:ssl.obj
 0001:00030980       _yaSSL_set_rfd             00431980 f   yassl:ssl.obj
 0001:00030990       _yaSSL_set_wfd             00431990 f   yassl:ssl.obj
 0001:000309a0       _yaSSL_want_read           004319a0 f   yassl:ssl.obj
 0001:000309b0       _yaSSL_want_write          004319b0 f   yassl:ssl.obj
 0001:000309c0       _yaSSL_set_shutdown        004319c0 f   yassl:ssl.obj
 0001:000309d0       _yaSSL_get_current_cipher  004319d0 f   yassl:ssl.obj
 0001:000309e0       _yaSSL_CIPHER_description  004319e0 f   yassl:ssl.obj
 0001:000309f0       ?size@?$Block@EV?$AllocatorWithCleanup@E@TaoCrypt@@@TaoCrypt@@QBEIXZ 004319f0 f i yassl:ssl.obj
 0001:00030a00       ?get_buffer@?$Block@EV?$AllocatorWithCleanup@E@TaoCrypt@@@TaoCrypt@@QBEPAEXZ 00431a00 f i yassl:ssl.obj
 0001:00030a10       ??0?$auto_ptr@UBulkCipher@yaSSL@@@mySTL@@QAE@PAUBulkCipher@yaSSL@@@Z 00431a10 f i yassl:ssl.obj
 0001:00030a20       ??C?$auto_ptr@UBulkCipher@yaSSL@@@mySTL@@QBEPAUBulkCipher@yaSSL@@XZ 00431a20 f i yassl:ssl.obj
 0001:00030a30       ??0?$auto_ptr@Vx509@yaSSL@@@mySTL@@QAE@PAVx509@yaSSL@@@Z 00431a30 f i yassl:ssl.obj
 0001:00030a40       ??C?$auto_ptr@Vx509@yaSSL@@@mySTL@@QBEPAVx509@yaSSL@@XZ 00431a40 f i yassl:ssl.obj
 0001:00030a50       ?release@?$auto_ptr@Vx509@yaSSL@@@mySTL@@QAEPAVx509@yaSSL@@XZ 00431a50 f i yassl:ssl.obj
 0001:00030a60       ??0?$auto_ptr@UBIGNUM@yaSSL@@@mySTL@@QAE@PAUBIGNUM@yaSSL@@@Z 00431a60 f i yassl:ssl.obj
 0001:00030a70       ?get@?$auto_ptr@UBIGNUM@yaSSL@@@mySTL@@QBEPAUBIGNUM@yaSSL@@XZ 00431a70 f i yassl:ssl.obj
 0001:00030a80       ?release@?$auto_ptr@UBIGNUM@yaSSL@@@mySTL@@QAEPAUBIGNUM@yaSSL@@XZ 00431a80 f i yassl:ssl.obj
 0001:00030a90       ?CheckSize@?$AllocatorBase@E@TaoCrypt@@KAXI@Z 00431a90 f i yassl:ssl.obj
 0001:00030aa0       ??$tcArrayDelete@E@TaoCrypt@@YAXPAE@Z 00431aa0 f i yassl:ssl.obj
 0001:00030ab0       ??$ysDelete@UDH@yaSSL@@@yaSSL@@YAXPAUDH@0@@Z 00431ab0 f i yassl:ssl.obj
 0001:00030ac0       ??$swap@V?$AllocatorWithCleanup@E@TaoCrypt@@@mySTL@@YAXAAV?$AllocatorWithCleanup@E@TaoCrypt@@0@Z 00431ac0 f i yassl:ssl.obj
 0001:00030ad0       ??$ysDelete@UBulkCipher@yaSSL@@@yaSSL@@YAXPAUBulkCipher@0@@Z 00431ad0 f i yassl:ssl.obj
 0001:00030af0       ??_Gx509@yaSSL@@QAEPAXI@Z  00431af0 f i yassl:ssl.obj
 0001:00030b10       ??_GSSL_CTX@yaSSL@@QAEPAXI@Z 00431b10 f i yassl:ssl.obj
 0001:00030b30       ??1BIGNUM@yaSSL@@QAE@XZ    00431b30 f i yassl:ssl.obj
 0001:00030b40       ??1Security@yaSSL@@QAE@XZ  00431b40 f i yassl:ssl.obj
 0001:00030b60       ??1sslHashes@yaSSL@@QAE@XZ 00431b60 f i yassl:ssl.obj
 0001:00030b80       ??_GMD5@TaoCrypt@@UAEPAXI@Z 00431b80 f i yassl:ssl.obj
 0001:00030b80       ??_EMD5@TaoCrypt@@UAEPAXI@Z 00431b80 f i yassl:ssl.obj
 0001:00030ba0       ??_EMD4@TaoCrypt@@UAEPAXI@Z 00431ba0 f i yassl:ssl.obj
 0001:00030ba0       ??_GMD4@TaoCrypt@@UAEPAXI@Z 00431ba0 f i yassl:ssl.obj
 0001:00030bc0       ?size@Source@TaoCrypt@@QBEIXZ 00431bc0 f i yassl:ssl.obj
 0001:00030bd0       ?get_buffer@Source@TaoCrypt@@QBEPBEXZ 00431bd0 f i yassl:ssl.obj
 0001:00030be0       _yaSSLv3_method            00431be0 f   yassl:ssl.obj
 0001:00030bf0       _yaSSL_read                00431bf0 f   yassl:ssl.obj
 0001:00030c30       _yaSSL_get_cipher_name     00431c30 f   yassl:ssl.obj
 0001:00030c40       ?allocate@?$AllocatorWithCleanup@E@TaoCrypt@@QAEPAEIPBX@Z 00431c40 f i yassl:ssl.obj
 0001:00030c60       ?deallocate@?$AllocatorWithCleanup@E@TaoCrypt@@QAEXPAXI@Z 00431c60 f i yassl:ssl.obj
 0001:00030c80       ?Destroy@?$auto_ptr@UBulkCipher@yaSSL@@@mySTL@@AAEXXZ 00431c80 f i yassl:ssl.obj
 0001:00030c90       ??$ysDelete@Vx509@yaSSL@@@yaSSL@@YAXPAVx509@0@@Z 00431c90 f i yassl:ssl.obj
 0001:00030cb0       ??$ysDelete@VSSL_CTX@yaSSL@@@yaSSL@@YAXPAVSSL_CTX@0@@Z 00431cb0 f i yassl:ssl.obj
 0001:00030cd0       ??$StdReallocate@EV?$AllocatorWithCleanup@E@TaoCrypt@@@TaoCrypt@@YAPAEAAV?$AllocatorWithCleanup@E@0@PAEII_N@Z 00431cd0 f i yassl:ssl.obj
 0001:00030d60       ??_GBIGNUM@yaSSL@@QAEPAXI@Z 00431d60 f i yassl:ssl.obj
 0001:00030d80       ??1SSL@yaSSL@@QAE@XZ       00431d80 f i yassl:ssl.obj
 0001:00030de0       _yaSSL_CTX_free            00431de0 f   yassl:ssl.obj
 0001:00030df0       ??0?$Block@EV?$AllocatorWithCleanup@E@TaoCrypt@@@TaoCrypt@@QAE@PBEI@Z 00431df0 f i yassl:ssl.obj
 0001:00030e20       ??1?$Block@EV?$AllocatorWithCleanup@E@TaoCrypt@@@TaoCrypt@@QAE@XZ 00431e20 f i yassl:ssl.obj
 0001:00030e40       ??1?$auto_ptr@UBulkCipher@yaSSL@@@mySTL@@QAE@XZ 00431e40 f i yassl:ssl.obj
 0001:00030e50       ?reset@?$auto_ptr@UBulkCipher@yaSSL@@@mySTL@@QAEXPAUBulkCipher@yaSSL@@@Z 00431e50 f i yassl:ssl.obj
 0001:00030e70       ?reallocate@?$AllocatorWithCleanup@E@TaoCrypt@@QAEPAEPAEII_N@Z 00431e70 f i yassl:ssl.obj
 0001:00030e90       ?Destroy@?$auto_ptr@Vx509@yaSSL@@@mySTL@@AAEXXZ 00431e90 f i yassl:ssl.obj
 0001:00030ea0       ?New@?$Block@EV?$AllocatorWithCleanup@E@TaoCrypt@@@TaoCrypt@@QAEXI@Z 00431ea0 f i yassl:ssl.obj
 0001:00030ed0       ??$ysDelete@UBIGNUM@yaSSL@@@yaSSL@@YAXPAUBIGNUM@0@@Z 00431ed0 f i yassl:ssl.obj
 0001:00030ef0       ??_GSSL@yaSSL@@QAEPAXI@Z   00431ef0 f i yassl:ssl.obj
 0001:00030f10       ??0Source@TaoCrypt@@QAE@PBEI@Z 00431f10 f i yassl:ssl.obj
 0001:00030f50       ??1Source@TaoCrypt@@QAE@XZ 00431f50 f i yassl:ssl.obj
 0001:00030f70       ??1HexDecoder@TaoCrypt@@QAE@XZ 00431f70 f i yassl:ssl.obj
 0001:00030f90       _yaDH_free                 00431f90 f   yassl:ssl.obj
 0001:00030fc0       ??1?$auto_ptr@Vx509@yaSSL@@@mySTL@@QAE@XZ 00431fc0 f i yassl:ssl.obj
 0001:00030fd0       ?CleanNew@?$Block@EV?$AllocatorWithCleanup@E@TaoCrypt@@@TaoCrypt@@QAEXI@Z 00431fd0 f i yassl:ssl.obj
 0001:00031010       ?Destroy@?$auto_ptr@UBIGNUM@yaSSL@@@mySTL@@AAEXXZ 00432010 f i yassl:ssl.obj
 0001:00031020       ??$ysDelete@VSSL@yaSSL@@@yaSSL@@YAXPAVSSL@0@@Z 00432020 f i yassl:ssl.obj
 0001:00031040       _yaSSL_free                00432040 f   yassl:ssl.obj
 0001:00031050       ??0?$Block@EV?$AllocatorWithCleanup@E@TaoCrypt@@@TaoCrypt@@QAE@I@Z 00432050 f i yassl:ssl.obj
 0001:000310a0       ??1?$auto_ptr@UBIGNUM@yaSSL@@@mySTL@@QAE@XZ 004320a0 f i yassl:ssl.obj
 0001:000310b0       ?reset@?$auto_ptr@UBIGNUM@yaSSL@@@mySTL@@QAEXPAUBIGNUM@yaSSL@@@Z 004320b0 f i yassl:ssl.obj
 0001:000310d0       ??0HexDecoder@TaoCrypt@@QAE@AAVSource@1@@Z 004320d0 f i yassl:ssl.obj
 0001:00031120       ?read_file@yaSSL@@YAHPAVSSL_CTX@1@PBDHW4CertType@1@@Z 00432120 f   yassl:ssl.obj
 0001:00031570       _yaSSL_CTX_use_certificate_file 00432570 f   yassl:ssl.obj
 0001:00031590       _yaSSL_CTX_use_PrivateKey_file 00432590 f   yassl:ssl.obj
 0001:000315b0       _yaSSL_CTX_load_verify_locations 004325b0 f   yassl:ssl.obj
 0001:000316f0       _yaBN_bin2bn               004326f0 f   yassl:ssl.obj
 0001:00031760       ??0Ciphers@yaSSL@@QAE@XZ   00432760 f i yassl:yassl_int.obj
 0001:00031770       ??0DH_Parms@yaSSL@@QAE@XZ  00432770 f i yassl:yassl_int.obj
 0001:00031790       ??0Stats@yaSSL@@QAE@XZ     00432790 f i yassl:yassl_int.obj
 0001:000317d0       ?c32to24@yaSSL@@YAXIAAY02E@Z 004327d0 f   yassl:yassl_int.obj
 0001:000317f0       ?c24to32@yaSSL@@YAXQBEAAI@Z 004327f0 f   yassl:yassl_int.obj
 0001:00031820       ?c24to32@yaSSL@@YAIQBE@Z   00432820 f   yassl:yassl_int.obj
 0001:00031840       ?ato16@yaSSL@@YAXPBEAAG@Z  00432840 f   yassl:yassl_int.obj
 0001:00031860       ?ato24@yaSSL@@YAXPBEAAY02E@Z 00432860 f   yassl:yassl_int.obj
 0001:00031880       ?c16toa@yaSSL@@YAXGPAE@Z   00432880 f   yassl:yassl_int.obj
 0001:00031890       ?c24toa@yaSSL@@YAXQBEPAE@Z 00432890 f   yassl:yassl_int.obj
 0001:000318b0       ?c32toa@yaSSL@@YAXIPAE@Z   004328b0 f   yassl:yassl_int.obj
 0001:000318e0       ??0States@yaSSL@@QAE@XZ    004328e0 f   yassl:yassl_int.obj
 0001:00031910       ?getRecord@States@yaSSL@@QBEABW4RecordLayerState@2@XZ 00432910 f   yassl:yassl_int.obj
 0001:00031920       ?getHandShake@States@yaSSL@@QBEABW4HandShakeState@2@XZ 00432920 f   yassl:yassl_int.obj
 0001:00031930       ?getClient@States@yaSSL@@QBEABW4ClientState@2@XZ 00432930 f   yassl:yassl_int.obj
 0001:00031940       ?getServer@States@yaSSL@@QBEABW4ServerState@2@XZ 00432940 f   yassl:yassl_int.obj
 0001:00031950       ?GetConnect@States@yaSSL@@QBEABW4ConnectState@2@XZ 00432950 f   yassl:yassl_int.obj
 0001:00031960       ?GetAccept@States@yaSSL@@QBEABW4AcceptState@2@XZ 00432960 f   yassl:yassl_int.obj
 0001:00031970       ?getString@States@yaSSL@@QBEPBDXZ 00432970 f   yassl:yassl_int.obj
 0001:00031980       ?What@States@yaSSL@@QBE?AW4YasslError@2@XZ 00432980 f   yassl:yassl_int.obj
 0001:00031990       ?useRecord@States@yaSSL@@QAEAAW4RecordLayerState@2@XZ 00432990 f   yassl:yassl_int.obj
 0001:000319a0       ?useHandShake@States@yaSSL@@QAEAAW4HandShakeState@2@XZ 004329a0 f   yassl:yassl_int.obj
 0001:000319b0       ?useClient@States@yaSSL@@QAEAAW4ClientState@2@XZ 004329b0 f   yassl:yassl_int.obj
 0001:000319c0       ?useServer@States@yaSSL@@QAEAAW4ServerState@2@XZ 004329c0 f   yassl:yassl_int.obj
 0001:000319d0       ?UseConnect@States@yaSSL@@QAEAAW4ConnectState@2@XZ 004329d0 f   yassl:yassl_int.obj
 0001:000319e0       ?UseAccept@States@yaSSL@@QAEAAW4AcceptState@2@XZ 004329e0 f   yassl:yassl_int.obj
 0001:000319f0       ?useString@States@yaSSL@@QAEPADXZ 004329f0 f   yassl:yassl_int.obj
 0001:00031a00       ?SetError@States@yaSSL@@QAEXW4YasslError@2@@Z 00432a00 f   yassl:yassl_int.obj
 0001:00031a10       ?getMessage@sslFactory@yaSSL@@QBEABV?$Factory@UMessage@yaSSL@@HP6APAU12@XZ@2@XZ 00432a10 f   yassl:yassl_int.obj
 0001:00031a20       ?getHandShake@sslFactory@yaSSL@@QBEABV?$Factory@VHandShakeBase@yaSSL@@HP6APAV12@XZ@2@XZ 00432a20 f   yassl:yassl_int.obj
 0001:00031a30       ?getServerKey@sslFactory@yaSSL@@QBEABV?$Factory@UServerKeyBase@yaSSL@@HP6APAU12@XZ@2@XZ 00432a30 f   yassl:yassl_int.obj
 0001:00031a40       ?getClientKey@sslFactory@yaSSL@@QBEABV?$Factory@UClientKeyBase@yaSSL@@HP6APAU12@XZ@2@XZ 00432a40 f   yassl:yassl_int.obj
 0001:00031a50       ?SetCompression@SSL@yaSSL@@QAEHXZ 00432a50 f   yassl:yassl_int.obj
 0001:00031a60       ?SetError@SSL@yaSSL@@QAEXW4YasslError@2@@Z 00432a60 f   yassl:yassl_int.obj
 0001:00031a70       ?SetQuietShutdown@SSL@yaSSL@@QAEX_N@Z 00432a70 f   yassl:yassl_int.obj
 0001:00031a80       ?useBuffers@SSL@yaSSL@@QAEAAVBuffers@2@XZ 00432a80 f   yassl:yassl_int.obj
 0001:00031b40       ?order_error@SSL@yaSSL@@QAEXXZ 00432b40 f   yassl:yassl_int.obj
 0001:00031b50       ??0SumData@yassl_int_cpp_local1@yaSSL@@QAE@XZ 00432b50 f i yassl:yassl_int.obj
 0001:00031b60       ??RSumData@yassl_int_cpp_local1@yaSSL@@QAEXPAVinput_buffer@2@@Z 00432b60 f i yassl:yassl_int.obj
 0001:00031b80       ??0SumBuffer@yassl_int_cpp_local1@yaSSL@@QAE@XZ 00432b80 f i yassl:yassl_int.obj
 0001:00031b90       ??RSumBuffer@yassl_int_cpp_local1@yaSSL@@QAEXPAVoutput_buffer@2@@Z 00432b90 f i yassl:yassl_int.obj
 0001:00031bb0       ?Send@SSL@yaSSL@@QAEXPBEI@Z 00432bb0 f   yassl:yassl_int.obj
 0001:00031be0       ?getCrypto@SSL@yaSSL@@QBEABVCrypto@2@XZ 00432be0 f   yassl:yassl_int.obj
 0001:00031bf0       ?getSecurity@SSL@yaSSL@@QBEABVSecurity@2@XZ 00432bf0 f   yassl:yassl_int.obj
 0001:00031c00       ?getStates@SSL@yaSSL@@QBEABVStates@2@XZ 00432c00 f   yassl:yassl_int.obj
 0001:00031c10       ?getHashes@SSL@yaSSL@@QBEABVsslHashes@2@XZ 00432c10 f   yassl:yassl_int.obj
 0001:00031c20       ?getSocket@SSL@yaSSL@@QBEABVSocket@2@XZ 00432c20 f   yassl:yassl_int.obj
 0001:00031c30       ?GetError@SSL@yaSSL@@QBE?AW4YasslError@2@XZ 00432c30 f   yassl:yassl_int.obj
 0001:00031c40       ?GetQuietShutdown@SSL@yaSSL@@QBE_NXZ 00432c40 f   yassl:yassl_int.obj
 0001:00031c50       ?useCrypto@SSL@yaSSL@@QAEAAVCrypto@2@XZ 00432c50 f   yassl:yassl_int.obj
 0001:00031c60       ?useSecurity@SSL@yaSSL@@QAEAAVSecurity@2@XZ 00432c60 f   yassl:yassl_int.obj
 0001:00031c70       ?useStates@SSL@yaSSL@@QAEAAVStates@2@XZ 00432c70 f   yassl:yassl_int.obj
 0001:00031c80       ?useHashes@SSL@yaSSL@@QAEAAVsslHashes@2@XZ 00432c80 f   yassl:yassl_int.obj
 0001:00031c90       ?useSocket@SSL@yaSSL@@QAEAAVSocket@2@XZ 00432c90 f   yassl:yassl_int.obj
 0001:00031ca0       ?useLog@SSL@yaSSL@@QAEAAVLog@2@XZ 00432ca0 f   yassl:yassl_int.obj
 0001:00031cb0       ?HasData@SSL@yaSSL@@QBE_NXZ 00432cb0 f   yassl:yassl_int.obj
 0001:00031cc0       ??0SSL_SESSION@yaSSL@@QAE@AAVRandomPool@1@@Z 00432cc0 f   yassl:yassl_int.obj
 0001:00031d10       ?GetID@SSL_SESSION@yaSSL@@QBEPBEXZ 00432d10 f   yassl:yassl_int.obj
 0001:00031d20       ?GetSecret@SSL_SESSION@yaSSL@@QBEPBEXZ 00432d20 f   yassl:yassl_int.obj
 0001:00031d30       ?GetSuite@SSL_SESSION@yaSSL@@QBEPBEXZ 00432d30 f   yassl:yassl_int.obj
 0001:00031d40       ?GetPeerX509@SSL_SESSION@yaSSL@@QBEPAVX509@2@XZ 00432d40 f   yassl:yassl_int.obj
 0001:00031d50       ?GetBornOn@SSL_SESSION@yaSSL@@QBEIXZ 00432d50 f   yassl:yassl_int.obj
 0001:00031d60       ?GetTimeOut@SSL_SESSION@yaSSL@@QBEIXZ 00432d60 f   yassl:yassl_int.obj
 0001:00031d70       ?SetTimeOut@SSL_SESSION@yaSSL@@QAEXI@Z 00432d70 f   yassl:yassl_int.obj
 0001:00031d80       ??0sess_match@yassl_int_cpp_local2@yaSSL@@QAE@PBE@Z 00432d80 f i yassl:yassl_int.obj
 0001:00031d90       ??Rsess_match@yassl_int_cpp_local2@yaSSL@@QAE_NPAVSSL_SESSION@2@@Z 00432d90 f i yassl:yassl_int.obj
 0001:00031e30       ?GetSelf@yassl_int_cpp_local2@yaSSL@@YAKXZ 00432e30 f   yassl:yassl_int.obj
 0001:00031e40       ??0thr_match@yassl_int_cpp_local2@yaSSL@@QAE@XZ 00432e40 f i yassl:yassl_int.obj
 0001:00031e50       ??Rthr_match@yassl_int_cpp_local2@yaSSL@@QAE_NUThreadError@2@@Z 00432e50 f i yassl:yassl_int.obj
 0001:00031e60       ??0SSL_METHOD@yaSSL@@QAE@W4ConnectionEnd@1@UProtocolVersion@1@_N@Z 00432e60 f   yassl:yassl_int.obj
 0001:00031e90       ?getVersion@SSL_METHOD@yaSSL@@QBE?AUProtocolVersion@2@XZ 00432e90 f   yassl:yassl_int.obj
 0001:00031ea0       ?getSide@SSL_METHOD@yaSSL@@QBE?AW4ConnectionEnd@2@XZ 00432ea0 f   yassl:yassl_int.obj
 0001:00031eb0       ?setVerifyPeer@SSL_METHOD@yaSSL@@QAEXXZ 00432eb0 f   yassl:yassl_int.obj
 0001:00031ec0       ?setVerifyNone@SSL_METHOD@yaSSL@@QAEXXZ 00432ec0 f   yassl:yassl_int.obj
 0001:00031ed0       ?setFailNoCert@SSL_METHOD@yaSSL@@QAEXXZ 00432ed0 f   yassl:yassl_int.obj
 0001:00031ee0       ?verifyPeer@SSL_METHOD@yaSSL@@QBE_NXZ 00432ee0 f   yassl:yassl_int.obj
 0001:00031ef0       ?verifyNone@SSL_METHOD@yaSSL@@QBE_NXZ 00432ef0 f   yassl:yassl_int.obj
 0001:00031f00       ?failNoCert@SSL_METHOD@yaSSL@@QBE_NXZ 00432f00 f   yassl:yassl_int.obj
 0001:00031f10       ?multipleProtocol@SSL_METHOD@yaSSL@@QBE_NXZ 00432f10 f   yassl:yassl_int.obj
 0001:00031f20       ??1DH_Parms@yaSSL@@QAE@XZ  00432f20 f i yassl:yassl_int.obj
 0001:00031f40       ?GetCA_List@SSL_CTX@yaSSL@@QBEABV?$list@PAVx509@yaSSL@@@mySTL@@XZ 00432f40 f   yassl:yassl_int.obj
 0001:00031f50       ?getVerifyCallback@SSL_CTX@yaSSL@@QBEP6AHHPAUX509_STORE_CTX@2@@ZXZ 00432f50 f   yassl:yassl_int.obj
 0001:00031f60       ?getCert@SSL_CTX@yaSSL@@QBEPBVx509@2@XZ 00432f60 f   yassl:yassl_int.obj
 0001:00031f70       ?getKey@SSL_CTX@yaSSL@@QBEPBVx509@2@XZ 00432f70 f   yassl:yassl_int.obj
 0001:00031f80       ?getMethod@SSL_CTX@yaSSL@@QBEPBVSSL_METHOD@2@XZ 00432f80 f   yassl:yassl_int.obj
 0001:00031f90       ?GetCiphers@SSL_CTX@yaSSL@@QBEABUCiphers@2@XZ 00432f90 f   yassl:yassl_int.obj
 0001:00031fa0       ?GetDH_Parms@SSL_CTX@yaSSL@@QBEABUDH_Parms@2@XZ 00432fa0 f   yassl:yassl_int.obj
 0001:00031fb0       ?GetStats@SSL_CTX@yaSSL@@QBEABUStats@2@XZ 00432fb0 f   yassl:yassl_int.obj
 0001:00031fc0       ?GetPasswordCb@SSL_CTX@yaSSL@@QBEP6AHPADHHPAX@ZXZ 00432fc0 f   yassl:yassl_int.obj
 0001:00031fd0       ?SetPasswordCb@SSL_CTX@yaSSL@@QAEXP6AHPADHHPAX@Z@Z 00432fd0 f   yassl:yassl_int.obj
 0001:00031fe0       ?GetUserData@SSL_CTX@yaSSL@@QBEPAXXZ 00432fe0 f   yassl:yassl_int.obj
 0001:00031ff0       ?GetSessionCacheOff@SSL_CTX@yaSSL@@QBE_NXZ 00432ff0 f   yassl:yassl_int.obj
 0001:00032000       ?GetSessionCacheFlushOff@SSL_CTX@yaSSL@@QBE_NXZ 00433000 f   yassl:yassl_int.obj
 0001:00032010       ?SetUserData@SSL_CTX@yaSSL@@QAEXPAX@Z 00433010 f   yassl:yassl_int.obj
 0001:00032020       ?SetSessionCacheOff@SSL_CTX@yaSSL@@QAEXXZ 00433020 f   yassl:yassl_int.obj
 0001:00032030       ?SetSessionCacheFlushOff@SSL_CTX@yaSSL@@QAEXXZ 00433030 f   yassl:yassl_int.obj
 0001:00032040       ?setVerifyPeer@SSL_CTX@yaSSL@@QAEXXZ 00433040 f   yassl:yassl_int.obj
 0001:00032050       ?setVerifyNone@SSL_CTX@yaSSL@@QAEXXZ 00433050 f   yassl:yassl_int.obj
 0001:00032060       ?setFailNoCert@SSL_CTX@yaSSL@@QAEXXZ 00433060 f   yassl:yassl_int.obj
 0001:00032070       ?setVerifyCallback@SSL_CTX@yaSSL@@QAEXP6AHHPAUX509_STORE_CTX@2@@Z@Z 00433070 f   yassl:yassl_int.obj
 0001:00032080       ?SetDH@SSL_CTX@yaSSL@@QAE_NABUDH@2@@Z 00433080 f   yassl:yassl_int.obj
 0001:000320c0       ?SetCipherList@SSL_CTX@yaSSL@@QAE_NPBD@Z 004330c0 f   yassl:yassl_int.obj
 0001:00032200       ?IncrementStats@SSL_CTX@yaSSL@@QAEXW4StatsField@2@@Z 00433200 f   yassl:yassl_int.obj
 0001:000323a0       ??0Crypto@yaSSL@@QAE@XZ    004333a0 f   yassl:yassl_int.obj
 0001:000323d0       ?get_digest@Crypto@yaSSL@@QBEABUDigest@2@XZ 004333d0 f   yassl:yassl_int.obj
 0001:000323e0       ?get_cipher@Crypto@yaSSL@@QBEABUBulkCipher@2@XZ 004333e0 f   yassl:yassl_int.obj
 0001:000323f0       ?get_dh@Crypto@yaSSL@@QBEABVDiffieHellman@2@XZ 004333f0 f   yassl:yassl_int.obj
 0001:00032400       ?get_random@Crypto@yaSSL@@QBEABVRandomPool@2@XZ 00433400 f   yassl:yassl_int.obj
 0001:00032410       ?get_certManager@Crypto@yaSSL@@QBEABVCertManager@2@XZ 00433410 f   yassl:yassl_int.obj
 0001:00032420       ?use_digest@Crypto@yaSSL@@QAEAAUDigest@2@XZ 00433420 f   yassl:yassl_int.obj
 0001:00032430       ?use_cipher@Crypto@yaSSL@@QAEAAUBulkCipher@2@XZ 00433430 f   yassl:yassl_int.obj
 0001:00032440       ?use_dh@Crypto@yaSSL@@QAEAAVDiffieHellman@2@XZ 00433440 f   yassl:yassl_int.obj
 0001:00032450       ?use_random@Crypto@yaSSL@@QAEAAVRandomPool@2@XZ 00433450 f   yassl:yassl_int.obj
 0001:00032460       ?use_certManager@Crypto@yaSSL@@QAEAAVCertManager@2@XZ 00433460 f   yassl:yassl_int.obj
 0001:00032470       ?SetDH@Crypto@yaSSL@@QAEXPAVDiffieHellman@2@@Z 00433470 f   yassl:yassl_int.obj
 0001:00032480       ?SetDH@Crypto@yaSSL@@QAEXABUDH_Parms@2@@Z 00433480 f   yassl:yassl_int.obj
 0001:000324c0       ?DhSet@Crypto@yaSSL@@QAE_NXZ 004334c0 f   yassl:yassl_int.obj
 0001:000324d0       ?setDigest@Crypto@yaSSL@@QAEXPAUDigest@2@@Z 004334d0 f   yassl:yassl_int.obj
 0001:000324e0       ?setCipher@Crypto@yaSSL@@QAEXPAUBulkCipher@2@@Z 004334e0 f   yassl:yassl_int.obj
 0001:000324f0       ?get_MD5@sslHashes@yaSSL@@QBEABVMD5@2@XZ 004334f0 f   yassl:yassl_int.obj
 0001:00032500       ?get_SHA@sslHashes@yaSSL@@QBEABVSHA@2@XZ 00433500 f   yassl:yassl_int.obj
 0001:00032510       ?get_verify@sslHashes@yaSSL@@QBEABVFinished@2@XZ 00433510 f   yassl:yassl_int.obj
 0001:00032520       ?get_certVerify@sslHashes@yaSSL@@QBEABUHashes@2@XZ 00433520 f   yassl:yassl_int.obj
 0001:00032530       ?use_MD5@sslHashes@yaSSL@@QAEAAVMD5@2@XZ 00433530 f   yassl:yassl_int.obj
 0001:00032540       ?use_SHA@sslHashes@yaSSL@@QAEAAVSHA@2@XZ 00433540 f   yassl:yassl_int.obj
 0001:00032550       ?use_verify@sslHashes@yaSSL@@QAEAAVFinished@2@XZ 00433550 f   yassl:yassl_int.obj
 0001:00032560       ?use_certVerify@sslHashes@yaSSL@@QAEAAUHashes@2@XZ 00433560 f   yassl:yassl_int.obj
 0001:00032570       ?SetRawInput@Buffers@yaSSL@@QAEXPAVinput_buffer@2@@Z 00433570 f   yassl:yassl_int.obj
 0001:00032580       ?TakeRawInput@Buffers@yaSSL@@QAEPAVinput_buffer@2@XZ 00433580 f   yassl:yassl_int.obj
 0001:00032590       ?getData@Buffers@yaSSL@@QBEABV?$list@PAVinput_buffer@yaSSL@@@mySTL@@XZ 00433590 f   yassl:yassl_int.obj
 0001:000325a0       ?getHandShake@Buffers@yaSSL@@QBEABV?$list@PAVoutput_buffer@yaSSL@@@mySTL@@XZ 004335a0 f   yassl:yassl_int.obj
 0001:000325b0       ?useData@Buffers@yaSSL@@QAEAAV?$list@PAVinput_buffer@yaSSL@@@mySTL@@XZ 004335b0 f   yassl:yassl_int.obj
 0001:000325c0       ?useHandShake@Buffers@yaSSL@@QAEAAV?$list@PAVoutput_buffer@yaSSL@@@mySTL@@XZ 004335c0 f   yassl:yassl_int.obj
 0001:000325d0       ?get_connection@Security@yaSSL@@QBEABUConnection@2@XZ 004335d0 f   yassl:yassl_int.obj
 0001:000325e0       ?GetContext@Security@yaSSL@@QBEPBVSSL_CTX@2@XZ 004335e0 f   yassl:yassl_int.obj
 0001:000325f0       ?get_parms@Security@yaSSL@@QBEABUParameters@2@XZ 004335f0 f   yassl:yassl_int.obj
 0001:00032600       ?get_resume@Security@yaSSL@@QBEABVSSL_SESSION@2@XZ 00433600 f   yassl:yassl_int.obj
 0001:00032610       ?get_resuming@Security@yaSSL@@QBE_NXZ 00433610 f   yassl:yassl_int.obj
 0001:00032620       ?use_connection@Security@yaSSL@@QAEAAUConnection@2@XZ 00433620 f   yassl:yassl_int.obj
 0001:00032630       ?use_parms@Security@yaSSL@@QAEAAUParameters@2@XZ 00433630 f   yassl:yassl_int.obj
 0001:00032640       ?use_resume@Security@yaSSL@@QAEAAVSSL_SESSION@2@XZ 00433640 f   yassl:yassl_int.obj
 0001:00032650       ?set_resuming@Security@yaSSL@@QAEX_N@Z 00433650 f   yassl:yassl_int.obj
 0001:00032660       ??0X509_NAME@yaSSL@@QAE@PBDI@Z 00433660 f   yassl:yassl_int.obj
 0001:000326a0       ?GetName@X509_NAME@yaSSL@@QBEPBDXZ 004336a0 f   yassl:yassl_int.obj
 0001:000326b0       ?GetLength@X509_NAME@yaSSL@@QBEIXZ 004336b0 f   yassl:yassl_int.obj
 0001:000326c0       ?GetIssuer@X509@yaSSL@@QAEPAVX509_NAME@2@XZ 004336c0 f   yassl:yassl_int.obj
 0001:000326d0       ?GetSubject@X509@yaSSL@@QAEPAVX509_NAME@2@XZ 004336d0 f   yassl:yassl_int.obj
 0001:000326e0       ??0StringHolder@yaSSL@@QAE@PBDH@Z 004336e0 f   yassl:yassl_int.obj
 0001:00032720       ?GetString@StringHolder@yaSSL@@QAEPAUASN1_STRING@2@XZ 00433720 f   yassl:yassl_int.obj
 0001:00032730       ?Compress@yaSSL@@YAHPBEHAAVinput_buffer@1@@Z 00433730 f   yassl:yassl_int.obj
 0001:00032740       ?DeCompress@yaSSL@@YAHAAVinput_buffer@1@H0@Z 00433740 f   yassl:yassl_int.obj
 0001:00032750       ??0?$list@PAVx509@yaSSL@@@mySTL@@QAE@XZ 00433750 f i yassl:yassl_int.obj
 0001:00032760       ??0?$list@PAVSSL_SESSION@yaSSL@@@mySTL@@QAE@XZ 00433760 f i yassl:yassl_int.obj
 0001:00032770       ??0?$list@UThreadError@yaSSL@@@mySTL@@QAE@XZ 00433770 f i yassl:yassl_int.obj
 0001:00032780       ??0?$list@PAVinput_buffer@yaSSL@@@mySTL@@QAE@XZ 00433780 f i yassl:yassl_int.obj
 0001:00032790       ?size@?$list@PAVinput_buffer@yaSSL@@@mySTL@@QBEIXZ 00433790 f i yassl:yassl_int.obj
 0001:000327a0       ??0?$list@PAVoutput_buffer@yaSSL@@@mySTL@@QAE@XZ 004337a0 f i yassl:yassl_int.obj
 0001:000327b0       ?size@?$list@PAVoutput_buffer@yaSSL@@@mySTL@@QBEIXZ 004337b0 f i yassl:yassl_int.obj
 0001:000327c0       ??Diterator@?$list@PAVx509@yaSSL@@@mySTL@@QBEAAPAVx509@yaSSL@@XZ 004337c0 f i yassl:yassl_int.obj
 0001:000327d0       ??Eiterator@?$list@PAVx509@yaSSL@@@mySTL@@QAEAAV012@XZ 004337d0 f i yassl:yassl_int.obj
 0001:000327e0       ??9iterator@?$list@PAVx509@yaSSL@@@mySTL@@QBE_NABV012@@Z 004337e0 f i yassl:yassl_int.obj
 0001:00032800       ??Diterator@?$list@PAVinput_buffer@yaSSL@@@mySTL@@QBEAAPAVinput_buffer@yaSSL@@XZ 00433800 f i yassl:yassl_int.obj
 0001:00032810       ??Eiterator@?$list@PAVinput_buffer@yaSSL@@@mySTL@@QAE?AV012@H@Z 00433810 f i yassl:yassl_int.obj
 0001:00032820       ??Diterator@?$list@PAVSSL_SESSION@yaSSL@@@mySTL@@QBEAAPAVSSL_SESSION@yaSSL@@XZ 00433820 f i yassl:yassl_int.obj
 0001:00032830       ??Eiterator@?$list@PAVSSL_SESSION@yaSSL@@@mySTL@@QAEAAV012@XZ 00433830 f i yassl:yassl_int.obj
 0001:00032840       ??9iterator@?$list@PAVSSL_SESSION@yaSSL@@@mySTL@@QBE_NABV012@@Z 00433840 f i yassl:yassl_int.obj
 0001:00032860       ??9iterator@?$list@UThreadError@yaSSL@@@mySTL@@QBE_NABV012@@Z 00433860 f i yassl:yassl_int.obj
 0001:00032880       ??0iterator@?$list@PAVx509@yaSSL@@@mySTL@@QAE@PAUnode@12@@Z 00433880 f i yassl:yassl_int.obj
 0001:00032890       ??0iterator@?$list@PAVinput_buffer@yaSSL@@@mySTL@@QAE@PAUnode@12@@Z 00433890 f i yassl:yassl_int.obj
 0001:000328a0       ??0iterator@?$list@PAVoutput_buffer@yaSSL@@@mySTL@@QAE@PAUnode@12@@Z 004338a0 f i yassl:yassl_int.obj
 0001:000328b0       ??0iterator@?$list@PAVSSL_SESSION@yaSSL@@@mySTL@@QAE@PAUnode@12@@Z 004338b0 f i yassl:yassl_int.obj
 0001:000328c0       ??0iterator@?$list@UThreadError@yaSSL@@@mySTL@@QAE@PAUnode@12@@Z 004338c0 f i yassl:yassl_int.obj
 0001:000328d0       ??Diterator@?$list@UThreadError@yaSSL@@@mySTL@@QBEAAUThreadError@yaSSL@@XZ 004338d0 f i yassl:yassl_int.obj
 0001:000328e0       ??0?$vector_base@U?$pair@HP6APAUMessage@yaSSL@@XZ@mySTL@@@mySTL@@QAE@XZ 004338e0 f i yassl:yassl_int.obj
 0001:000328f0       ??0?$vector_base@U?$pair@HP6APAVHandShakeBase@yaSSL@@XZ@mySTL@@@mySTL@@QAE@XZ 004338f0 f i yassl:yassl_int.obj
 0001:00032900       ??0?$vector_base@U?$pair@HP6APAUServerKeyBase@yaSSL@@XZ@mySTL@@@mySTL@@QAE@XZ 00433900 f i yassl:yassl_int.obj
 0001:00032910       ??0?$vector_base@U?$pair@HP6APAUClientKeyBase@yaSSL@@XZ@mySTL@@@mySTL@@QAE@XZ 00433910 f i yassl:yassl_int.obj
 0001:00032920       ??$GetArrayMemory@E@mySTL@@YAPAEI@Z 00433920 f i yassl:yassl_int.obj
 0001:00032930       ?front@?$list@PAVinput_buffer@yaSSL@@@mySTL@@QBEPAVinput_buffer@yaSSL@@XZ 00433930 f i yassl:yassl_int.obj
 0001:00032940       ?front@?$list@PAVoutput_buffer@yaSSL@@@mySTL@@QBEPAVoutput_buffer@yaSSL@@XZ 00433940 f i yassl:yassl_int.obj
 0001:00032950       ??$find_if@Viterator@?$list@PAVSSL_SESSION@yaSSL@@@mySTL@@Usess_match@yassl_int_cpp_local2@yaSSL@@@mySTL@@YA?AViterator@?$list@PAVSSL_SESSION@yaSSL@@@0@V120@0Usess_match@yassl_int_cpp_local2@yaSSL@@@Z 00433950 f i yassl:yassl_int.obj
 0001:00032990       ??$ysDelete@VSSL_METHOD@yaSSL@@@yaSSL@@YAXPAVSSL_METHOD@0@@Z 00433990 f i yassl:yassl_int.obj
 0001:000329a0       ??$ysDelete@UDigest@yaSSL@@@yaSSL@@YAXPAUDigest@0@@Z 004339a0 f i yassl:yassl_int.obj
 0001:000329c0       ??$ysArrayDelete@D@yaSSL@@YAXPAD@Z 004339c0 f i yassl:yassl_int.obj
 0001:000329d0       ??$ysArrayDelete@E@yaSSL@@YAXPAE@Z 004339d0 f i yassl:yassl_int.obj
 0001:000329e0       ??$FreeArrayMemory@U?$pair@HP6APAUMessage@yaSSL@@XZ@mySTL@@@mySTL@@YAXPAU?$pair@HP6APAUMessage@yaSSL@@XZ@0@@Z 004339e0 f i yassl:yassl_int.obj
 0001:000329f0       ??$FreeArrayMemory@U?$pair@HP6APAVHandShakeBase@yaSSL@@XZ@mySTL@@@mySTL@@YAXPAU?$pair@HP6APAVHandShakeBase@yaSSL@@XZ@0@@Z 004339f0 f i yassl:yassl_int.obj
 0001:00032a00       ??$FreeArrayMemory@U?$pair@HP6APAUServerKeyBase@yaSSL@@XZ@mySTL@@@mySTL@@YAXPAU?$pair@HP6APAUServerKeyBase@yaSSL@@XZ@0@@Z 00433a00 f i yassl:yassl_int.obj
 0001:00032a10       ??$FreeArrayMemory@U?$pair@HP6APAUClientKeyBase@yaSSL@@XZ@mySTL@@@mySTL@@YAXPAU?$pair@HP6APAUClientKeyBase@yaSSL@@XZ@0@@Z 00433a10 f i yassl:yassl_int.obj
 0001:00032a20       ??_Ginput_buffer@yaSSL@@QAEPAXI@Z 00433a20 f i yassl:yassl_int.obj
 0001:00032a40       ??_Goutput_buffer@yaSSL@@QAEPAXI@Z 00433a40 f i yassl:yassl_int.obj
 0001:00032a60       ??_GDiffieHellman@yaSSL@@QAEPAXI@Z 00433a60 f i yassl:yassl_int.obj
 0001:00032a80       ??Eiterator@?$list@PAVinput_buffer@yaSSL@@@mySTL@@QAEAAV012@XZ 00433a80 f i yassl:yassl_int.obj
 0001:00032a90       ??9iterator@?$list@PAVinput_buffer@yaSSL@@@mySTL@@QBE_NABV012@@Z 00433a90 f i yassl:yassl_int.obj
 0001:00032ab0       ??Diterator@?$list@PAVoutput_buffer@yaSSL@@@mySTL@@QBEAAPAVoutput_buffer@yaSSL@@XZ 00433ab0 f i yassl:yassl_int.obj
 0001:00032ac0       ??Eiterator@?$list@PAVoutput_buffer@yaSSL@@@mySTL@@QAEAAV012@XZ 00433ac0 f i yassl:yassl_int.obj
 0001:00032ad0       ??9iterator@?$list@PAVoutput_buffer@yaSSL@@@mySTL@@QBE_NABV012@@Z 00433ad0 f i yassl:yassl_int.obj
 0001:00032af0       ??Eiterator@?$list@UThreadError@yaSSL@@@mySTL@@QAEAAV012@XZ 00433af0 f i yassl:yassl_int.obj
 0001:00032b00       ??0node@?$list@PAVx509@yaSSL@@@mySTL@@QAE@PAVx509@yaSSL@@@Z 00433b00 f i yassl:yassl_int.obj
 0001:00032b20       ??0node@?$list@PAVinput_buffer@yaSSL@@@mySTL@@QAE@PAVinput_buffer@yaSSL@@@Z 00433b20 f i yassl:yassl_int.obj
 0001:00032b40       ??0node@?$list@PAVSSL_SESSION@yaSSL@@@mySTL@@QAE@PAVSSL_SESSION@yaSSL@@@Z 00433b40 f i yassl:yassl_int.obj
 0001:00032b60       ??0node@?$list@UThreadError@yaSSL@@@mySTL@@QAE@UThreadError@yaSSL@@@Z 00433b60 f i yassl:yassl_int.obj
 0001:00032b80       ??0node@?$list@PAVoutput_buffer@yaSSL@@@mySTL@@QAE@PAVoutput_buffer@yaSSL@@@Z 00433b80 f i yassl:yassl_int.obj
 0001:00032ba0       ??$destroy@Unode@?$list@PAVx509@yaSSL@@@mySTL@@@mySTL@@YAXPAUnode@?$list@PAVx509@yaSSL@@@0@@Z 00433ba0 f i yassl:yassl_int.obj
 0001:00032bb0       ??$destroy@Unode@?$list@PAVSSL_SESSION@yaSSL@@@mySTL@@@mySTL@@YAXPAUnode@?$list@PAVSSL_SESSION@yaSSL@@@0@@Z 00433bb0 f i yassl:yassl_int.obj
 0001:00032bc0       ??$destroy@Unode@?$list@UThreadError@yaSSL@@@mySTL@@@mySTL@@YAXPAUnode@?$list@UThreadError@yaSSL@@@0@@Z 00433bc0 f i yassl:yassl_int.obj
 0001:00032bd0       ??$destroy@Unode@?$list@PAVinput_buffer@yaSSL@@@mySTL@@@mySTL@@YAXPAUnode@?$list@PAVinput_buffer@yaSSL@@@0@@Z 00433bd0 f i yassl:yassl_int.obj
 0001:00032be0       ??$destroy@Unode@?$list@PAVoutput_buffer@yaSSL@@@mySTL@@@mySTL@@YAXPAUnode@?$list@PAVoutput_buffer@yaSSL@@@0@@Z 00433be0 f i yassl:yassl_int.obj
 0001:00032bf0       ??$swap@PAVSSL_SESSION@yaSSL@@@mySTL@@YAXAAPAVSSL_SESSION@yaSSL@@0@Z 00433bf0 f i yassl:yassl_int.obj
 0001:00032c10       ??$destroy@U?$pair@HP6APAUMessage@yaSSL@@XZ@mySTL@@@mySTL@@YAXPAU?$pair@HP6APAUMessage@yaSSL@@XZ@0@@Z 00433c10 f i yassl:yassl_int.obj
 0001:00032c20       ??$destroy@U?$pair@HP6APAVHandShakeBase@yaSSL@@XZ@mySTL@@@mySTL@@YAXPAU?$pair@HP6APAVHandShakeBase@yaSSL@@XZ@0@@Z 00433c20 f i yassl:yassl_int.obj
 0001:00032c30       ??$destroy@U?$pair@HP6APAUServerKeyBase@yaSSL@@XZ@mySTL@@@mySTL@@YAXPAU?$pair@HP6APAUServerKeyBase@yaSSL@@XZ@0@@Z 00433c30 f i yassl:yassl_int.obj
 0001:00032c40       ??$destroy@U?$pair@HP6APAUClientKeyBase@yaSSL@@XZ@mySTL@@@mySTL@@YAXPAU?$pair@HP6APAUClientKeyBase@yaSSL@@XZ@0@@Z 00433c40 f i yassl:yassl_int.obj
 0001:00032c50       ??$swap@PAVx509@yaSSL@@@mySTL@@YAXAAPAVx509@yaSSL@@0@Z 00433c50 f i yassl:yassl_int.obj
 0001:00032c70       ??$swap@PAVoutput_buffer@yaSSL@@@mySTL@@YAXAAPAVoutput_buffer@yaSSL@@0@Z 00433c70 f i yassl:yassl_int.obj
 0001:00032c90       ??$swap@PAVinput_buffer@yaSSL@@@mySTL@@YAXAAPAVinput_buffer@yaSSL@@0@Z 00433c90 f i yassl:yassl_int.obj
 0001:00032cb0       ?GetMemory@mySTL@@YAPAXI@Z 00433cb0 f i yassl:yassl_int.obj
 0001:00032cc0       ??0sslHashes@yaSSL@@QAE@XZ 00433cc0 f i yassl:yassl_int.obj
 0001:00032ce0       ?set_pending@SSL@yaSSL@@QAEXE@Z 00433ce0 f   yassl:yassl_int.obj
 0001:00033a20       ?set_random@SSL@yaSSL@@QAEXPBEW4ConnectionEnd@2@@Z 00434a20 f   yassl:yassl_int.obj
 0001:00033a50       ?set_preMaster@SSL@yaSSL@@QAEXPBEI@Z 00434a50 f   yassl:yassl_int.obj
 0001:00033a80       ?UnSetCompression@SSL@yaSSL@@QAEXXZ 00434a80 f   yassl:yassl_int.obj
 0001:00033a90       ?CompressionOn@SSL@yaSSL@@QBE_NXZ 00434a90 f   yassl:yassl_int.obj
 0001:00033aa0       ?set_masterSecret@SSL@yaSSL@@QAEXPBE@Z 00434aa0 f   yassl:yassl_int.obj
 0001:00033ac0       ?set_sessionID@SSL@yaSSL@@QAEXPBE@Z 00434ac0 f   yassl:yassl_int.obj
 0001:00033af0       ?setKeys@SSL@yaSSL@@AAEXXZ 00434af0 f   yassl:yassl_int.obj
 0001:00033b90       ?get_SEQIncrement@SSL@yaSSL@@QAEI_N@Z 00434b90 f   yassl:yassl_int.obj
 0001:00033bc0       ?get_macSecret@SSL@yaSSL@@QAEPBE_N@Z 00434bc0 f   yassl:yassl_int.obj
 0001:00033c00       ?verifyState@SSL@yaSSL@@QAEXABURecordLayerHeader@2@@Z 00434c00 f   yassl:yassl_int.obj
 0001:00033c60       ?verifyState@SSL@yaSSL@@QAEXW4ClientState@2@@Z 00434c60 f   yassl:yassl_int.obj
 0001:00033c90       ?verifyState@SSL@yaSSL@@QAEXW4ServerState@2@@Z 00434c90 f   yassl:yassl_int.obj
 0001:00033cc0       ?verfiyHandShakeComplete@SSL@yaSSL@@QAEXXZ 00434cc0 f   yassl:yassl_int.obj
 0001:00033cf0       ?verifyClientState@SSL@yaSSL@@AAEXW4HandShakeType@2@@Z 00434cf0 f   yassl:yassl_int.obj
 0001:00033dc0       ?verifyServerState@SSL@yaSSL@@AAEXW4HandShakeType@2@@Z 00434dc0 f   yassl:yassl_int.obj
 0001:00033e70       ?matchSuite@SSL@yaSSL@@QAEXPBEI@Z 00434e70 f   yassl:yassl_int.obj
 0001:00033f00       ?GetMultiProtocol@SSL@yaSSL@@QBE_NXZ 00434f00 f   yassl:yassl_int.obj
 0001:00033f20       ?isTLS@SSL@yaSSL@@QBE_NXZ  00434f20 f   yassl:yassl_int.obj
 0001:00033f30       ?isTLSv1_1@SSL@yaSSL@@QBE_NXZ 00434f30 f   yassl:yassl_int.obj
 0001:00033f40       ??1X509_NAME@yaSSL@@QAE@XZ 00434f40 f   yassl:yassl_int.obj
 0001:00033f60       ?GetBefore@X509@yaSSL@@QAEPAUASN1_STRING@2@XZ 00434f60 f   yassl:yassl_int.obj
 0001:00033f70       ?GetAfter@X509@yaSSL@@QAEPAUASN1_STRING@2@XZ 00434f70 f   yassl:yassl_int.obj
 0001:00033f80       ?GetEntry@X509_NAME@yaSSL@@QAEPAUASN1_STRING@2@H@Z 00434f80 f   yassl:yassl_int.obj
 0001:00034010       ??1StringHolder@yaSSL@@QAE@XZ 00435010 f   yassl:yassl_int.obj
 0001:00034020       ?begin@?$list@PAVx509@yaSSL@@@mySTL@@QBE?AViterator@12@XZ 00435020 f i yassl:yassl_int.obj
 0001:00034030       ?end@?$list@PAVx509@yaSSL@@@mySTL@@QBE?AViterator@12@XZ 00435030 f i yassl:yassl_int.obj
 0001:00034040       ?begin@?$list@PAVSSL_SESSION@yaSSL@@@mySTL@@QBE?AViterator@12@XZ 00435040 f i yassl:yassl_int.obj
 0001:00034050       ?end@?$list@PAVSSL_SESSION@yaSSL@@@mySTL@@QBE?AViterator@12@XZ 00435050 f i yassl:yassl_int.obj
 0001:00034060       ?begin@?$list@UThreadError@yaSSL@@@mySTL@@QBE?AViterator@12@XZ 00435060 f i yassl:yassl_int.obj
 0001:00034070       ?end@?$list@UThreadError@yaSSL@@@mySTL@@QBE?AViterator@12@XZ 00435070 f i yassl:yassl_int.obj
 0001:00034080       ?begin@?$list@PAVinput_buffer@yaSSL@@@mySTL@@QBE?AViterator@12@XZ 00435080 f i yassl:yassl_int.obj
 0001:00034090       ?end@?$list@PAVinput_buffer@yaSSL@@@mySTL@@QBE?AViterator@12@XZ 00435090 f i yassl:yassl_int.obj
 0001:000340a0       ?begin@?$list@PAVoutput_buffer@yaSSL@@@mySTL@@QBE?AViterator@12@XZ 004350a0 f i yassl:yassl_int.obj
 0001:000340b0       ?end@?$list@PAVoutput_buffer@yaSSL@@@mySTL@@QBE?AViterator@12@XZ 004350b0 f i yassl:yassl_int.obj
 0001:000340c0       ??Citerator@?$list@UThreadError@yaSSL@@@mySTL@@QBEPAUThreadError@yaSSL@@XZ 004350c0 f i yassl:yassl_int.obj
 0001:000340d0       ??1?$vector_base@U?$pair@HP6APAUMessage@yaSSL@@XZ@mySTL@@@mySTL@@QAE@XZ 004350d0 f i yassl:yassl_int.obj
 0001:000340e0       ??1?$vector_base@U?$pair@HP6APAVHandShakeBase@yaSSL@@XZ@mySTL@@@mySTL@@QAE@XZ 004350e0 f i yassl:yassl_int.obj
 0001:000340f0       ??1?$vector_base@U?$pair@HP6APAUServerKeyBase@yaSSL@@XZ@mySTL@@@mySTL@@QAE@XZ 004350f0 f i yassl:yassl_int.obj
 0001:00034100       ??1?$vector_base@U?$pair@HP6APAUClientKeyBase@yaSSL@@XZ@mySTL@@@mySTL@@QAE@XZ 00435100 f i yassl:yassl_int.obj
 0001:00034110       ??$FreeArrayMemory@X@mySTL@@YAXPAX@Z 00435110 f i yassl:yassl_int.obj
 0001:00034120       ?push_back@?$list@PAVx509@yaSSL@@@mySTL@@QAEXPAVx509@yaSSL@@@Z 00435120 f i yassl:yassl_int.obj
 0001:00034170       ?push_back@?$list@PAVSSL_SESSION@yaSSL@@@mySTL@@QAEXPAVSSL_SESSION@yaSSL@@@Z 00435170 f i yassl:yassl_int.obj
 0001:000341c0       ?push_back@?$list@UThreadError@yaSSL@@@mySTL@@QAEXUThreadError@yaSSL@@@Z 004351c0 f i yassl:yassl_int.obj
 0001:00034220       ?push_back@?$list@PAVinput_buffer@yaSSL@@@mySTL@@QAEXPAVinput_buffer@yaSSL@@@Z 00435220 f i yassl:yassl_int.obj
 0001:00034270       ?push_back@?$list@PAVoutput_buffer@yaSSL@@@mySTL@@QAEXPAVoutput_buffer@yaSSL@@@Z 00435270 f i yassl:yassl_int.obj
 0001:000342c0       ??$for_each@Viterator@?$list@PAVinput_buffer@yaSSL@@@mySTL@@USumData@yassl_int_cpp_local1@yaSSL@@@mySTL@@YA?AUSumData@yassl_int_cpp_local1@yaSSL@@Viterator@?$list@PAVinput_buffer@yaSSL@@@0@0U123@@Z 004352c0 f i yassl:yassl_int.obj
 0001:00034300       ??$ysDelete@Vinput_buffer@yaSSL@@@yaSSL@@YAXPAVinput_buffer@0@@Z 00435300 f i yassl:yassl_int.obj
 0001:00034320       ??$for_each@Viterator@?$list@PAVoutput_buffer@yaSSL@@@mySTL@@USumBuffer@yassl_int_cpp_local1@yaSSL@@@mySTL@@YA?AUSumBuffer@yassl_int_cpp_local1@yaSSL@@Viterator@?$list@PAVoutput_buffer@yaSSL@@@0@0U123@@Z 00435320 f i yassl:yassl_int.obj
 0001:00034360       ??$ysDelete@Voutput_buffer@yaSSL@@@yaSSL@@YAXPAVoutput_buffer@0@@Z 00435360 f i yassl:yassl_int.obj
 0001:00034380       ??$find_if@Viterator@?$list@UThreadError@yaSSL@@@mySTL@@Uthr_match@yassl_int_cpp_local2@yaSSL@@@mySTL@@YA?AViterator@?$list@UThreadError@yaSSL@@@0@V120@0Uthr_match@yassl_int_cpp_local2@yaSSL@@@Z 00435380 f i yassl:yassl_int.obj
 0001:000343b0       ??$ysDelete@VDiffieHellman@yaSSL@@@yaSSL@@YAXPAVDiffieHellman@0@@Z 004353b0 f i yassl:yassl_int.obj
 0001:000343d0       ??$destroy@PAU?$pair@HP6APAUMessage@yaSSL@@XZ@mySTL@@@mySTL@@YAXPAU?$pair@HP6APAUMessage@yaSSL@@XZ@0@0@Z 004353d0 f i yassl:yassl_int.obj
 0001:000343e0       ??$destroy@PAU?$pair@HP6APAVHandShakeBase@yaSSL@@XZ@mySTL@@@mySTL@@YAXPAU?$pair@HP6APAVHandShakeBase@yaSSL@@XZ@0@0@Z 004353e0 f i yassl:yassl_int.obj
 0001:000343f0       ??$destroy@PAU?$pair@HP6APAUServerKeyBase@yaSSL@@XZ@mySTL@@@mySTL@@YAXPAU?$pair@HP6APAUServerKeyBase@yaSSL@@XZ@0@0@Z 004353f0 f i yassl:yassl_int.obj
 0001:00034400       ??$destroy@PAU?$pair@HP6APAUClientKeyBase@yaSSL@@XZ@mySTL@@@mySTL@@YAXPAU?$pair@HP6APAUClientKeyBase@yaSSL@@XZ@0@0@Z 00435400 f i yassl:yassl_int.obj
 0001:00034410       ??$checked_delete@Vx509@yaSSL@@@yaSSL@@YAXPAVx509@0@@Z 00435410 f i yassl:yassl_int.obj
 0001:00034420       ??$checked_delete@Voutput_buffer@yaSSL@@@yaSSL@@YAXPAVoutput_buffer@0@@Z 00435420 f i yassl:yassl_int.obj
 0001:00034430       ??$checked_delete@Vinput_buffer@yaSSL@@@yaSSL@@YAXPAVinput_buffer@0@@Z 00435430 f i yassl:yassl_int.obj
 0001:00034440       ?FreeMemory@mySTL@@YAXPAX@Z 00435440 f i yassl:yassl_int.obj
 0001:00034450       ??1X509@yaSSL@@QAE@XZ      00435450 f i yassl:yassl_int.obj
 0001:00034480       ?storeKeys@SSL@yaSSL@@AAEXPBE@Z 00435480 f   yassl:yassl_int.obj
 0001:00034540       ?bufferedData@SSL@yaSSL@@QAEIXZ 00435540 f   yassl:yassl_int.obj
 0001:00034570       ?PeekData@SSL@yaSSL@@QAEXAAVData@2@@Z 00435570 f   yassl:yassl_int.obj
 0001:00034690       ?verifyState@SSL@yaSSL@@QAEXABVHandShakeHeader@2@@Z 00435690 f   yassl:yassl_int.obj
 0001:000346f0       ?addData@SSL@yaSSL@@QAEXPAVinput_buffer@2@@Z 004356f0 f   yassl:yassl_int.obj
 0001:00034720       ?addBuffer@SSL@yaSSL@@QAEXPAVoutput_buffer@2@@Z 00435720 f   yassl:yassl_int.obj
 0001:00034740       ?AddCA@SSL_CTX@yaSSL@@QAEXPAVx509@2@@Z 00435740 f   yassl:yassl_int.obj
 0001:00034750       ??1Crypto@yaSSL@@QAE@XZ    00435750 f   yassl:yassl_int.obj
 0001:00034790       ??0X509@yaSSL@@QAE@PBDI0I0H0H@Z 00435790 f   yassl:yassl_int.obj
 0001:000347e0       ??1?$vector@U?$pair@HP6APAUMessage@yaSSL@@XZ@mySTL@@@mySTL@@QAE@XZ 004357e0 f i yassl:yassl_int.obj
 0001:000347f0       ??1?$vector@U?$pair@HP6APAVHandShakeBase@yaSSL@@XZ@mySTL@@@mySTL@@QAE@XZ 004357f0 f i yassl:yassl_int.obj
 0001:00034800       ??1?$vector@U?$pair@HP6APAUServerKeyBase@yaSSL@@XZ@mySTL@@@mySTL@@QAE@XZ 00435800 f i yassl:yassl_int.obj
 0001:00034810       ??1?$vector@U?$pair@HP6APAUClientKeyBase@yaSSL@@XZ@mySTL@@@mySTL@@QAE@XZ 00435810 f i yassl:yassl_int.obj
 0001:00034820       ??0?$vector@U?$pair@HP6APAUMessage@yaSSL@@XZ@mySTL@@@mySTL@@QAE@XZ 00435820 f i yassl:yassl_int.obj
 0001:00034830       ??0?$vector@U?$pair@HP6APAVHandShakeBase@yaSSL@@XZ@mySTL@@@mySTL@@QAE@XZ 00435830 f i yassl:yassl_int.obj
 0001:00034840       ??0?$vector@U?$pair@HP6APAUServerKeyBase@yaSSL@@XZ@mySTL@@@mySTL@@QAE@XZ 00435840 f i yassl:yassl_int.obj
 0001:00034850       ??0?$vector@U?$pair@HP6APAUClientKeyBase@yaSSL@@XZ@mySTL@@@mySTL@@QAE@XZ 00435850 f i yassl:yassl_int.obj
 0001:00034860       ??1?$list@PAVx509@yaSSL@@@mySTL@@QAE@XZ 00435860 f i yassl:yassl_int.obj
 0001:00034880       ??1?$list@PAVSSL_SESSION@yaSSL@@@mySTL@@QAE@XZ 00435880 f i yassl:yassl_int.obj
 0001:000348a0       ??1?$list@UThreadError@yaSSL@@@mySTL@@QAE@XZ 004358a0 f i yassl:yassl_int.obj
 0001:000348c0       ??1?$list@PAVinput_buffer@yaSSL@@@mySTL@@QAE@XZ 004358c0 f i yassl:yassl_int.obj
 0001:000348e0       ?pop_front@?$list@PAVinput_buffer@yaSSL@@@mySTL@@QAEXXZ 004358e0 f i yassl:yassl_int.obj
 0001:00034930       ??1?$list@PAVoutput_buffer@yaSSL@@@mySTL@@QAE@XZ 00435930 f i yassl:yassl_int.obj
 0001:00034950       ?pop_front@?$list@PAVoutput_buffer@yaSSL@@@mySTL@@QAEXXZ 00435950 f i yassl:yassl_int.obj
 0001:000349a0       ??_GX509@yaSSL@@QAEPAXI@Z  004359a0 f i yassl:yassl_int.obj
 0001:000349e0       ?pop_front@?$list@PAVSSL_SESSION@yaSSL@@@mySTL@@QAEXXZ 004359e0 f i yassl:yassl_int.obj
 0001:00034a30       ?pop_back@?$list@PAVSSL_SESSION@yaSSL@@@mySTL@@QAEXXZ 00435a30 f i yassl:yassl_int.obj
 0001:00034a70       ?pop_front@?$list@UThreadError@yaSSL@@@mySTL@@QAEXXZ 00435a70 f i yassl:yassl_int.obj
 0001:00034ac0       ?pop_back@?$list@UThreadError@yaSSL@@@mySTL@@QAEXXZ 00435ac0 f i yassl:yassl_int.obj
 0001:00034b00       ??$?RVx509@yaSSL@@@del_ptr_zero@yaSSL@@QBEXAAPAVx509@1@@Z 00435b00 f i yassl:yassl_int.obj
 0001:00034b20       ??$?RVoutput_buffer@yaSSL@@@del_ptr_zero@yaSSL@@QBEXAAPAVoutput_buffer@1@@Z 00435b20 f i yassl:yassl_int.obj
 0001:00034b40       ??$?RVinput_buffer@yaSSL@@@del_ptr_zero@yaSSL@@QBEXAAPAVinput_buffer@1@@Z 00435b40 f i yassl:yassl_int.obj
 0001:00034b60       ??0Sessions@yaSSL@@AAE@XZ  00435b60 f i yassl:yassl_int.obj
 0001:00034ba0       ??0Errors@yaSSL@@AAE@XZ    00435ba0 f i yassl:yassl_int.obj
 0001:00034bc0       ??1Errors@yaSSL@@QAE@XZ    00435bc0 f i yassl:yassl_int.obj
 0001:00034be0       ??1?$Factory@UMessage@yaSSL@@HP6APAU12@XZ@yaSSL@@QAE@XZ 00435be0 f i yassl:yassl_int.obj
 0001:00034bf0       ??1?$Factory@VHandShakeBase@yaSSL@@HP6APAV12@XZ@yaSSL@@QAE@XZ 00435bf0 f i yassl:yassl_int.obj
 0001:00034c00       ??1?$Factory@UServerKeyBase@yaSSL@@HP6APAU12@XZ@yaSSL@@QAE@XZ 00435c00 f i yassl:yassl_int.obj
 0001:00034c10       ??1?$Factory@UClientKeyBase@yaSSL@@HP6APAU12@XZ@yaSSL@@QAE@XZ 00435c10 f i yassl:yassl_int.obj
 0001:00034c20       ?deriveKeys@SSL@yaSSL@@QAEXXZ 00435c20 f   yassl:yassl_int.obj
 0001:00034e00       ?deriveTLSKeys@SSL@yaSSL@@QAEXXZ 00435e00 f   yassl:yassl_int.obj
 0001:00034ec0       ?fillData@SSL@yaSSL@@QAEXAAVData@2@@Z 00435ec0 f   yassl:yassl_int.obj
 0001:00035030       ?flushBuffer@SSL@yaSSL@@QAEXXZ 00436030 f   yassl:yassl_int.obj
 0001:00035100       ?CopyX509@SSL_SESSION@yaSSL@@AAEXPAVX509@2@@Z 00436100 f   yassl:yassl_int.obj
 0001:000351a0       ??0SSL_SESSION@yaSSL@@QAE@ABVSSL@1@AAVRandomPool@1@@Z 004361a0 f   yassl:yassl_int.obj
 0001:00035230       ?GetSessions@yaSSL@@YAAAVSessions@1@XZ 00436230 f   yassl:yassl_int.obj
 0001:00035290       ?GetErrors@yaSSL@@YAAAVErrors@1@XZ 00436290 f   yassl:yassl_int.obj
 0001:000352e0       ??0SSL_CTX@yaSSL@@QAE@PAVSSL_METHOD@1@@Z 004362e0 f   yassl:yassl_int.obj
 0001:000353b0       ??0Buffers@yaSSL@@QAE@XZ   004363b0 f   yassl:yassl_int.obj
 0001:000353d0       ??0?$Factory@UMessage@yaSSL@@HP6APAU12@XZ@yaSSL@@QAE@P6AXAAV01@@Z@Z 004363d0 f i yassl:yassl_int.obj
 0001:000353f0       ??0?$Factory@VHandShakeBase@yaSSL@@HP6APAV12@XZ@yaSSL@@QAE@P6AXAAV01@@Z@Z 004363f0 f i yassl:yassl_int.obj
 0001:00035410       ??0?$Factory@UServerKeyBase@yaSSL@@HP6APAU12@XZ@yaSSL@@QAE@P6AXAAV01@@Z@Z 00436410 f i yassl:yassl_int.obj
 0001:00035430       ??0?$Factory@UClientKeyBase@yaSSL@@HP6APAU12@XZ@yaSSL@@QAE@P6AXAAV01@@Z@Z 00436430 f i yassl:yassl_int.obj
 0001:00035450       ?erase@?$list@PAVSSL_SESSION@yaSSL@@@mySTL@@QAE_NViterator@12@@Z 00436450 f i yassl:yassl_int.obj
 0001:000354b0       ?erase@?$list@UThreadError@yaSSL@@@mySTL@@QAE_NViterator@12@@Z 004364b0 f i yassl:yassl_int.obj
 0001:00035510       ??$ysDelete@VX509@yaSSL@@@yaSSL@@YAXPAVX509@0@@Z 00436510 f i yassl:yassl_int.obj
 0001:00035550       ??$for_each@Viterator@?$list@PAVx509@yaSSL@@@mySTL@@Udel_ptr_zero@yaSSL@@@mySTL@@YA?AUdel_ptr_zero@yaSSL@@Viterator@?$list@PAVx509@yaSSL@@@0@0U12@@Z 00436550 f i yassl:yassl_int.obj
 0001:00035590       ??$for_each@Viterator@?$list@PAVoutput_buffer@yaSSL@@@mySTL@@Udel_ptr_zero@yaSSL@@@mySTL@@YA?AUdel_ptr_zero@yaSSL@@Viterator@?$list@PAVoutput_buffer@yaSSL@@@0@0U12@@Z 00436590 f i yassl:yassl_int.obj
 0001:000355d0       ??$for_each@Viterator@?$list@PAVinput_buffer@yaSSL@@@mySTL@@Udel_ptr_zero@yaSSL@@@mySTL@@YA?AUdel_ptr_zero@yaSSL@@Viterator@?$list@PAVinput_buffer@yaSSL@@@0@0U12@@Z 004365d0 f i yassl:yassl_int.obj
 0001:00035610       ??_GErrors@yaSSL@@QAEPAXI@Z 00436610 f i yassl:yassl_int.obj
 0001:00035640       ??1sslFactory@yaSSL@@QAE@XZ 00436640 f i yassl:yassl_int.obj
 0001:00035670       ??0sslFactory@yaSSL@@AAE@XZ 00436670 f   yassl:yassl_int.obj
 0001:000356c0       ?makeTLSMasterSecret@SSL@yaSSL@@QAEXXZ 004366c0 f   yassl:yassl_int.obj
 0001:00035740       ??4SSL_SESSION@yaSSL@@QAEAAV01@ABV01@@Z 00436740 f   yassl:yassl_int.obj
 0001:000357b0       ??1SSL_SESSION@yaSSL@@QAE@XZ 004367b0 f   yassl:yassl_int.obj
 0001:000357d0       ?GetSSL_Factory@yaSSL@@YAAAVsslFactory@1@XZ 004367d0 f   yassl:yassl_int.obj
 0001:00035800       ?Remove@Errors@yaSSL@@QAEXXZ 00436800 f   yassl:yassl_int.obj
 0001:00035850       ?Lookup@Errors@yaSSL@@QAEH_N@Z 00436850 f   yassl:yassl_int.obj
 0001:000358c0       ?Add@Errors@yaSSL@@QAEXH@Z 004368c0 f   yassl:yassl_int.obj
 0001:00035900       ??1SSL_CTX@yaSSL@@QAE@XZ   00436900 f   yassl:yassl_int.obj
 0001:00035970       ??1Buffers@yaSSL@@QAE@XZ   00436970 f   yassl:yassl_int.obj
 0001:000359d0       ??0Security@yaSSL@@QAE@UProtocolVersion@1@AAVRandomPool@1@W4ConnectionEnd@1@ABUCiphers@1@PAVSSL_CTX@1@_N@Z 004369d0 f   yassl:yassl_int.obj
 0001:00035a30       ??$ysDelete@VErrors@yaSSL@@@yaSSL@@YAXPAVErrors@0@@Z 00436a30 f i yassl:yassl_int.obj
 0001:00035a60       ??_GsslFactory@yaSSL@@QAEPAXI@Z 00436a60 f i yassl:yassl_int.obj
 0001:00035aa0       ??_GSSL_SESSION@yaSSL@@QAEPAXI@Z 00436aa0 f i yassl:yassl_int.obj
 0001:00035ac0       ?makeMasterSecret@SSL@yaSSL@@QAEXXZ 00436ac0 f   yassl:yassl_int.obj
 0001:00035cc0       ?getFactory@SSL@yaSSL@@QBEABVsslFactory@2@XZ 00436cc0 f   yassl:yassl_int.obj
 0001:00035cd0       ??$ysDelete@VsslFactory@yaSSL@@@yaSSL@@YAXPAVsslFactory@0@@Z 00436cd0 f i yassl:yassl_int.obj
 0001:00035d10       ??$ysDelete@VSSL_SESSION@yaSSL@@@yaSSL@@YAXPAVSSL_SESSION@0@@Z 00436d10 f i yassl:yassl_int.obj
 0001:00035d30       ??0SSL@yaSSL@@QAE@PAVSSL_CTX@1@@Z 00436d30 f   yassl:yassl_int.obj
 0001:00035fa0       ??$checked_delete@VSSL_SESSION@yaSSL@@@yaSSL@@YAXPAVSSL_SESSION@0@@Z 00436fa0 f i yassl:yassl_int.obj
 0001:00035fb0       ??$?RVSSL_SESSION@yaSSL@@@del_ptr_zero@yaSSL@@QBEXAAPAVSSL_SESSION@1@@Z 00436fb0 f i yassl:yassl_int.obj
 0001:00035fd0       ?lookup@Sessions@yaSSL@@QAEPAVSSL_SESSION@2@PBEPAV32@@Z 00436fd0 f   yassl:yassl_int.obj
 0001:00036070       ?remove@Sessions@yaSSL@@QAEXPBE@Z 00437070 f   yassl:yassl_int.obj
 0001:000360d0       ?Flush@Sessions@yaSSL@@QAEXXZ 004370d0 f   yassl:yassl_int.obj
 0001:00036140       ??$for_each@Viterator@?$list@PAVSSL_SESSION@yaSSL@@@mySTL@@Udel_ptr_zero@yaSSL@@@mySTL@@YA?AUdel_ptr_zero@yaSSL@@Viterator@?$list@PAVSSL_SESSION@yaSSL@@@0@0U12@@Z 00437140 f i yassl:yassl_int.obj
 0001:00036180       ?set_session@SSL@yaSSL@@QAEXPAVSSL_SESSION@2@@Z 00437180 f   yassl:yassl_int.obj
 0001:000361f0       ?add@Sessions@yaSSL@@QAEXABVSSL@2@@Z 004371f0 f   yassl:yassl_int.obj
 0001:00036280       ??1Sessions@yaSSL@@QAE@XZ  00437280 f   yassl:yassl_int.obj
 0001:000362c0       ??_GSessions@yaSSL@@QAEPAXI@Z 004372c0 f i yassl:yassl_int.obj
 0001:000362e0       ??$ysDelete@VSessions@yaSSL@@@yaSSL@@YAXPAVSessions@0@@Z 004372e0 f i yassl:yassl_int.obj
 0001:00036300       _yayaSSL_CleanUp           00437300 f   yassl:yassl_int.obj
 0001:00036340       ??1Digest@yaSSL@@UAE@XZ    00437340 f i yassl:crypto_wrapper.obj
 0001:00036350       ??_GDigest@yaSSL@@UAEPAXI@Z 00437350 f i yassl:crypto_wrapper.obj
 0001:00036350       ??_EDigest@yaSSL@@UAEPAXI@Z 00437350 f i yassl:crypto_wrapper.obj
 0001:00036370       ??1BulkCipher@yaSSL@@UAE@XZ 00437370 f i yassl:crypto_wrapper.obj
 0001:00036380       ??_GBulkCipher@yaSSL@@UAEPAXI@Z 00437380 f i yassl:crypto_wrapper.obj
 0001:00036380       ??_EBulkCipher@yaSSL@@UAEPAXI@Z 00437380 f i yassl:crypto_wrapper.obj
 0001:000363a0       ??1Auth@yaSSL@@UAE@XZ      004373a0 f i yassl:crypto_wrapper.obj
 0001:000363b0       ??_GAuth@yaSSL@@UAEPAXI@Z  004373b0 f i yassl:crypto_wrapper.obj
 0001:000363b0       ??_EAuth@yaSSL@@UAEPAXI@Z  004373b0 f i yassl:crypto_wrapper.obj
 0001:000363d0       ?BitsToBytes@TaoCrypt@@YAII@Z 004373d0 f i yassl:crypto_wrapper.obj
 0001:000363e0       ?What@Error@TaoCrypt@@QBE?AW4ErrorNumber@2@XZ 004373e0 f i yassl:crypto_wrapper.obj
 0001:000363f0       ??0SHA@TaoCrypt@@QAE@XZ    004373f0 f i yassl:crypto_wrapper.obj
 0001:00036410       ?getByteOrder@SHA@TaoCrypt@@UBE?AW4ByteOrder@2@XZ 00437410 f i yassl:crypto_wrapper.obj
 0001:00036420       ?getBlockSize@SHA@TaoCrypt@@UBEIXZ 00437420 f i yassl:crypto_wrapper.obj
 0001:00036430       ?getDigestSize@SHA@TaoCrypt@@UBEIXZ 00437430 f i yassl:crypto_wrapper.obj
 0001:00036440       ?getPadSize@SHA@TaoCrypt@@UBEIXZ 00437440 f i yassl:crypto_wrapper.obj
 0001:00036450       ??1SHA@TaoCrypt@@UAE@XZ    00437450 f i yassl:crypto_wrapper.obj
 0001:00036460       ??0RIPEMD160@TaoCrypt@@QAE@XZ 00437460 f i yassl:crypto_wrapper.obj
 0001:00036480       ?getByteOrder@RIPEMD160@TaoCrypt@@UBE?AW4ByteOrder@2@XZ 00437480 f i yassl:crypto_wrapper.obj
 0001:00036490       ?getBlockSize@RIPEMD160@TaoCrypt@@UBEIXZ 00437490 f i yassl:crypto_wrapper.obj
 0001:000364a0       ?getDigestSize@RIPEMD160@TaoCrypt@@UBEIXZ 004374a0 f i yassl:crypto_wrapper.obj
 0001:000364b0       ?getPadSize@RIPEMD160@TaoCrypt@@UBEIXZ 004374b0 f i yassl:crypto_wrapper.obj
 0001:000364c0       ??1RIPEMD160@TaoCrypt@@UAE@XZ 004374c0 f i yassl:crypto_wrapper.obj
 0001:000364d0       ??0Mode_BASE@TaoCrypt@@QAE@HW4CipherDir@1@W4Mode@1@@Z 004374d0 f i yassl:crypto_wrapper.obj
 0001:00036500       ??1Mode_BASE@TaoCrypt@@UAE@XZ 00437500 f i yassl:crypto_wrapper.obj
 0001:00036510       ?SetIV@Mode_BASE@TaoCrypt@@QAEXPBE@Z 00437510 f i yassl:crypto_wrapper.obj
 0001:00036530       ??_GMode_BASE@TaoCrypt@@UAEPAXI@Z 00437530 f i yassl:crypto_wrapper.obj
 0001:00036530       ??_EMode_BASE@TaoCrypt@@UAEPAXI@Z 00437530 f i yassl:crypto_wrapper.obj
 0001:00036550       ?ECB_Process@Mode_BASE@TaoCrypt@@IAEXPAEPBEI@Z 00437550 f i yassl:crypto_wrapper.obj
 0001:000365a0       ?CBC_Encrypt@Mode_BASE@TaoCrypt@@IAEXPAEPBEI@Z 004375a0 f i yassl:crypto_wrapper.obj
 0001:00036610       ?CBC_Decrypt@Mode_BASE@TaoCrypt@@IAEXPAEPBEI@Z 00437610 f i yassl:crypto_wrapper.obj
 0001:000366d0       ??0DES@TaoCrypt@@QAE@W4CipherDir@1@W4Mode@1@@Z 004376d0 f i yassl:crypto_wrapper.obj
 0001:00036700       ??1DES@TaoCrypt@@UAE@XZ    00437700 f i yassl:crypto_wrapper.obj
 0001:00036710       ??0DES_EDE3@TaoCrypt@@QAE@W4CipherDir@1@W4Mode@1@@Z 00437710 f i yassl:crypto_wrapper.obj
 0001:00036740       ?SetIV@DES_EDE3@TaoCrypt@@QAEXPBE@Z 00437740 f i yassl:crypto_wrapper.obj
 0001:00036760       ??1DES_EDE3@TaoCrypt@@UAE@XZ 00437760 f i yassl:crypto_wrapper.obj
 0001:00036770       ??0ARC4@TaoCrypt@@QAE@XZ   00437770 f i yassl:crypto_wrapper.obj
 0001:00036780       ??0AES@TaoCrypt@@QAE@W4CipherDir@1@W4Mode@1@@Z 00437780 f i yassl:crypto_wrapper.obj
 0001:000367b0       ?SetIV@AES@TaoCrypt@@QAEXPBE@Z 004377b0 f i yassl:crypto_wrapper.obj
 0001:000367d0       ??1AES@TaoCrypt@@UAE@XZ    004377d0 f i yassl:crypto_wrapper.obj
 0001:000367e0       ?GetError@OS_Seed@TaoCrypt@@QBE?AUError@2@XZ 004377e0 f i yassl:crypto_wrapper.obj
 0001:000367f0       ??1RandomNumberGenerator@TaoCrypt@@QAE@XZ 004377f0 f i yassl:crypto_wrapper.obj
 0001:00036800       ?GetError@RandomNumberGenerator@TaoCrypt@@QBE?AW4ErrorNumber@2@XZ 00437800 f i yassl:crypto_wrapper.obj
 0001:00036810       ?Ref@Integer@TaoCrypt@@QAEAAV12@XZ 00437810 f i yassl:crypto_wrapper.obj
 0001:00036820       ??0PK_Lengths@TaoCrypt@@QAE@ABVInteger@1@@Z 00437820 f i yassl:crypto_wrapper.obj
 0001:00036830       ?PaddedBlockBitLength@PK_Lengths@TaoCrypt@@QBEIXZ 00437830 f i yassl:crypto_wrapper.obj
 0001:00036840       ?PaddedBlockByteLength@PK_Lengths@TaoCrypt@@QBEIXZ 00437840 f i yassl:crypto_wrapper.obj
 0001:00036850       ?FixedCiphertextLength@PK_Lengths@TaoCrypt@@QBEIXZ 00437850 f i yassl:crypto_wrapper.obj
 0001:00036860       ?Initialize@RSA_PublicKey@TaoCrypt@@QAEXABVInteger@2@0@Z 00437860 f i yassl:crypto_wrapper.obj
 0001:00036880       ?GetModulus@RSA_PublicKey@TaoCrypt@@QBEABVInteger@2@XZ 00437880 f i yassl:crypto_wrapper.obj
 0001:00036890       ?FixedCiphertextLength@RSA_PublicKey@TaoCrypt@@QAEIXZ 00437890 f i yassl:crypto_wrapper.obj
 0001:000368a0       ?Swap@RSA_PublicKey@TaoCrypt@@QAEXAAV12@@Z 004378a0 f i yassl:crypto_wrapper.obj
 0001:000368c0       ?GetPrivateExponent@RSA_PrivateKey@TaoCrypt@@QBEABVInteger@2@XZ 004378c0 f i yassl:crypto_wrapper.obj
 0001:000368d0       ?Swap@DH@TaoCrypt@@QAEXAAV12@@Z 004378d0 f i yassl:crypto_wrapper.obj
 0001:000368f0       ?SetP@DH@TaoCrypt@@QAEXABVInteger@2@@Z 004378f0 f i yassl:crypto_wrapper.obj
 0001:00036900       ?SetG@DH@TaoCrypt@@QAEXABVInteger@2@@Z 00437900 f i yassl:crypto_wrapper.obj
 0001:00036910       ?GetP@DH@TaoCrypt@@QAEAAVInteger@2@XZ 00437910 f i yassl:crypto_wrapper.obj
 0001:00036920       ?GetG@DH@TaoCrypt@@QAEAAVInteger@2@XZ 00437920 f i yassl:crypto_wrapper.obj
 0001:00036930       ?GetByteLength@DH@TaoCrypt@@QBEIXZ 00437930 f i yassl:crypto_wrapper.obj
 0001:00036940       ??0MD5Impl@MD5@yaSSL@@QAE@XZ 00437940 f i yassl:crypto_wrapper.obj
 0001:00036960       ??0MD5Impl@MD5@yaSSL@@QAE@ABV1TaoCrypt@@@Z 00437960 f i yassl:crypto_wrapper.obj
 0001:00036980       ??0Digest@yaSSL@@QAE@XZ    00437980 f i yassl:crypto_wrapper.obj
 0001:00036990       ??0MD5@yaSSL@@QAE@ABV01@@Z 00437990 f   yassl:crypto_wrapper.obj
 0001:000369d0       ??4MD5@yaSSL@@QAEAAV01@ABV01@@Z 004379d0 f   yassl:crypto_wrapper.obj
 0001:000369f0       ?get_digestSize@MD5@yaSSL@@UBEIXZ 004379f0 f   yassl:crypto_wrapper.obj
 0001:00036a00       ?get_padSize@MD5@yaSSL@@UBEIXZ 00437a00 f   yassl:crypto_wrapper.obj
 0001:00036a10       ?get_digest@MD5@yaSSL@@UAEXPAEPBEI@Z 00437a10 f   yassl:crypto_wrapper.obj
 0001:00036a40       ?get_digest@MD5@yaSSL@@UAEXPAE@Z 00437a40 f   yassl:crypto_wrapper.obj
 0001:00036a50       ?update@MD5@yaSSL@@UAEXPBEI@Z 00437a50 f   yassl:crypto_wrapper.obj
 0001:00036a60       ??0SHAImpl@SHA@yaSSL@@QAE@XZ 00437a60 f i yassl:crypto_wrapper.obj
 0001:00036a80       ??0SHAImpl@SHA@yaSSL@@QAE@ABV1TaoCrypt@@@Z 00437a80 f i yassl:crypto_wrapper.obj
 0001:00036aa0       ??0SHA@yaSSL@@QAE@XZ       00437aa0 f   yassl:crypto_wrapper.obj
 0001:00036af0       ??0SHA@yaSSL@@QAE@ABV01@@Z 00437af0 f   yassl:crypto_wrapper.obj
 0001:00036b30       ??4SHA@yaSSL@@QAEAAV01@ABV01@@Z 00437b30 f   yassl:crypto_wrapper.obj
 0001:00036b50       ?get_digestSize@SHA@yaSSL@@UBEIXZ 00437b50 f   yassl:crypto_wrapper.obj
 0001:00036b60       ?get_padSize@SHA@yaSSL@@UBEIXZ 00437b60 f   yassl:crypto_wrapper.obj
 0001:00036b70       ?get_digest@SHA@yaSSL@@UAEXPAEPBEI@Z 00437b70 f   yassl:crypto_wrapper.obj
 0001:00036ba0       ?get_digest@SHA@yaSSL@@UAEXPAE@Z 00437ba0 f   yassl:crypto_wrapper.obj
 0001:00036bb0       ?update@SHA@yaSSL@@UAEXPBEI@Z 00437bb0 f   yassl:crypto_wrapper.obj
 0001:00036bc0       ??0RMDImpl@RMD@yaSSL@@QAE@XZ 00437bc0 f i yassl:crypto_wrapper.obj
 0001:00036be0       ??0RMDImpl@RMD@yaSSL@@QAE@ABVRIPEMD160@TaoCrypt@@@Z 00437be0 f i yassl:crypto_wrapper.obj
 0001:00036c00       ??0RMD@yaSSL@@QAE@XZ       00437c00 f   yassl:crypto_wrapper.obj
 0001:00036c50       ??0RMD@yaSSL@@QAE@ABV01@@Z 00437c50 f   yassl:crypto_wrapper.obj
 0001:00036c90       ??4RMD@yaSSL@@QAEAAV01@ABV01@@Z 00437c90 f   yassl:crypto_wrapper.obj
 0001:00036cb0       ?get_digestSize@RMD@yaSSL@@UBEIXZ 00437cb0 f   yassl:crypto_wrapper.obj
 0001:00036cc0       ?get_padSize@RMD@yaSSL@@UBEIXZ 00437cc0 f   yassl:crypto_wrapper.obj
 0001:00036cd0       ?get_digest@RMD@yaSSL@@UAEXPAEPBEI@Z 00437cd0 f   yassl:crypto_wrapper.obj
 0001:00036d00       ?get_digest@RMD@yaSSL@@UAEXPAE@Z 00437d00 f   yassl:crypto_wrapper.obj
 0001:00036d10       ?update@RMD@yaSSL@@UAEXPBEI@Z 00437d10 f   yassl:crypto_wrapper.obj
 0001:00036d20       ??1?$HMAC@VMD5@TaoCrypt@@@TaoCrypt@@QAE@XZ 00437d20 f i yassl:crypto_wrapper.obj
 0001:00036d30       ?get_digestSize@HMAC_MD5@yaSSL@@UBEIXZ 00437d30 f   yassl:crypto_wrapper.obj
 0001:00036d40       ?get_padSize@HMAC_MD5@yaSSL@@UBEIXZ 00437d40 f   yassl:crypto_wrapper.obj
 0001:00036d50       ??1?$HMAC@VSHA@TaoCrypt@@@TaoCrypt@@QAE@XZ 00437d50 f i yassl:crypto_wrapper.obj
 0001:00036d60       ?get_digestSize@HMAC_SHA@yaSSL@@UBEIXZ 00437d60 f   yassl:crypto_wrapper.obj
 0001:00036d70       ?get_padSize@HMAC_SHA@yaSSL@@UBEIXZ 00437d70 f   yassl:crypto_wrapper.obj
 0001:00036d80       ??1?$HMAC@VRIPEMD160@TaoCrypt@@@TaoCrypt@@QAE@XZ 00437d80 f i yassl:crypto_wrapper.obj
 0001:00036d90       ?get_digestSize@HMAC_RMD@yaSSL@@UBEIXZ 00437d90 f   yassl:crypto_wrapper.obj
 0001:00036da0       ?get_padSize@HMAC_RMD@yaSSL@@UBEIXZ 00437da0 f   yassl:crypto_wrapper.obj
 0001:00036db0       ??0BulkCipher@yaSSL@@QAE@XZ 00437db0 f i yassl:crypto_wrapper.obj
 0001:00036dc0       ??1?$BlockCipher@$0A@VDES@TaoCrypt@@$00@TaoCrypt@@QAE@XZ 00437dc0 f i yassl:crypto_wrapper.obj
 0001:00036dd0       ??1?$BlockCipher@$00VDES@TaoCrypt@@$00@TaoCrypt@@QAE@XZ 00437dd0 f i yassl:crypto_wrapper.obj
 0001:00036de0       ??1?$BlockCipher@$0A@VDES_EDE3@TaoCrypt@@$00@TaoCrypt@@QAE@XZ 00437de0 f i yassl:crypto_wrapper.obj
 0001:00036df0       ??1?$BlockCipher@$00VDES_EDE3@TaoCrypt@@$00@TaoCrypt@@QAE@XZ 00437df0 f i yassl:crypto_wrapper.obj
 0001:00036e00       ??0RC4Impl@RC4@yaSSL@@QAE@XZ 00437e00 f i yassl:crypto_wrapper.obj
 0001:00036e10       ?set_encryptKey@RC4@yaSSL@@UAEXPBE0@Z 00437e10 f   yassl:crypto_wrapper.obj
 0001:00036e20       ?set_decryptKey@RC4@yaSSL@@UAEXPBE0@Z 00437e20 f   yassl:crypto_wrapper.obj
 0001:00036e40       ?encrypt@RC4@yaSSL@@UAEXPAEPBEI@Z 00437e40 f   yassl:crypto_wrapper.obj
 0001:00036e50       ?decrypt@RC4@yaSSL@@UAEXPAEPBEI@Z 00437e50 f   yassl:crypto_wrapper.obj
 0001:00036e60       ??1?$BlockCipher@$0A@VAES@TaoCrypt@@$00@TaoCrypt@@QAE@XZ 00437e60 f i yassl:crypto_wrapper.obj
 0001:00036e70       ??1?$BlockCipher@$00VAES@TaoCrypt@@$00@TaoCrypt@@QAE@XZ 00437e70 f i yassl:crypto_wrapper.obj
 0001:00036e80       ?get_keySize@AES@yaSSL@@UBEHXZ 00437e80 f   yassl:crypto_wrapper.obj
 0001:00036e90       ??0RandomImpl@RandomPool@yaSSL@@QAE@XZ 00437e90 f i yassl:crypto_wrapper.obj
 0001:00036ea0       ?GetError@RandomPool@yaSSL@@QBEHXZ 00437ea0 f   yassl:crypto_wrapper.obj
 0001:00036eb0       ?Fill@RandomPool@yaSSL@@QBEXPAEI@Z 00437eb0 f   yassl:crypto_wrapper.obj
 0001:00036ec0       ??0Auth@yaSSL@@QAE@XZ      00437ec0 f i yassl:crypto_wrapper.obj
 0001:00036ed0       ?get_signatureLength@DSS@yaSSL@@UBEIXZ 00437ed0 f   yassl:crypto_wrapper.obj
 0001:00036ee0       ?get_cipherLength@RSA@yaSSL@@QBEIXZ 00437ee0 f   yassl:crypto_wrapper.obj
 0001:00036ef0       ?get_signatureLength@RSA@yaSSL@@UBEIXZ 00437ef0 f   yassl:crypto_wrapper.obj
 0001:00036f00       ??4Integer@yaSSL@@QAEAAV01@ABV01@@Z 00437f00 f   yassl:crypto_wrapper.obj
 0001:00036f20       ?AllocKeys@DHImpl@DiffieHellman@yaSSL@@QAEXIII@Z 00437f20 f i yassl:crypto_wrapper.obj
 0001:00036f60       ?makeAgreement@DiffieHellman@yaSSL@@QAEXPBEI@Z 00437f60 f   yassl:crypto_wrapper.obj
 0001:00036f80       ?get_agreedKeyLength@DiffieHellman@yaSSL@@QBEIXZ 00437f80 f   yassl:crypto_wrapper.obj
 0001:00036f90       ?get_agreedKey@DiffieHellman@yaSSL@@QBEPBEXZ 00437f90 f   yassl:crypto_wrapper.obj
 0001:00036fa0       ?get_publicKey@DiffieHellman@yaSSL@@QBEPBEXZ 00437fa0 f   yassl:crypto_wrapper.obj
 0001:00036fb0       ??1?$Block@IV?$AlignedAllocator@I@TaoCrypt@@@TaoCrypt@@QAE@XZ 00437fb0 f i yassl:crypto_wrapper.obj
 0001:00036fc0       ??0?$BlockCipher@$0A@VDES@TaoCrypt@@$00@TaoCrypt@@QAE@XZ 00437fc0 f i yassl:crypto_wrapper.obj
 0001:00036ff0       ?Process@?$BlockCipher@$0A@VDES@TaoCrypt@@$00@TaoCrypt@@QAEXPAEPBEI@Z 00437ff0 f i yassl:crypto_wrapper.obj
 0001:00037000       ?SetKey@?$BlockCipher@$0A@VDES@TaoCrypt@@$00@TaoCrypt@@QAEXPBEI0@Z 00438000 f i yassl:crypto_wrapper.obj
 0001:00037030       ??0?$BlockCipher@$00VDES@TaoCrypt@@$00@TaoCrypt@@QAE@XZ 00438030 f i yassl:crypto_wrapper.obj
 0001:00037060       ?Process@?$BlockCipher@$00VDES@TaoCrypt@@$00@TaoCrypt@@QAEXPAEPBEI@Z 00438060 f i yassl:crypto_wrapper.obj
 0001:00037070       ?SetKey@?$BlockCipher@$00VDES@TaoCrypt@@$00@TaoCrypt@@QAEXPBEI0@Z 00438070 f i yassl:crypto_wrapper.obj
 0001:000370a0       ??0?$BlockCipher@$0A@VDES_EDE3@TaoCrypt@@$00@TaoCrypt@@QAE@XZ 004380a0 f i yassl:crypto_wrapper.obj
 0001:000370d0       ?Process@?$BlockCipher@$0A@VDES_EDE3@TaoCrypt@@$00@TaoCrypt@@QAEXPAEPBEI@Z 004380d0 f i yassl:crypto_wrapper.obj
 0001:000370e0       ?SetKey@?$BlockCipher@$0A@VDES_EDE3@TaoCrypt@@$00@TaoCrypt@@QAEXPBEI0@Z 004380e0 f i yassl:crypto_wrapper.obj
 0001:00037110       ??0?$BlockCipher@$00VDES_EDE3@TaoCrypt@@$00@TaoCrypt@@QAE@XZ 00438110 f i yassl:crypto_wrapper.obj
 0001:00037140       ?Process@?$BlockCipher@$00VDES_EDE3@TaoCrypt@@$00@TaoCrypt@@QAEXPAEPBEI@Z 00438140 f i yassl:crypto_wrapper.obj
 0001:00037150       ?SetKey@?$BlockCipher@$00VDES_EDE3@TaoCrypt@@$00@TaoCrypt@@QAEXPBEI0@Z 00438150 f i yassl:crypto_wrapper.obj
 0001:00037180       ??0?$BlockCipher@$0A@VAES@TaoCrypt@@$00@TaoCrypt@@QAE@XZ 00438180 f i yassl:crypto_wrapper.obj
 0001:000371b0       ?Process@?$BlockCipher@$0A@VAES@TaoCrypt@@$00@TaoCrypt@@QAEXPAEPBEI@Z 004381b0 f i yassl:crypto_wrapper.obj
 0001:000371c0       ?SetKey@?$BlockCipher@$0A@VAES@TaoCrypt@@$00@TaoCrypt@@QAEXPBEI0@Z 004381c0 f i yassl:crypto_wrapper.obj
 0001:00037200       ??0?$BlockCipher@$00VAES@TaoCrypt@@$00@TaoCrypt@@QAE@XZ 00438200 f i yassl:crypto_wrapper.obj
 0001:00037230       ?Process@?$BlockCipher@$00VAES@TaoCrypt@@$00@TaoCrypt@@QAEXPAEPBEI@Z 00438230 f i yassl:crypto_wrapper.obj
 0001:00037240       ?SetKey@?$BlockCipher@$00VAES@TaoCrypt@@$00@TaoCrypt@@QAEXPBEI0@Z 00438240 f i yassl:crypto_wrapper.obj
 0001:00037280       ??0?$RSA_Decryptor@VRSA_BlockType2@TaoCrypt@@@TaoCrypt@@QAE@ABVRSA_PrivateKey@1@@Z 00438280 f i yassl:crypto_wrapper.obj
 0001:00037290       ??0?$RSA_Encryptor@VRSA_BlockType2@TaoCrypt@@@TaoCrypt@@QAE@ABVRSA_PublicKey@1@@Z 00438290 f i yassl:crypto_wrapper.obj
 0001:000372a0       ??$SaturatingSubtract@II@TaoCrypt@@YAIII@Z 004382a0 f i yassl:crypto_wrapper.obj
 0001:000372c0       ?Init@?$HMAC@VMD5@TaoCrypt@@@TaoCrypt@@QAEXXZ 004382c0 f i yassl:crypto_wrapper.obj
 0001:000372e0       ?SetKey@?$HMAC@VMD5@TaoCrypt@@@TaoCrypt@@QAEXPBEI@Z 004382e0 f i yassl:crypto_wrapper.obj
 0001:000373c0       ?Init@?$HMAC@VSHA@TaoCrypt@@@TaoCrypt@@QAEXXZ 004383c0 f i yassl:crypto_wrapper.obj
 0001:000373e0       ?SetKey@?$HMAC@VSHA@TaoCrypt@@@TaoCrypt@@QAEXPBEI@Z 004383e0 f i yassl:crypto_wrapper.obj
 0001:000374c0       ?Init@?$HMAC@VRIPEMD160@TaoCrypt@@@TaoCrypt@@QAEXXZ 004384c0 f i yassl:crypto_wrapper.obj
 0001:000374e0       ?SetKey@?$HMAC@VRIPEMD160@TaoCrypt@@@TaoCrypt@@QAEXPBEI@Z 004384e0 f i yassl:crypto_wrapper.obj
 0001:000375c0       ??$ysDelete@URC4Impl@RC4@yaSSL@@@yaSSL@@YAXPAURC4Impl@RC4@0@@Z 004385c0 f i yassl:crypto_wrapper.obj
 0001:000375d0       ??1MD5Impl@MD5@yaSSL@@QAE@XZ 004385d0 f i yassl:crypto_wrapper.obj
 0001:000375e0       ??1SHAImpl@SHA@yaSSL@@QAE@XZ 004385e0 f i yassl:crypto_wrapper.obj
 0001:000375f0       ??1RMDImpl@RMD@yaSSL@@QAE@XZ 004385f0 f i yassl:crypto_wrapper.obj
 0001:00037600       ??1HMAC_MD5Impl@HMAC_MD5@yaSSL@@QAE@XZ 00438600 f i yassl:crypto_wrapper.obj
 0001:00037610       ??1HMAC_SHAImpl@HMAC_SHA@yaSSL@@QAE@XZ 00438610 f i yassl:crypto_wrapper.obj
 0001:00037620       ??1HMAC_RMDImpl@HMAC_RMD@yaSSL@@QAE@XZ 00438620 f i yassl:crypto_wrapper.obj
 0001:00037630       ??1DESImpl@DES@yaSSL@@QAE@XZ 00438630 f i yassl:crypto_wrapper.obj
 0001:00037650       ??1DES_EDEImpl@DES_EDE@yaSSL@@QAE@XZ 00438650 f i yassl:crypto_wrapper.obj
 0001:00037670       ??1AESImpl@AES@yaSSL@@QAE@XZ 00438670 f i yassl:crypto_wrapper.obj
 0001:00037690       ??1RandomImpl@RandomPool@yaSSL@@QAE@XZ 00438690 f i yassl:crypto_wrapper.obj
 0001:000376a0       ??0?$RSA_Encryptor@VRSA_BlockType1@TaoCrypt@@@TaoCrypt@@QAE@ABVRSA_PublicKey@1@@Z 004386a0 f i yassl:crypto_wrapper.obj
 0001:000376b0       ?KeyInnerHash@?$HMAC@VMD5@TaoCrypt@@@TaoCrypt@@AAEXXZ 004386b0 f i yassl:crypto_wrapper.obj
 0001:000376d0       ?KeyInnerHash@?$HMAC@VSHA@TaoCrypt@@@TaoCrypt@@AAEXXZ 004386d0 f i yassl:crypto_wrapper.obj
 0001:000376f0       ?KeyInnerHash@?$HMAC@VRIPEMD160@TaoCrypt@@@TaoCrypt@@AAEXXZ 004386f0 f i yassl:crypto_wrapper.obj
 0001:00037710       ??_GSHA@TaoCrypt@@UAEPAXI@Z 00438710 f i yassl:crypto_wrapper.obj
 0001:00037710       ??_ESHA@TaoCrypt@@UAEPAXI@Z 00438710 f i yassl:crypto_wrapper.obj
 0001:00037730       ??_ERIPEMD160@TaoCrypt@@UAEPAXI@Z 00438730 f i yassl:crypto_wrapper.obj
 0001:00037730       ??_GRIPEMD160@TaoCrypt@@UAEPAXI@Z 00438730 f i yassl:crypto_wrapper.obj
 0001:00037750       ?Process@Mode_BASE@TaoCrypt@@UAEXPAEPBEI@Z 00438750 f i yassl:crypto_wrapper.obj
 0001:00037780       ??_EDES@TaoCrypt@@UAEPAXI@Z 00438780 f i yassl:crypto_wrapper.obj
 0001:00037780       ??_GDES@TaoCrypt@@UAEPAXI@Z 00438780 f i yassl:crypto_wrapper.obj
 0001:000377a0       ??_GDES_EDE3@TaoCrypt@@UAEPAXI@Z 004387a0 f i yassl:crypto_wrapper.obj
 0001:000377a0       ??_EDES_EDE3@TaoCrypt@@UAEPAXI@Z 004387a0 f i yassl:crypto_wrapper.obj
 0001:000377c0       ??_GAES@TaoCrypt@@UAEPAXI@Z 004387c0 f i yassl:crypto_wrapper.obj
 0001:000377c0       ??_EAES@TaoCrypt@@UAEPAXI@Z 004387c0 f i yassl:crypto_wrapper.obj
 0001:000377e0       ??1Integer@TaoCrypt@@QAE@XZ 004387e0 f i yassl:crypto_wrapper.obj
 0001:000377f0       ?FixedMaxPlaintextLength@PK_Lengths@TaoCrypt@@QBEIXZ 004387f0 f i yassl:crypto_wrapper.obj
 0001:00037810       ??0RSA_PublicKey@TaoCrypt@@QAE@XZ 00438810 f i yassl:crypto_wrapper.obj
 0001:00037830       ??0RSA_PublicKey@TaoCrypt@@QAE@ABV01@@Z 00438830 f i yassl:crypto_wrapper.obj
 0001:00037860       ??1RSA_PublicKey@TaoCrypt@@QAE@XZ 00438860 f i yassl:crypto_wrapper.obj
 0001:00037890       ??0RSA_PrivateKey@TaoCrypt@@QAE@XZ 00438890 f i yassl:crypto_wrapper.obj
 0001:000378e0       ??0DSA_PublicKey@TaoCrypt@@QAE@XZ 004388e0 f i yassl:crypto_wrapper.obj
 0001:00037910       ??1DSA_PublicKey@TaoCrypt@@QAE@XZ 00438910 f i yassl:crypto_wrapper.obj
 0001:00037960       ??0DH@TaoCrypt@@QAE@XZ     00438960 f i yassl:crypto_wrapper.obj
 0001:00037980       ??0DH@TaoCrypt@@QAE@ABV01@@Z 00438980 f i yassl:crypto_wrapper.obj
 0001:000379b0       ?Initialize@DH@TaoCrypt@@QAEXAAVInteger@2@0@Z 004389b0 f i yassl:crypto_wrapper.obj
 0001:000379d0       ??1DH@TaoCrypt@@QAE@XZ     004389d0 f i yassl:crypto_wrapper.obj
 0001:00037a00       ??0MD5@yaSSL@@QAE@XZ       00438a00 f   yassl:crypto_wrapper.obj
 0001:00037a50       ??0DESImpl@DES@yaSSL@@QAE@XZ 00438a50 f i yassl:crypto_wrapper.obj
 0001:00037ab0       ?set_encryptKey@DES@yaSSL@@UAEXPBE0@Z 00438ab0 f   yassl:crypto_wrapper.obj
 0001:00037ae0       ?set_decryptKey@DES@yaSSL@@UAEXPBE0@Z 00438ae0 f   yassl:crypto_wrapper.obj
 0001:00037b20       ?encrypt@DES@yaSSL@@UAEXPAEPBEI@Z 00438b20 f   yassl:crypto_wrapper.obj
 0001:00037b30       ?decrypt@DES@yaSSL@@UAEXPAEPBEI@Z 00438b30 f   yassl:crypto_wrapper.obj
 0001:00037b50       ??0DES_EDEImpl@DES_EDE@yaSSL@@QAE@XZ 00438b50 f i yassl:crypto_wrapper.obj
 0001:00037bb0       ?set_encryptKey@DES_EDE@yaSSL@@UAEXPBE0@Z 00438bb0 f   yassl:crypto_wrapper.obj
 0001:00037be0       ?set_decryptKey@DES_EDE@yaSSL@@UAEXPBE0@Z 00438be0 f   yassl:crypto_wrapper.obj
 0001:00037c10       ?encrypt@DES_EDE@yaSSL@@UAEXPAEPBEI@Z 00438c10 f   yassl:crypto_wrapper.obj
 0001:00037c20       ?decrypt@DES_EDE@yaSSL@@UAEXPAEPBEI@Z 00438c20 f   yassl:crypto_wrapper.obj
 0001:00037c40       ??0RC4@yaSSL@@QAE@XZ       00438c40 f   yassl:crypto_wrapper.obj
 0001:00037c60       ?get_blockSize@RC4@yaSSL@@UBEIXZ 00438c60 f i yassl:crypto_wrapper.obj
 0001:00037c70       ?get_keySize@RC4@yaSSL@@UBEHXZ 00438c70 f i yassl:crypto_wrapper.obj
 0001:00037c80       ?get_ivSize@RC4@yaSSL@@UBEHXZ 00438c80 f i yassl:crypto_wrapper.obj
 0001:00037c90       ??1RC4@yaSSL@@UAE@XZ       00438c90 f   yassl:crypto_wrapper.obj
 0001:00037cb0       ??0AESImpl@AES@yaSSL@@QAE@I@Z 00438cb0 f i yassl:crypto_wrapper.obj
 0001:00037d20       ??0AES@yaSSL@@QAE@I@Z      00438d20 f   yassl:crypto_wrapper.obj
 0001:00037d60       ?get_blockSize@AES@yaSSL@@UBEIXZ 00438d60 f i yassl:crypto_wrapper.obj
 0001:00037d70       ?get_ivSize@AES@yaSSL@@UBEHXZ 00438d70 f i yassl:crypto_wrapper.obj
 0001:00037d80       ?set_encryptKey@AES@yaSSL@@UAEXPBE0@Z 00438d80 f   yassl:crypto_wrapper.obj
 0001:00037dc0       ?set_decryptKey@AES@yaSSL@@UAEXPBE0@Z 00438dc0 f   yassl:crypto_wrapper.obj
 0001:00037e00       ?encrypt@AES@yaSSL@@UAEXPAEPBEI@Z 00438e00 f   yassl:crypto_wrapper.obj
 0001:00037e10       ?decrypt@AES@yaSSL@@UAEXPAEPBEI@Z 00438e10 f   yassl:crypto_wrapper.obj
 0001:00037e30       ??0RandomPool@yaSSL@@QAE@XZ 00438e30 f   yassl:crypto_wrapper.obj
 0001:00037e60       ??1DSA_PrivateKey@TaoCrypt@@QAE@XZ 00438e60 f i yassl:crypto_wrapper.obj
 0001:00037ec0       ??1DSA_Signer@TaoCrypt@@QAE@XZ 00438ec0 f i yassl:crypto_wrapper.obj
 0001:00037ef0       ??1DSA_Verifier@TaoCrypt@@QAE@XZ 00438ef0 f i yassl:crypto_wrapper.obj
 0001:00037f20       ??1RSA_PrivateKey@TaoCrypt@@QAE@XZ 00438f20 f i yassl:crypto_wrapper.obj
 0001:00037fb0       ??0IntegerImpl@Integer@yaSSL@@QAE@XZ 00438fb0 f i yassl:crypto_wrapper.obj
 0001:00037fc0       ??0IntegerImpl@Integer@yaSSL@@QAE@ABV1TaoCrypt@@@Z 00438fc0 f i yassl:crypto_wrapper.obj
 0001:00037fe0       ??0Integer@yaSSL@@QAE@XZ   00438fe0 f   yassl:crypto_wrapper.obj
 0001:00038010       ??0Integer@yaSSL@@QAE@ABV01@@Z 00439010 f   yassl:crypto_wrapper.obj
 0001:00038050       ?assign@Integer@yaSSL@@QAEXPBEI@Z 00439050 f   yassl:crypto_wrapper.obj
 0001:00038090       ??0DHImpl@DiffieHellman@yaSSL@@QAE@AAVRandomNumberGenerator@TaoCrypt@@@Z 00439090 f i yassl:crypto_wrapper.obj
 0001:000380c0       ??1DHImpl@DiffieHellman@yaSSL@@QAE@XZ 004390c0 f i yassl:crypto_wrapper.obj
 0001:00038110       ??0DHImpl@DiffieHellman@yaSSL@@QAE@ABU012@@Z 00439110 f i yassl:crypto_wrapper.obj
 0001:00038170       ??0DiffieHellman@yaSSL@@QAE@PBEI0I0IABVRandomPool@1@@Z 00439170 f   yassl:crypto_wrapper.obj
 0001:00038250       ??0DiffieHellman@yaSSL@@QAE@ABVInteger@1@0ABVRandomPool@1@@Z 00439250 f   yassl:crypto_wrapper.obj
 0001:00038300       ??0DiffieHellman@yaSSL@@QAE@ABV01@@Z 00439300 f   yassl:crypto_wrapper.obj
 0001:00038340       ?set_sizes@DiffieHellman@yaSSL@@QBEXAAH00@Z 00439340 f   yassl:crypto_wrapper.obj
 0001:000383c0       ?get_parms@DiffieHellman@yaSSL@@QBEXPAE00@Z 004393c0 f   yassl:crypto_wrapper.obj
 0001:00038460       ??0?$HMAC@VMD5@TaoCrypt@@@TaoCrypt@@QAE@XZ 00439460 f i yassl:crypto_wrapper.obj
 0001:000384b0       ??0?$HMAC@VSHA@TaoCrypt@@@TaoCrypt@@QAE@XZ 004394b0 f i yassl:crypto_wrapper.obj
 0001:00038500       ??0?$HMAC@VRIPEMD160@TaoCrypt@@@TaoCrypt@@QAE@XZ 00439500 f i yassl:crypto_wrapper.obj
 0001:00038550       ?Update@?$HMAC@VMD5@TaoCrypt@@@TaoCrypt@@QAEXPBEI@Z 00439550 f i yassl:crypto_wrapper.obj
 0001:00038570       ?Final@?$HMAC@VMD5@TaoCrypt@@@TaoCrypt@@QAEXPAE@Z 00439570 f i yassl:crypto_wrapper.obj
 0001:000385d0       ?Update@?$HMAC@VSHA@TaoCrypt@@@TaoCrypt@@QAEXPBEI@Z 004395d0 f i yassl:crypto_wrapper.obj
 0001:000385f0       ?Final@?$HMAC@VSHA@TaoCrypt@@@TaoCrypt@@QAEXPAE@Z 004395f0 f i yassl:crypto_wrapper.obj
 0001:00038650       ?Update@?$HMAC@VRIPEMD160@TaoCrypt@@@TaoCrypt@@QAEXPBEI@Z 00439650 f i yassl:crypto_wrapper.obj
 0001:00038670       ?Final@?$HMAC@VRIPEMD160@TaoCrypt@@@TaoCrypt@@QAEXPAE@Z 00439670 f i yassl:crypto_wrapper.obj
 0001:000386d0       ??_GMD5Impl@MD5@yaSSL@@QAEPAXI@Z 004396d0 f i yassl:crypto_wrapper.obj
 0001:000386f0       ??_GSHAImpl@SHA@yaSSL@@QAEPAXI@Z 004396f0 f i yassl:crypto_wrapper.obj
 0001:00038710       ??_GRMDImpl@RMD@yaSSL@@QAEPAXI@Z 00439710 f i yassl:crypto_wrapper.obj
 0001:00038730       ??_GHMAC_MD5Impl@HMAC_MD5@yaSSL@@QAEPAXI@Z 00439730 f i yassl:crypto_wrapper.obj
 0001:00038750       ??_GHMAC_SHAImpl@HMAC_SHA@yaSSL@@QAEPAXI@Z 00439750 f i yassl:crypto_wrapper.obj
 0001:00038770       ??_GHMAC_RMDImpl@HMAC_RMD@yaSSL@@QAEPAXI@Z 00439770 f i yassl:crypto_wrapper.obj
 0001:00038790       ??_GDESImpl@DES@yaSSL@@QAEPAXI@Z 00439790 f i yassl:crypto_wrapper.obj
 0001:000387c0       ??_GDES_EDEImpl@DES_EDE@yaSSL@@QAEPAXI@Z 004397c0 f i yassl:crypto_wrapper.obj
 0001:000387f0       ??_GAESImpl@AES@yaSSL@@QAEPAXI@Z 004397f0 f i yassl:crypto_wrapper.obj
 0001:00038820       ??_GRandomImpl@RandomPool@yaSSL@@QAEPAXI@Z 00439820 f i yassl:crypto_wrapper.obj
 0001:00038840       ??_GDHImpl@DiffieHellman@yaSSL@@QAEPAXI@Z 00439840 f i yassl:crypto_wrapper.obj
 0001:000388a0       ??1DSSImpl@DSS@yaSSL@@QAE@XZ 004398a0 f i yassl:crypto_wrapper.obj
 0001:000388f0       ??1RSAImpl@RSA@yaSSL@@QAE@XZ 004398f0 f i yassl:crypto_wrapper.obj
 0001:00038920       ??1IntegerImpl@Integer@yaSSL@@QAE@XZ 00439920 f i yassl:crypto_wrapper.obj
 0001:00038930       ??4RSA_PublicKey@TaoCrypt@@QAEAAV01@ABV01@@Z 00439930 f i yassl:crypto_wrapper.obj
 0001:000389a0       ??0DSA_PrivateKey@TaoCrypt@@QAE@XZ 004399a0 f i yassl:crypto_wrapper.obj
 0001:000389d0       ??4DH@TaoCrypt@@QAEAAV01@ABV01@@Z 004399d0 f i yassl:crypto_wrapper.obj
 0001:00038a40       ??0HMAC_MD5Impl@HMAC_MD5@yaSSL@@QAE@XZ 00439a40 f i yassl:crypto_wrapper.obj
 0001:00038a90       ??0HMAC_MD5@yaSSL@@QAE@PBEI@Z 00439a90 f   yassl:crypto_wrapper.obj
 0001:00038ad0       ?get_digest@HMAC_MD5@yaSSL@@UAEXPAEPBEI@Z 00439ad0 f   yassl:crypto_wrapper.obj
 0001:00038b00       ?get_digest@HMAC_MD5@yaSSL@@UAEXPAE@Z 00439b00 f   yassl:crypto_wrapper.obj
 0001:00038b10       ?update@HMAC_MD5@yaSSL@@UAEXPBEI@Z 00439b10 f   yassl:crypto_wrapper.obj
 0001:00038b20       ??0HMAC_SHAImpl@HMAC_SHA@yaSSL@@QAE@XZ 00439b20 f i yassl:crypto_wrapper.obj
 0001:00038b70       ??0HMAC_SHA@yaSSL@@QAE@PBEI@Z 00439b70 f   yassl:crypto_wrapper.obj
 0001:00038bb0       ?get_digest@HMAC_SHA@yaSSL@@UAEXPAEPBEI@Z 00439bb0 f   yassl:crypto_wrapper.obj
 0001:00038be0       ?get_digest@HMAC_SHA@yaSSL@@UAEXPAE@Z 00439be0 f   yassl:crypto_wrapper.obj
 0001:00038bf0       ?update@HMAC_SHA@yaSSL@@UAEXPBEI@Z 00439bf0 f   yassl:crypto_wrapper.obj
 0001:00038c00       ??0HMAC_RMDImpl@HMAC_RMD@yaSSL@@QAE@XZ 00439c00 f i yassl:crypto_wrapper.obj
 0001:00038c50       ??0HMAC_RMD@yaSSL@@QAE@PBEI@Z 00439c50 f   yassl:crypto_wrapper.obj
 0001:00038c90       ?get_digest@HMAC_RMD@yaSSL@@UAEXPAEPBEI@Z 00439c90 f   yassl:crypto_wrapper.obj
 0001:00038cc0       ?get_digest@HMAC_RMD@yaSSL@@UAEXPAE@Z 00439cc0 f   yassl:crypto_wrapper.obj
 0001:00038cd0       ?update@HMAC_RMD@yaSSL@@UAEXPBEI@Z 00439cd0 f   yassl:crypto_wrapper.obj
 0001:00038ce0       ??0DES@yaSSL@@QAE@XZ       00439ce0 f   yassl:crypto_wrapper.obj
 0001:00038d20       ?get_blockSize@DES@yaSSL@@UBEIXZ 00439d20 f i yassl:crypto_wrapper.obj
 0001:00038d30       ?get_keySize@DES@yaSSL@@UBEHXZ 00439d30 f i yassl:crypto_wrapper.obj
 0001:00038d40       ?get_ivSize@DES@yaSSL@@UBEHXZ 00439d40 f i yassl:crypto_wrapper.obj
 0001:00038d50       ??0DES_EDE@yaSSL@@QAE@XZ   00439d50 f   yassl:crypto_wrapper.obj
 0001:00038d90       ?get_blockSize@DES_EDE@yaSSL@@UBEIXZ 00439d90 f i yassl:crypto_wrapper.obj
 0001:00038da0       ?get_keySize@DES_EDE@yaSSL@@UBEHXZ 00439da0 f i yassl:crypto_wrapper.obj
 0001:00038db0       ?get_ivSize@DES_EDE@yaSSL@@UBEHXZ 00439db0 f i yassl:crypto_wrapper.obj
 0001:00038dc0       ??_ERC4@yaSSL@@UAEPAXI@Z   00439dc0 f i yassl:crypto_wrapper.obj
 0001:00038dc0       ??_GRC4@yaSSL@@UAEPAXI@Z   00439dc0 f i yassl:crypto_wrapper.obj
 0001:00038de0       ??0DSSImpl@DSS@yaSSL@@QAE@XZ 00439de0 f i yassl:crypto_wrapper.obj
 0001:00038e30       ?sign@DSS@yaSSL@@UAEXPAEPBEIABVRandomPool@2@@Z 00439e30 f   yassl:crypto_wrapper.obj
 0001:00038e90       ?verify@DSS@yaSSL@@UAE_NPBEI0I@Z 00439e90 f   yassl:crypto_wrapper.obj
 0001:00038ef0       ??0RSAImpl@RSA@yaSSL@@QAE@XZ 00439ef0 f i yassl:crypto_wrapper.obj
 0001:00038f50       ??4DiffieHellman@yaSSL@@QAEAAV01@ABV01@@Z 00439f50 f   yassl:crypto_wrapper.obj
 0001:00038f80       ??$ysDelete@UMD5Impl@MD5@yaSSL@@@yaSSL@@YAXPAUMD5Impl@MD5@0@@Z 00439f80 f i yassl:crypto_wrapper.obj
 0001:00038fa0       ??$ysDelete@USHAImpl@SHA@yaSSL@@@yaSSL@@YAXPAUSHAImpl@SHA@0@@Z 00439fa0 f i yassl:crypto_wrapper.obj
 0001:00038fc0       ??$ysDelete@URMDImpl@RMD@yaSSL@@@yaSSL@@YAXPAURMDImpl@RMD@0@@Z 00439fc0 f i yassl:crypto_wrapper.obj
 0001:00038fe0       ??$ysDelete@UHMAC_MD5Impl@HMAC_MD5@yaSSL@@@yaSSL@@YAXPAUHMAC_MD5Impl@HMAC_MD5@0@@Z 00439fe0 f i yassl:crypto_wrapper.obj
 0001:00039000       ??$ysDelete@UHMAC_SHAImpl@HMAC_SHA@yaSSL@@@yaSSL@@YAXPAUHMAC_SHAImpl@HMAC_SHA@0@@Z 0043a000 f i yassl:crypto_wrapper.obj
 0001:00039020       ??$ysDelete@UHMAC_RMDImpl@HMAC_RMD@yaSSL@@@yaSSL@@YAXPAUHMAC_RMDImpl@HMAC_RMD@0@@Z 0043a020 f i yassl:crypto_wrapper.obj
 0001:00039040       ??$ysDelete@UDESImpl@DES@yaSSL@@@yaSSL@@YAXPAUDESImpl@DES@0@@Z 0043a040 f i yassl:crypto_wrapper.obj
 0001:00039070       ??$ysDelete@UDES_EDEImpl@DES_EDE@yaSSL@@@yaSSL@@YAXPAUDES_EDEImpl@DES_EDE@0@@Z 0043a070 f i yassl:crypto_wrapper.obj
 0001:000390a0       ??$ysDelete@UAESImpl@AES@yaSSL@@@yaSSL@@YAXPAUAESImpl@AES@0@@Z 0043a0a0 f i yassl:crypto_wrapper.obj
 0001:000390d0       ??$ysDelete@URandomImpl@RandomPool@yaSSL@@@yaSSL@@YAXPAURandomImpl@RandomPool@0@@Z 0043a0d0 f i yassl:crypto_wrapper.obj
 0001:000390f0       ??$ysDelete@UDHImpl@DiffieHellman@yaSSL@@@yaSSL@@YAXPAUDHImpl@DiffieHellman@0@@Z 0043a0f0 f i yassl:crypto_wrapper.obj
 0001:00039150       ??_GDSSImpl@DSS@yaSSL@@QAEPAXI@Z 0043a150 f i yassl:crypto_wrapper.obj
 0001:000391b0       ??_GRSAImpl@RSA@yaSSL@@QAEPAXI@Z 0043a1b0 f i yassl:crypto_wrapper.obj
 0001:000391f0       ??_GIntegerImpl@Integer@yaSSL@@QAEPAXI@Z 0043a1f0 f i yassl:crypto_wrapper.obj
 0001:00039220       ??1MD5@yaSSL@@UAE@XZ       0043a220 f   yassl:crypto_wrapper.obj
 0001:00039240       ??1SHA@yaSSL@@UAE@XZ       0043a240 f   yassl:crypto_wrapper.obj
 0001:00039260       ??1RMD@yaSSL@@UAE@XZ       0043a260 f   yassl:crypto_wrapper.obj
 0001:00039280       ??1HMAC_MD5@yaSSL@@UAE@XZ  0043a280 f   yassl:crypto_wrapper.obj
 0001:000392a0       ??1HMAC_SHA@yaSSL@@UAE@XZ  0043a2a0 f   yassl:crypto_wrapper.obj
 0001:000392c0       ??1HMAC_RMD@yaSSL@@UAE@XZ  0043a2c0 f   yassl:crypto_wrapper.obj
 0001:000392e0       ??1DES@yaSSL@@UAE@XZ       0043a2e0 f   yassl:crypto_wrapper.obj
 0001:00039300       ??1DES_EDE@yaSSL@@UAE@XZ   0043a300 f   yassl:crypto_wrapper.obj
 0001:00039320       ??1AES@yaSSL@@UAE@XZ       0043a320 f   yassl:crypto_wrapper.obj
 0001:00039340       ??1RandomPool@yaSSL@@QAE@XZ 0043a340 f   yassl:crypto_wrapper.obj
 0001:00039350       ?SetPublic@DSSImpl@DSS@yaSSL@@QAEXPBEI@Z 0043a350 f   yassl:crypto_wrapper.obj
 0001:000393d0       ?SetPrivate@DSSImpl@DSS@yaSSL@@QAEXPBEI@Z 0043a3d0 f   yassl:crypto_wrapper.obj
 0001:000394b0       ??0DSS@yaSSL@@QAE@PBEI_N@Z 0043a4b0 f   yassl:crypto_wrapper.obj
 0001:00039510       ?SetPublic@RSAImpl@RSA@yaSSL@@QAEXPBEI@Z 0043a510 f   yassl:crypto_wrapper.obj
 0001:00039590       ?SetPrivate@RSAImpl@RSA@yaSSL@@QAEXPBEI@Z 0043a590 f   yassl:crypto_wrapper.obj
 0001:00039650       ??0RSA@yaSSL@@QAE@PBEI_N@Z 0043a650 f   yassl:crypto_wrapper.obj
 0001:000396b0       ??1DiffieHellman@yaSSL@@QAE@XZ 0043a6b0 f   yassl:crypto_wrapper.obj
 0001:000396c0       ??1Base64Decoder@TaoCrypt@@QAE@XZ 0043a6c0 f i yassl:crypto_wrapper.obj
 0001:000396e0       ??$ysDelete@UDSSImpl@DSS@yaSSL@@@yaSSL@@YAXPAUDSSImpl@DSS@0@@Z 0043a6e0 f i yassl:crypto_wrapper.obj
 0001:00039740       ??$ysDelete@URSAImpl@RSA@yaSSL@@@yaSSL@@YAXPAURSAImpl@RSA@0@@Z 0043a740 f i yassl:crypto_wrapper.obj
 0001:00039780       ??$ysDelete@UIntegerImpl@Integer@yaSSL@@@yaSSL@@YAXPAUIntegerImpl@Integer@0@@Z 0043a780 f i yassl:crypto_wrapper.obj
 0001:000397b0       ??_GMD5@yaSSL@@UAEPAXI@Z   0043a7b0 f i yassl:crypto_wrapper.obj
 0001:000397b0       ??_EMD5@yaSSL@@UAEPAXI@Z   0043a7b0 f i yassl:crypto_wrapper.obj
 0001:000397d0       ??_GSHA@yaSSL@@UAEPAXI@Z   0043a7d0 f i yassl:crypto_wrapper.obj
 0001:000397d0       ??_ESHA@yaSSL@@UAEPAXI@Z   0043a7d0 f i yassl:crypto_wrapper.obj
 0001:000397f0       ??_GRMD@yaSSL@@UAEPAXI@Z   0043a7f0 f i yassl:crypto_wrapper.obj
 0001:000397f0       ??_ERMD@yaSSL@@UAEPAXI@Z   0043a7f0 f i yassl:crypto_wrapper.obj
 0001:00039810       ??_GHMAC_MD5@yaSSL@@UAEPAXI@Z 0043a810 f i yassl:crypto_wrapper.obj
 0001:00039810       ??_EHMAC_MD5@yaSSL@@UAEPAXI@Z 0043a810 f i yassl:crypto_wrapper.obj
 0001:00039830       ??_GHMAC_SHA@yaSSL@@UAEPAXI@Z 0043a830 f i yassl:crypto_wrapper.obj
 0001:00039830       ??_EHMAC_SHA@yaSSL@@UAEPAXI@Z 0043a830 f i yassl:crypto_wrapper.obj
 0001:00039850       ??_EHMAC_RMD@yaSSL@@UAEPAXI@Z 0043a850 f i yassl:crypto_wrapper.obj
 0001:00039850       ??_GHMAC_RMD@yaSSL@@UAEPAXI@Z 0043a850 f i yassl:crypto_wrapper.obj
 0001:00039870       ??_EDES@yaSSL@@UAEPAXI@Z   0043a870 f i yassl:crypto_wrapper.obj
 0001:00039870       ??_GDES@yaSSL@@UAEPAXI@Z   0043a870 f i yassl:crypto_wrapper.obj
 0001:00039890       ??_EDES_EDE@yaSSL@@UAEPAXI@Z 0043a890 f i yassl:crypto_wrapper.obj
 0001:00039890       ??_GDES_EDE@yaSSL@@UAEPAXI@Z 0043a890 f i yassl:crypto_wrapper.obj
 0001:000398b0       ??_EAES@yaSSL@@UAEPAXI@Z   0043a8b0 f i yassl:crypto_wrapper.obj
 0001:000398b0       ??_GAES@yaSSL@@UAEPAXI@Z   0043a8b0 f i yassl:crypto_wrapper.obj
 0001:000398d0       ??1DSS@yaSSL@@UAE@XZ       0043a8d0 f   yassl:crypto_wrapper.obj
 0001:000398f0       ??1RSA@yaSSL@@UAE@XZ       0043a8f0 f   yassl:crypto_wrapper.obj
 0001:00039910       ??1Integer@yaSSL@@QAE@XZ   0043a910 f   yassl:crypto_wrapper.obj
 0001:00039920       ?Decrypt@?$RSA_Decryptor@VRSA_BlockType2@TaoCrypt@@@TaoCrypt@@QAEIPBEIPAEAAVRandomNumberGenerator@2@@Z 0043a920 f i yassl:crypto_wrapper.obj
 0001:00039a40       ?Encrypt@?$RSA_Encryptor@VRSA_BlockType2@TaoCrypt@@@TaoCrypt@@QAEXPBEIPAEAAVRandomNumberGenerator@2@@Z 0043aa40 f i yassl:crypto_wrapper.obj
 0001:00039b20       ?SSL_Verify@?$RSA_Encryptor@VRSA_BlockType2@TaoCrypt@@@TaoCrypt@@QAE_NPBEI0@Z 0043ab20 f i yassl:crypto_wrapper.obj
 0001:00039c60       ?Encrypt@?$RSA_Encryptor@VRSA_BlockType1@TaoCrypt@@@TaoCrypt@@QAEXPBEIPAEAAVRandomNumberGenerator@2@@Z 0043ac60 f i yassl:crypto_wrapper.obj
 0001:00039d40       ??0Base64Decoder@TaoCrypt@@QAE@AAVSource@1@@Z 0043ad40 f i yassl:crypto_wrapper.obj
 0001:00039d90       ??_EDSS@yaSSL@@UAEPAXI@Z   0043ad90 f i yassl:crypto_wrapper.obj
 0001:00039d90       ??_GDSS@yaSSL@@UAEPAXI@Z   0043ad90 f i yassl:crypto_wrapper.obj
 0001:00039db0       ??_GRSA@yaSSL@@UAEPAXI@Z   0043adb0 f i yassl:crypto_wrapper.obj
 0001:00039db0       ??_ERSA@yaSSL@@UAEPAXI@Z   0043adb0 f i yassl:crypto_wrapper.obj
 0001:00039dd0       ?verify@RSA@yaSSL@@UAE_NPBEI0I@Z 0043add0 f   yassl:crypto_wrapper.obj
 0001:00039e00       ?encrypt@RSA@yaSSL@@QAEXPAEPBEIABVRandomPool@2@@Z 0043ae00 f   yassl:crypto_wrapper.obj
 0001:00039e30       ?decrypt@RSA@yaSSL@@QAEXPAEPBEIABVRandomPool@2@@Z 0043ae30 f   yassl:crypto_wrapper.obj
 0001:00039e70       ?PemToDer@yaSSL@@YAPAVx509@1@PAU_iobuf@@W4CertType@1@PAUEncryptedInfo@1@@Z 0043ae70 f   yassl:crypto_wrapper.obj
 0001:0003a250       ?SSL_Sign@?$RSA_Decryptor@VRSA_BlockType2@TaoCrypt@@@TaoCrypt@@QAEXPBEIPAEAAVRandomNumberGenerator@2@@Z 0043b250 f i yassl:crypto_wrapper.obj
 0001:0003a2e0       ?sign@RSA@yaSSL@@UAEXPAEPBEIABVRandomPool@2@@Z 0043b2e0 f   yassl:crypto_wrapper.obj
 0001:0003a320       ??0Message@yaSSL@@QAE@XZ   0043b320 f i yassl:yassl_imp.obj
 0001:0003a330       ??0HandShakeHeader@yaSSL@@QAE@XZ 0043b330 f i yassl:yassl_imp.obj
 0001:0003a340       ??1HandShakeHeader@yaSSL@@UAE@XZ 0043b340 f i yassl:yassl_imp.obj
 0001:0003a350       ??1ServerKeyBase@yaSSL@@UAE@XZ 0043b350 f i yassl:yassl_imp.obj
 0001:0003a360       ?build@ServerKeyBase@yaSSL@@UAEXAAVSSL@2@@Z 0043b360 f i yassl:yassl_imp.obj
 0001:0003a370       ?read@ServerKeyBase@yaSSL@@UAEXAAVSSL@2@AAVinput_buffer@2@@Z 0043b370 f i yassl:yassl_imp.obj
 0001:0003a380       ??_EServerKeyBase@yaSSL@@UAEPAXI@Z 0043b380 f i yassl:yassl_imp.obj
 0001:0003a380       ??_GServerKeyBase@yaSSL@@UAEPAXI@Z 0043b380 f i yassl:yassl_imp.obj
 0001:0003a3a0       ??1ClientKeyBase@yaSSL@@UAE@XZ 0043b3a0 f i yassl:yassl_imp.obj
 0001:0003a3b0       ?build@ClientKeyBase@yaSSL@@UAEXAAVSSL@2@@Z 0043b3b0 f i yassl:yassl_imp.obj
 0001:0003a3c0       ?read@ClientKeyBase@yaSSL@@UAEXAAVSSL@2@AAVinput_buffer@2@@Z 0043b3c0 f i yassl:yassl_imp.obj
 0001:0003a3d0       ??_GClientKeyBase@yaSSL@@UAEPAXI@Z 0043b3d0 f i yassl:yassl_imp.obj
 0001:0003a3d0       ??_EClientKeyBase@yaSSL@@UAEPAXI@Z 0043b3d0 f i yassl:yassl_imp.obj
 0001:0003a3f0       ?isTLS@?A0xee7cd4eb@yaSSL@@YA_NUProtocolVersion@2@@Z 0043b3f0 f   yassl:yassl_imp.obj
 0001:0003a410       ??0ProtocolVersion@yaSSL@@QAE@EE@Z 0043b410 f   yassl:yassl_imp.obj
 0001:0003a430       ??0ClientKeyBase@yaSSL@@QAE@XZ 0043b430 f i yassl:yassl_imp.obj
 0001:0003a440       ?get_length@EncryptedPreMasterSecret@yaSSL@@UBEHXZ 0043b440 f   yassl:yassl_imp.obj
 0001:0003a450       ?get_clientKey@EncryptedPreMasterSecret@yaSSL@@UBEPAEXZ 0043b450 f   yassl:yassl_imp.obj
 0001:0003a460       ?alloc@EncryptedPreMasterSecret@yaSSL@@QAEXH@Z 0043b460 f   yassl:yassl_imp.obj
 0001:0003a480       ??0ClientDiffieHellmanPublic@yaSSL@@QAE@XZ 0043b480 f   yassl:yassl_imp.obj
 0001:0003a4a0       ?get_length@ClientDiffieHellmanPublic@yaSSL@@UBEHXZ 0043b4a0 f   yassl:yassl_imp.obj
 0001:0003a4b0       ?get_clientKey@ClientDiffieHellmanPublic@yaSSL@@UBEPAEXZ 0043b4b0 f   yassl:yassl_imp.obj
 0001:0003a4c0       ?alloc@ClientDiffieHellmanPublic@yaSSL@@QAEXH_N@Z 0043b4c0 f   yassl:yassl_imp.obj
 0001:0003a4f0       ??0ServerKeyBase@yaSSL@@QAE@XZ 0043b4f0 f i yassl:yassl_imp.obj
 0001:0003a500       ?get_length@DH_Server@yaSSL@@UBEHXZ 0043b500 f   yassl:yassl_imp.obj
 0001:0003a510       ?get_serverKey@DH_Server@yaSSL@@UBEPAEXZ 0043b510 f   yassl:yassl_imp.obj
 0001:0003a520       ?SetCipherNames@Parameters@yaSSL@@QAEXXZ 0043b520 f   yassl:yassl_imp.obj
 0001:0003a5b0       ??5yaSSL@@YAAAVinput_buffer@0@AAV10@AAURecordLayerHeader@0@@Z 0043b5b0 f   yassl:yassl_imp.obj
 0001:0003a630       ??6yaSSL@@YAAAVoutput_buffer@0@AAV10@ABURecordLayerHeader@0@@Z 0043b630 f   yassl:yassl_imp.obj
 0001:0003a6b0       ??5yaSSL@@YAAAVinput_buffer@0@AAV10@AAUMessage@0@@Z 0043b6b0 f   yassl:yassl_imp.obj
 0001:0003a6c0       ??6yaSSL@@YAAAVoutput_buffer@0@AAV10@ABUMessage@0@@Z 0043b6c0 f   yassl:yassl_imp.obj
 0001:0003a6e0       ??5yaSSL@@YAAAVinput_buffer@0@AAV10@AAVHandShakeHeader@0@@Z 0043b6e0 f   yassl:yassl_imp.obj
 0001:0003a740       ??6yaSSL@@YAAAVoutput_buffer@0@AAV10@ABVHandShakeHeader@0@@Z 0043b740 f   yassl:yassl_imp.obj
 0001:0003a770       ?get_type@HandShakeHeader@yaSSL@@UBE?AW4ContentType@2@XZ 0043b770 f   yassl:yassl_imp.obj
 0001:0003a780       ?get_length@HandShakeHeader@yaSSL@@UBEGXZ 0043b780 f   yassl:yassl_imp.obj
 0001:0003a790       ?get_handshakeType@HandShakeHeader@yaSSL@@QBE?AW4HandShakeType@2@XZ 0043b790 f   yassl:yassl_imp.obj
 0001:0003a7a0       ?set_type@HandShakeHeader@yaSSL@@QAEXW4HandShakeType@2@@Z 0043b7a0 f   yassl:yassl_imp.obj
 0001:0003a7b0       ?set_length@HandShakeHeader@yaSSL@@QAEXI@Z 0043b7b0 f   yassl:yassl_imp.obj
 0001:0003a7d0       ?set@HandShakeHeader@yaSSL@@UAEAAVinput_buffer@2@AAV32@@Z 0043b7d0 f   yassl:yassl_imp.obj
 0001:0003a7f0       ?get@HandShakeHeader@yaSSL@@UBEAAVoutput_buffer@2@AAV32@@Z 0043b7f0 f   yassl:yassl_imp.obj
 0001:0003a810       ?get_length@HandShakeBase@yaSSL@@QBEHXZ 0043b810 f   yassl:yassl_imp.obj
 0001:0003a820       ?set_length@HandShakeBase@yaSSL@@QAEXH@Z 0043b820 f   yassl:yassl_imp.obj
 0001:0003a830       ?get_type@HandShakeBase@yaSSL@@UBE?AW4HandShakeType@2@XZ 0043b830 f   yassl:yassl_imp.obj
 0001:0003a840       ?set@HandShakeBase@yaSSL@@UAEAAVinput_buffer@2@AAV32@@Z 0043b840 f   yassl:yassl_imp.obj
 0001:0003a850       ?get@HandShakeBase@yaSSL@@UBEAAVoutput_buffer@2@AAV32@@Z 0043b850 f   yassl:yassl_imp.obj
 0001:0003a860       ?Process@HandShakeBase@yaSSL@@UAEXAAVinput_buffer@2@AAVSSL@2@@Z 0043b860 f   yassl:yassl_imp.obj
 0001:0003a870       ?set@HelloRequest@yaSSL@@UAEAAVinput_buffer@2@AAV32@@Z 0043b870 f   yassl:yassl_imp.obj
 0001:0003a880       ?get@HelloRequest@yaSSL@@UBEAAVoutput_buffer@2@AAV32@@Z 0043b880 f   yassl:yassl_imp.obj
 0001:0003a890       ?Process@HelloRequest@yaSSL@@UAEXAAVinput_buffer@2@AAVSSL@2@@Z 0043b890 f   yassl:yassl_imp.obj
 0001:0003a8a0       ?get_type@HelloRequest@yaSSL@@UBE?AW4HandShakeType@2@XZ 0043b8a0 f   yassl:yassl_imp.obj
 0001:0003a8b0       ??5yaSSL@@YAAAVinput_buffer@0@AAV10@AAVChangeCipherSpec@0@@Z 0043b8b0 f   yassl:yassl_imp.obj
 0001:0003a8d0       ??6yaSSL@@YAAAVoutput_buffer@0@AAV10@ABVChangeCipherSpec@0@@Z 0043b8d0 f   yassl:yassl_imp.obj
 0001:0003a8f0       ??0ChangeCipherSpec@yaSSL@@QAE@XZ 0043b8f0 f   yassl:yassl_imp.obj
 0001:0003a900       ??1ChangeCipherSpec@yaSSL@@UAE@XZ 0043b900 f i yassl:yassl_imp.obj
 0001:0003a910       ?set@ChangeCipherSpec@yaSSL@@UAEAAVinput_buffer@2@AAV32@@Z 0043b910 f   yassl:yassl_imp.obj
 0001:0003a930       ?get@ChangeCipherSpec@yaSSL@@UBEAAVoutput_buffer@2@AAV32@@Z 0043b930 f   yassl:yassl_imp.obj
 0001:0003a950       ?get_type@ChangeCipherSpec@yaSSL@@UBE?AW4ContentType@2@XZ 0043b950 f   yassl:yassl_imp.obj
 0001:0003a960       ?get_length@ChangeCipherSpec@yaSSL@@UBEGXZ 0043b960 f   yassl:yassl_imp.obj
 0001:0003a970       ?Process@ChangeCipherSpec@yaSSL@@UAEXAAVinput_buffer@2@AAVSSL@2@@Z 0043b970 f   yassl:yassl_imp.obj
 0001:0003a9f0       ??0Alert@yaSSL@@QAE@W4AlertLevel@1@W4AlertDescription@1@@Z 0043b9f0 f   yassl:yassl_imp.obj
 0001:0003aa10       ?get_type@Alert@yaSSL@@UBE?AW4ContentType@2@XZ 0043ba10 f   yassl:yassl_imp.obj
 0001:0003aa20       ?get_length@Alert@yaSSL@@UBEGXZ 0043ba20 f   yassl:yassl_imp.obj
 0001:0003aa30       ??5yaSSL@@YAAAVinput_buffer@0@AAV10@AAVAlert@0@@Z 0043ba30 f   yassl:yassl_imp.obj
 0001:0003aa70       ??6yaSSL@@YAAAVoutput_buffer@0@AAV10@ABVAlert@0@@Z 0043ba70 f   yassl:yassl_imp.obj
 0001:0003aab0       ?Process@Alert@yaSSL@@UAEXAAVinput_buffer@2@AAVSSL@2@@Z 0043bab0 f   yassl:yassl_imp.obj
 0001:0003acc0       ??0Data@yaSSL@@QAE@XZ      0043bcc0 f   yassl:yassl_imp.obj
 0001:0003ace0       ??0Data@yaSSL@@QAE@GPAE@Z  0043bce0 f   yassl:yassl_imp.obj
 0001:0003ad10       ?SetData@Data@yaSSL@@QAEXGPBE@Z 0043bd10 f   yassl:yassl_imp.obj
 0001:0003ad30       ?set@Data@yaSSL@@UAEAAVinput_buffer@2@AAV32@@Z 0043bd30 f   yassl:yassl_imp.obj
 0001:0003ad40       ?get_type@Data@yaSSL@@UBE?AW4ContentType@2@XZ 0043bd40 f   yassl:yassl_imp.obj
 0001:0003ad50       ?get_length@Data@yaSSL@@UBEGXZ 0043bd50 f   yassl:yassl_imp.obj
 0001:0003ad60       ?set_length@Data@yaSSL@@QAEXG@Z 0043bd60 f   yassl:yassl_imp.obj
 0001:0003ad70       ?set_buffer@Data@yaSSL@@QAEPAEXZ 0043bd70 f   yassl:yassl_imp.obj
 0001:0003ad80       ??6yaSSL@@YAAAVoutput_buffer@0@AAV10@ABVData@0@@Z 0043bd80 f   yassl:yassl_imp.obj
 0001:0003ada0       ?Process@Data@yaSSL@@UAEXAAVinput_buffer@2@AAVSSL@2@@Z 0043bda0 f   yassl:yassl_imp.obj
 0001:0003b0a0       ??5yaSSL@@YAAAVinput_buffer@0@AAV10@AAVHandShakeBase@0@@Z 0043c0a0 f   yassl:yassl_imp.obj
 0001:0003b0c0       ??6yaSSL@@YAAAVoutput_buffer@0@AAV10@ABVHandShakeBase@0@@Z 0043c0c0 f   yassl:yassl_imp.obj
 0001:0003b0e0       ??0HandShakeBase@yaSSL@@QAE@XZ 0043c0e0 f i yassl:yassl_imp.obj
 0001:0003b0f0       ?get_buffer@Certificate@yaSSL@@QBEPBEXZ 0043c0f0 f   yassl:yassl_imp.obj
 0001:0003b100       ??6yaSSL@@YAAAVoutput_buffer@0@AAV10@ABVCertificate@0@@Z 0043c100 f   yassl:yassl_imp.obj
 0001:0003b170       ?Process@Certificate@yaSSL@@UAEXAAVinput_buffer@2@AAVSSL@2@@Z 0043c170 f   yassl:yassl_imp.obj
 0001:0003b2c0       ??0Certificate@yaSSL@@QAE@XZ 0043c2c0 f   yassl:yassl_imp.obj
 0001:0003b2d0       ??1Certificate@yaSSL@@UAE@XZ 0043c2d0 f i yassl:yassl_imp.obj
 0001:0003b2e0       ?set@Certificate@yaSSL@@UAEAAVinput_buffer@2@AAV32@@Z 0043c2e0 f   yassl:yassl_imp.obj
 0001:0003b2f0       ?get@Certificate@yaSSL@@UBEAAVoutput_buffer@2@AAV32@@Z 0043c2f0 f   yassl:yassl_imp.obj
 0001:0003b310       ?get_type@Certificate@yaSSL@@UBE?AW4HandShakeType@2@XZ 0043c310 f   yassl:yassl_imp.obj
 0001:0003b320       ??0ServerDHParams@yaSSL@@QAE@XZ 0043c320 f   yassl:yassl_imp.obj
 0001:0003b340       ?get_pSize@ServerDHParams@yaSSL@@QBEHXZ 0043c340 f   yassl:yassl_imp.obj
 0001:0003b350       ?get_gSize@ServerDHParams@yaSSL@@QBEHXZ 0043c350 f   yassl:yassl_imp.obj
 0001:0003b360       ?get_pubSize@ServerDHParams@yaSSL@@QBEHXZ 0043c360 f   yassl:yassl_imp.obj
 0001:0003b370       ?get_p@ServerDHParams@yaSSL@@QBEPBEXZ 0043c370 f   yassl:yassl_imp.obj
 0001:0003b380       ?get_g@ServerDHParams@yaSSL@@QBEPBEXZ 0043c380 f   yassl:yassl_imp.obj
 0001:0003b390       ?get_pub@ServerDHParams@yaSSL@@QBEPBEXZ 0043c390 f   yassl:yassl_imp.obj
 0001:0003b3a0       ?alloc_p@ServerDHParams@yaSSL@@QAEPAEH@Z 0043c3a0 f   yassl:yassl_imp.obj
 0001:0003b3c0       ?alloc_g@ServerDHParams@yaSSL@@QAEPAEH@Z 0043c3c0 f   yassl:yassl_imp.obj
 0001:0003b3e0       ?alloc_pub@ServerDHParams@yaSSL@@QAEPAEH@Z 0043c3e0 f   yassl:yassl_imp.obj
 0001:0003b400       ?get_length@ServerKeyBase@yaSSL@@UBEHXZ 0043c400 f   yassl:yassl_imp.obj
 0001:0003b410       ?get_serverKey@ServerKeyBase@yaSSL@@UBEPAEXZ 0043c410 f   yassl:yassl_imp.obj
 0001:0003b420       ??5yaSSL@@YAAAVinput_buffer@0@AAV10@AAVServerHello@0@@Z 0043c420 f   yassl:yassl_imp.obj
 0001:0003b4c0       ??6yaSSL@@YAAAVoutput_buffer@0@AAV10@ABVServerHello@0@@Z 0043c4c0 f   yassl:yassl_imp.obj
 0001:0003b560       ??0ServerHello@yaSSL@@QAE@XZ 0043c560 f   yassl:yassl_imp.obj
 0001:0003b5b0       ??1ServerHello@yaSSL@@UAE@XZ 0043c5b0 f i yassl:yassl_imp.obj
 0001:0003b5c0       ??0ServerHello@yaSSL@@QAE@UProtocolVersion@1@_N@Z 0043c5c0 f   yassl:yassl_imp.obj
 0001:0003b620       ?set@ServerHello@yaSSL@@UAEAAVinput_buffer@2@AAV32@@Z 0043c620 f   yassl:yassl_imp.obj
 0001:0003b640       ?get@ServerHello@yaSSL@@UBEAAVoutput_buffer@2@AAV32@@Z 0043c640 f   yassl:yassl_imp.obj
 0001:0003b660       ?get_type@ServerHello@yaSSL@@UBE?AW4HandShakeType@2@XZ 0043c660 f   yassl:yassl_imp.obj
 0001:0003b670       ?get_random@ServerHello@yaSSL@@QBEPBEXZ 0043c670 f   yassl:yassl_imp.obj
 0001:0003b680       ?Process@ServerHelloDone@yaSSL@@UAEXAAVinput_buffer@2@AAVSSL@2@@Z 0043c680 f   yassl:yassl_imp.obj
 0001:0003b6a0       ??0ServerHelloDone@yaSSL@@QAE@XZ 0043c6a0 f   yassl:yassl_imp.obj
 0001:0003b6b0       ??1ServerHelloDone@yaSSL@@UAE@XZ 0043c6b0 f i yassl:yassl_imp.obj
 0001:0003b6c0       ?set@ServerHelloDone@yaSSL@@UAEAAVinput_buffer@2@AAV32@@Z 0043c6c0 f   yassl:yassl_imp.obj
 0001:0003b6d0       ?get@ServerHelloDone@yaSSL@@UBEAAVoutput_buffer@2@AAV32@@Z 0043c6d0 f   yassl:yassl_imp.obj
 0001:0003b6e0       ?get_type@ServerHelloDone@yaSSL@@UBE?AW4HandShakeType@2@XZ 0043c6e0 f   yassl:yassl_imp.obj
 0001:0003b6f0       ?get_length@ClientKeyBase@yaSSL@@UBEHXZ 0043c6f0 f   yassl:yassl_imp.obj
 0001:0003b700       ?get_clientKey@ClientKeyBase@yaSSL@@UBEPAEXZ 0043c700 f   yassl:yassl_imp.obj
 0001:0003b710       ??5yaSSL@@YAAAVinput_buffer@0@AAV10@AAVClientHello@0@@Z 0043c710 f   yassl:yassl_imp.obj
 0001:0003b890       ??6yaSSL@@YAAAVoutput_buffer@0@AAV10@ABVClientHello@0@@Z 0043c890 f   yassl:yassl_imp.obj
 0001:0003b970       ?set@ClientHello@yaSSL@@UAEAAVinput_buffer@2@AAV32@@Z 0043c970 f   yassl:yassl_imp.obj
 0001:0003b990       ?get@ClientHello@yaSSL@@UBEAAVoutput_buffer@2@AAV32@@Z 0043c990 f   yassl:yassl_imp.obj
 0001:0003b9b0       ?get_type@ClientHello@yaSSL@@UBE?AW4HandShakeType@2@XZ 0043c9b0 f   yassl:yassl_imp.obj
 0001:0003b9c0       ?get_random@ClientHello@yaSSL@@QBEPBEXZ 0043c9c0 f   yassl:yassl_imp.obj
 0001:0003b9d0       ??0ClientHello@yaSSL@@QAE@XZ 0043c9d0 f   yassl:yassl_imp.obj
 0001:0003ba10       ??1ClientHello@yaSSL@@UAE@XZ 0043ca10 f i yassl:yassl_imp.obj
 0001:0003ba20       ??0ClientHello@yaSSL@@QAE@UProtocolVersion@1@_N@Z 0043ca20 f   yassl:yassl_imp.obj
 0001:0003ba70       ??0ServerKeyExchange@yaSSL@@QAE@XZ 0043ca70 f   yassl:yassl_imp.obj
 0001:0003ba80       ?build@ServerKeyExchange@yaSSL@@QAEXAAVSSL@2@@Z 0043ca80 f   yassl:yassl_imp.obj
 0001:0003bab0       ?getKey@ServerKeyExchange@yaSSL@@QBEPBEXZ 0043cab0 f   yassl:yassl_imp.obj
 0001:0003bac0       ?getKeyLength@ServerKeyExchange@yaSSL@@QBEHXZ 0043cac0 f   yassl:yassl_imp.obj
 0001:0003bad0       ?set@ServerKeyExchange@yaSSL@@UAEAAVinput_buffer@2@AAV32@@Z 0043cad0 f   yassl:yassl_imp.obj
 0001:0003bae0       ?get_type@ServerKeyExchange@yaSSL@@UBE?AW4HandShakeType@2@XZ 0043cae0 f   yassl:yassl_imp.obj
 0001:0003baf0       ?Process@CertificateRequest@yaSSL@@UAEXAAVinput_buffer@2@AAVSSL@2@@Z 0043caf0 f   yassl:yassl_imp.obj
 0001:0003bb30       ?get_type@CertificateRequest@yaSSL@@UBE?AW4HandShakeType@2@XZ 0043cb30 f   yassl:yassl_imp.obj
 0001:0003bb40       ??0CertificateVerify@yaSSL@@QAE@XZ 0043cb40 f   yassl:yassl_imp.obj
 0001:0003bb50       ??5yaSSL@@YAAAVinput_buffer@0@AAV10@AAVCertificateVerify@0@@Z 0043cb50 f   yassl:yassl_imp.obj
 0001:0003bbb0       ??6yaSSL@@YAAAVoutput_buffer@0@AAV10@ABVCertificateVerify@0@@Z 0043cbb0 f   yassl:yassl_imp.obj
 0001:0003bbd0       ?Process@CertificateVerify@yaSSL@@UAEXAAVinput_buffer@2@AAVSSL@2@@Z 0043cbd0 f   yassl:yassl_imp.obj
 0001:0003bcf0       ?get_type@CertificateVerify@yaSSL@@UBE?AW4HandShakeType@2@XZ 0043ccf0 f   yassl:yassl_imp.obj
 0001:0003bd00       ??0ClientKeyExchange@yaSSL@@QAE@XZ 0043cd00 f   yassl:yassl_imp.obj
 0001:0003bd10       ?build@ClientKeyExchange@yaSSL@@QAEXAAVSSL@2@@Z 0043cd10 f   yassl:yassl_imp.obj
 0001:0003bd40       ?getKey@ClientKeyExchange@yaSSL@@QBEPBEXZ 0043cd40 f   yassl:yassl_imp.obj
 0001:0003bd50       ?getKeyLength@ClientKeyExchange@yaSSL@@QBEHXZ 0043cd50 f   yassl:yassl_imp.obj
 0001:0003bd60       ?set@ClientKeyExchange@yaSSL@@UAEAAVinput_buffer@2@AAV32@@Z 0043cd60 f   yassl:yassl_imp.obj
 0001:0003bd70       ?get_type@ClientKeyExchange@yaSSL@@UBE?AW4HandShakeType@2@XZ 0043cd70 f   yassl:yassl_imp.obj
 0001:0003bd80       ??5yaSSL@@YAAAVinput_buffer@0@AAV10@AAVFinished@0@@Z 0043cd80 f   yassl:yassl_imp.obj
 0001:0003bd90       ??6yaSSL@@YAAAVoutput_buffer@0@AAV10@ABVFinished@0@@Z 0043cd90 f   yassl:yassl_imp.obj
 0001:0003bde0       ?Process@Finished@yaSSL@@UAEXAAVinput_buffer@2@AAVSSL@2@@Z 0043cde0 f   yassl:yassl_imp.obj
 0001:0003c0f0       ??0Finished@yaSSL@@QAE@XZ  0043d0f0 f   yassl:yassl_imp.obj
 0001:0003c100       ??_EFinished@yaSSL@@UAEPAXI@Z 0043d100 f i yassl:yassl_imp.obj
 0001:0003c100       ??_GFinished@yaSSL@@UAEPAXI@Z 0043d100 f i yassl:yassl_imp.obj
 0001:0003c120       ?set_md5@Finished@yaSSL@@QAEPAEXZ 0043d120 f   yassl:yassl_imp.obj
 0001:0003c130       ?set_sha@Finished@yaSSL@@QAEPAEXZ 0043d130 f   yassl:yassl_imp.obj
 0001:0003c140       ?set@Finished@yaSSL@@UAEAAVinput_buffer@2@AAV32@@Z 0043d140 f   yassl:yassl_imp.obj
 0001:0003c160       ?get@Finished@yaSSL@@UBEAAVoutput_buffer@2@AAV32@@Z 0043d160 f   yassl:yassl_imp.obj
 0001:0003c180       ?get_type@Finished@yaSSL@@UBE?AW4HandShakeType@2@XZ 0043d180 f   yassl:yassl_imp.obj
 0001:0003c190       ?clean@yaSSL@@YAXPCEIAAVRandomPool@1@@Z 0043d190 f   yassl:yassl_imp.obj
 0001:0003c1d0       ??0Connection@yaSSL@@QAE@UProtocolVersion@1@AAVRandomPool@1@@Z 0043d1d0 f   yassl:yassl_imp.obj
 0001:0003c280       ?AllocPreSecret@Connection@yaSSL@@QAEXI@Z 0043d280 f   yassl:yassl_imp.obj
 0001:0003c2a0       ?TurnOffTLS@Connection@yaSSL@@QAEXXZ 0043d2a0 f   yassl:yassl_imp.obj
 0001:0003c2b0       ?TurnOffTLS1_1@Connection@yaSSL@@QAEXXZ 0043d2b0 f   yassl:yassl_imp.obj
 0001:0003c2c0       ?CleanMaster@Connection@yaSSL@@QAEXXZ 0043d2c0 f   yassl:yassl_imp.obj
 0001:0003c2f0       ?CreateCipherSpec@yaSSL@@YAPAUMessage@1@XZ 0043d2f0 f   yassl:yassl_imp.obj
 0001:0003c310       ?CreateHandShake@yaSSL@@YAPAUMessage@1@XZ 0043d310 f   yassl:yassl_imp.obj
 0001:0003c330       ?CreateData@yaSSL@@YAPAUMessage@1@XZ 0043d330 f   yassl:yassl_imp.obj
 0001:0003c350       ??0HelloRequest@yaSSL@@QAE@XZ 0043d350 f i yassl:yassl_imp.obj
 0001:0003c360       ??1HelloRequest@yaSSL@@UAE@XZ 0043d360 f i yassl:yassl_imp.obj
 0001:0003c370       ?CreateClientHello@yaSSL@@YAPAVHandShakeBase@1@XZ 0043d370 f   yassl:yassl_imp.obj
 0001:0003c390       ?CreateServerHello@yaSSL@@YAPAVHandShakeBase@1@XZ 0043d390 f   yassl:yassl_imp.obj
 0001:0003c3b0       ?CreateCertificate@yaSSL@@YAPAVHandShakeBase@1@XZ 0043d3b0 f   yassl:yassl_imp.obj
 0001:0003c3d0       ?CreateServerKeyExchange@yaSSL@@YAPAVHandShakeBase@1@XZ 0043d3d0 f   yassl:yassl_imp.obj
 0001:0003c3f0       ?CreateServerHelloDone@yaSSL@@YAPAVHandShakeBase@1@XZ 0043d3f0 f   yassl:yassl_imp.obj
 0001:0003c410       ?CreateCertificateVerify@yaSSL@@YAPAVHandShakeBase@1@XZ 0043d410 f   yassl:yassl_imp.obj
 0001:0003c430       ?CreateClientKeyExchange@yaSSL@@YAPAVHandShakeBase@1@XZ 0043d430 f   yassl:yassl_imp.obj
 0001:0003c450       ?CreateFinished@yaSSL@@YAPAVHandShakeBase@1@XZ 0043d450 f   yassl:yassl_imp.obj
 0001:0003c470       ??0RSA_Server@yaSSL@@QAE@XZ 0043d470 f i yassl:yassl_imp.obj
 0001:0003c480       ??1RSA_Server@yaSSL@@UAE@XZ 0043d480 f i yassl:yassl_imp.obj
 0001:0003c490       ??0Fortezza_Server@yaSSL@@QAE@XZ 0043d490 f i yassl:yassl_imp.obj
 0001:0003c4a0       ??1Fortezza_Server@yaSSL@@UAE@XZ 0043d4a0 f i yassl:yassl_imp.obj
 0001:0003c4b0       ?CreateDHClient@yaSSL@@YAPAUClientKeyBase@1@XZ 0043d4b0 f   yassl:yassl_imp.obj
 0001:0003c4d0       ??0FortezzaKeys@yaSSL@@QAE@XZ 0043d4d0 f i yassl:yassl_imp.obj
 0001:0003c4e0       ??1FortezzaKeys@yaSSL@@UAE@XZ 0043d4e0 f i yassl:yassl_imp.obj
 0001:0003c4f0       ??0?$list@PAE@mySTL@@QAE@XZ 0043d4f0 f i yassl:yassl_imp.obj
 0001:0003c500       ??0?$auto_ptr@UAuth@yaSSL@@@mySTL@@QAE@PAUAuth@yaSSL@@@Z 0043d500 f i yassl:yassl_imp.obj
 0001:0003c510       ??C?$auto_ptr@UAuth@yaSSL@@@mySTL@@QBEPAUAuth@yaSSL@@XZ 0043d510 f i yassl:yassl_imp.obj
 0001:0003c520       ??0?$auto_ptr@VHandShakeBase@yaSSL@@@mySTL@@QAE@PAVHandShakeBase@yaSSL@@@Z 0043d520 f i yassl:yassl_imp.obj
 0001:0003c530       ??C?$auto_ptr@VHandShakeBase@yaSSL@@@mySTL@@QBEPAVHandShakeBase@yaSSL@@XZ 0043d530 f i yassl:yassl_imp.obj
 0001:0003c540       ??D?$auto_ptr@VHandShakeBase@yaSSL@@@mySTL@@QBEAAVHandShakeBase@yaSSL@@XZ 0043d540 f i yassl:yassl_imp.obj
 0001:0003c550       ?get@?$auto_ptr@VHandShakeBase@yaSSL@@@mySTL@@QBEPAVHandShakeBase@yaSSL@@XZ 0043d550 f i yassl:yassl_imp.obj
 0001:0003c560       ??Diterator@?$list@PAE@mySTL@@QBEAAPAEXZ 0043d560 f i yassl:yassl_imp.obj
 0001:0003c570       ??Eiterator@?$list@PAE@mySTL@@QAEAAV012@XZ 0043d570 f i yassl:yassl_imp.obj
 0001:0003c580       ??9iterator@?$list@PAE@mySTL@@QBE_NABV012@@Z 0043d580 f i yassl:yassl_imp.obj
 0001:0003c5a0       ??0?$auto_array@E@mySTL@@QAE@PAE@Z 0043d5a0 f i yassl:yassl_imp.obj
 0001:0003c5b0       ?get@?$auto_array@E@mySTL@@QBEPAEXZ 0043d5b0 f i yassl:yassl_imp.obj
 0001:0003c5c0       ?release@?$auto_array@E@mySTL@@QAEPAEXZ 0043d5c0 f i yassl:yassl_imp.obj
 0001:0003c5d0       ?begin@?$vector@U?$pair@HP6APAVHandShakeBase@yaSSL@@XZ@mySTL@@@mySTL@@QBEPBU?$pair@HP6APAVHandShakeBase@yaSSL@@XZ@2@XZ 0043d5d0 f i yassl:yassl_imp.obj
 0001:0003c5e0       ?end@?$vector@U?$pair@HP6APAVHandShakeBase@yaSSL@@XZ@mySTL@@@mySTL@@QBEPBU?$pair@HP6APAVHandShakeBase@yaSSL@@XZ@2@XZ 0043d5e0 f i yassl:yassl_imp.obj
 0001:0003c5f0       ?begin@?$vector@U?$pair@HP6APAUServerKeyBase@yaSSL@@XZ@mySTL@@@mySTL@@QBEPBU?$pair@HP6APAUServerKeyBase@yaSSL@@XZ@2@XZ 0043d5f0 f i yassl:yassl_imp.obj
 0001:0003c600       ?end@?$vector@U?$pair@HP6APAUServerKeyBase@yaSSL@@XZ@mySTL@@@mySTL@@QBEPBU?$pair@HP6APAUServerKeyBase@yaSSL@@XZ@2@XZ 0043d600 f i yassl:yassl_imp.obj
 0001:0003c610       ?begin@?$vector@U?$pair@HP6APAUClientKeyBase@yaSSL@@XZ@mySTL@@@mySTL@@QBEPBU?$pair@HP6APAUClientKeyBase@yaSSL@@XZ@2@XZ 0043d610 f i yassl:yassl_imp.obj
 0001:0003c620       ?end@?$vector@U?$pair@HP6APAUClientKeyBase@yaSSL@@XZ@mySTL@@@mySTL@@QBEPBU?$pair@HP6APAUClientKeyBase@yaSSL@@XZ@2@XZ 0043d620 f i yassl:yassl_imp.obj
 0001:0003c630       ??0iterator@?$list@PAE@mySTL@@QAE@PAUnode@12@@Z 0043d630 f i yassl:yassl_imp.obj
 0001:0003c640       ?capacity@?$vector@U?$pair@HP6APAUMessage@yaSSL@@XZ@mySTL@@@mySTL@@QBEIXZ 0043d640 f i yassl:yassl_imp.obj
 0001:0003c650       ?size@?$vector@U?$pair@HP6APAUMessage@yaSSL@@XZ@mySTL@@@mySTL@@QBEIXZ 0043d650 f i yassl:yassl_imp.obj
 0001:0003c660       ?capacity@?$vector@U?$pair@HP6APAVHandShakeBase@yaSSL@@XZ@mySTL@@@mySTL@@QBEIXZ 0043d660 f i yassl:yassl_imp.obj
 0001:0003c670       ?size@?$vector@U?$pair@HP6APAVHandShakeBase@yaSSL@@XZ@mySTL@@@mySTL@@QBEIXZ 0043d670 f i yassl:yassl_imp.obj
 0001:0003c680       ?capacity@?$vector@U?$pair@HP6APAUServerKeyBase@yaSSL@@XZ@mySTL@@@mySTL@@QBEIXZ 0043d680 f i yassl:yassl_imp.obj
 0001:0003c690       ?size@?$vector@U?$pair@HP6APAUServerKeyBase@yaSSL@@XZ@mySTL@@@mySTL@@QBEIXZ 0043d690 f i yassl:yassl_imp.obj
 0001:0003c6a0       ?capacity@?$vector@U?$pair@HP6APAUClientKeyBase@yaSSL@@XZ@mySTL@@@mySTL@@QBEIXZ 0043d6a0 f i yassl:yassl_imp.obj
 0001:0003c6b0       ?size@?$vector@U?$pair@HP6APAUClientKeyBase@yaSSL@@XZ@mySTL@@@mySTL@@QBEIXZ 0043d6b0 f i yassl:yassl_imp.obj
 0001:0003c6c0       ??$ysDelete@UServerKeyBase@yaSSL@@@yaSSL@@YAXPAUServerKeyBase@0@@Z 0043d6c0 f i yassl:yassl_imp.obj
 0001:0003c6e0       ??$ysDelete@UClientKeyBase@yaSSL@@@yaSSL@@YAXPAUClientKeyBase@0@@Z 0043d6e0 f i yassl:yassl_imp.obj
 0001:0003c700       ??$construct@U?$pair@HP6APAUMessage@yaSSL@@XZ@mySTL@@U12@@mySTL@@YAXPAU?$pair@HP6APAUMessage@yaSSL@@XZ@0@ABU10@@Z 0043d700 f i yassl:yassl_imp.obj
 0001:0003c720       ??$construct@U?$pair@HP6APAVHandShakeBase@yaSSL@@XZ@mySTL@@U12@@mySTL@@YAXPAU?$pair@HP6APAVHandShakeBase@yaSSL@@XZ@0@ABU10@@Z 0043d720 f i yassl:yassl_imp.obj
 0001:0003c740       ??$construct@U?$pair@HP6APAUServerKeyBase@yaSSL@@XZ@mySTL@@U12@@mySTL@@YAXPAU?$pair@HP6APAUServerKeyBase@yaSSL@@XZ@0@ABU10@@Z 0043d740 f i yassl:yassl_imp.obj
 0001:0003c760       ??$construct@U?$pair@HP6APAUClientKeyBase@yaSSL@@XZ@mySTL@@U12@@mySTL@@YAXPAU?$pair@HP6APAUClientKeyBase@yaSSL@@XZ@0@ABU10@@Z 0043d760 f i yassl:yassl_imp.obj
 0001:0003c780       ??$ysDelete@UAuth@yaSSL@@@yaSSL@@YAXPAUAuth@0@@Z 0043d780 f i yassl:yassl_imp.obj
 0001:0003c7a0       ??$ysDelete@VHandShakeBase@yaSSL@@@yaSSL@@YAXPAVHandShakeBase@0@@Z 0043d7a0 f i yassl:yassl_imp.obj
 0001:0003c7c0       ??$uninit_copy@PAU?$pair@HP6APAUMessage@yaSSL@@XZ@mySTL@@PAU12@@mySTL@@YAPAU?$pair@HP6APAUMessage@yaSSL@@XZ@0@PAU10@00@Z 0043d7c0 f i yassl:yassl_imp.obj
 0001:0003c7f0       ??$uninit_copy@PAU?$pair@HP6APAVHandShakeBase@yaSSL@@XZ@mySTL@@PAU12@@mySTL@@YAPAU?$pair@HP6APAVHandShakeBase@yaSSL@@XZ@0@PAU10@00@Z 0043d7f0 f i yassl:yassl_imp.obj
 0001:0003c820       ??$uninit_copy@PAU?$pair@HP6APAUServerKeyBase@yaSSL@@XZ@mySTL@@PAU12@@mySTL@@YAPAU?$pair@HP6APAUServerKeyBase@yaSSL@@XZ@0@PAU10@00@Z 0043d820 f i yassl:yassl_imp.obj
 0001:0003c850       ??$uninit_copy@PAU?$pair@HP6APAUClientKeyBase@yaSSL@@XZ@mySTL@@PAU12@@mySTL@@YAPAU?$pair@HP6APAUClientKeyBase@yaSSL@@XZ@0@PAU10@00@Z 0043d850 f i yassl:yassl_imp.obj
 0001:0003c880       ??$GetArrayMemory@U?$pair@HP6APAUMessage@yaSSL@@XZ@mySTL@@@mySTL@@YAPAU?$pair@HP6APAUMessage@yaSSL@@XZ@0@I@Z 0043d880 f i yassl:yassl_imp.obj
 0001:0003c8a0       ??$swap@PAU?$pair@HP6APAUMessage@yaSSL@@XZ@mySTL@@@mySTL@@YAXAAPAU?$pair@HP6APAUMessage@yaSSL@@XZ@0@0@Z 0043d8a0 f i yassl:yassl_imp.obj
 0001:0003c8c0       ??$GetArrayMemory@U?$pair@HP6APAVHandShakeBase@yaSSL@@XZ@mySTL@@@mySTL@@YAPAU?$pair@HP6APAVHandShakeBase@yaSSL@@XZ@0@I@Z 0043d8c0 f i yassl:yassl_imp.obj
 0001:0003c8e0       ??$swap@PAU?$pair@HP6APAVHandShakeBase@yaSSL@@XZ@mySTL@@@mySTL@@YAXAAPAU?$pair@HP6APAVHandShakeBase@yaSSL@@XZ@0@0@Z 0043d8e0 f i yassl:yassl_imp.obj
 0001:0003c900       ??$GetArrayMemory@U?$pair@HP6APAUServerKeyBase@yaSSL@@XZ@mySTL@@@mySTL@@YAPAU?$pair@HP6APAUServerKeyBase@yaSSL@@XZ@0@I@Z 0043d900 f i yassl:yassl_imp.obj
 0001:0003c920       ??$swap@PAU?$pair@HP6APAUServerKeyBase@yaSSL@@XZ@mySTL@@@mySTL@@YAXAAPAU?$pair@HP6APAUServerKeyBase@yaSSL@@XZ@0@0@Z 0043d920 f i yassl:yassl_imp.obj
 0001:0003c940       ??$GetArrayMemory@U?$pair@HP6APAUClientKeyBase@yaSSL@@XZ@mySTL@@@mySTL@@YAPAU?$pair@HP6APAUClientKeyBase@yaSSL@@XZ@0@I@Z 0043d940 f i yassl:yassl_imp.obj
 0001:0003c960       ??$swap@PAU?$pair@HP6APAUClientKeyBase@yaSSL@@XZ@mySTL@@@mySTL@@YAXAAPAU?$pair@HP6APAUClientKeyBase@yaSSL@@XZ@0@0@Z 0043d960 f i yassl:yassl_imp.obj
 0001:0003c980       ??0?$pair@HP6APAUMessage@yaSSL@@XZ@mySTL@@QAE@ABHABQ6APAUMessage@yaSSL@@XZ@Z 0043d980 f i yassl:yassl_imp.obj
 0001:0003c9a0       ??0?$pair@HP6APAVHandShakeBase@yaSSL@@XZ@mySTL@@QAE@ABHABQ6APAVHandShakeBase@yaSSL@@XZ@Z 0043d9a0 f i yassl:yassl_imp.obj
 0001:0003c9c0       ??0?$pair@HP6APAUServerKeyBase@yaSSL@@XZ@mySTL@@QAE@ABHABQ6APAUServerKeyBase@yaSSL@@XZ@Z 0043d9c0 f i yassl:yassl_imp.obj
 0001:0003c9e0       ??0?$pair@HP6APAUClientKeyBase@yaSSL@@XZ@mySTL@@QAE@ABHABQ6APAUClientKeyBase@yaSSL@@XZ@Z 0043d9e0 f i yassl:yassl_imp.obj
 0001:0003ca00       ??0node@?$list@PAE@mySTL@@QAE@PAE@Z 0043da00 f i yassl:yassl_imp.obj
 0001:0003ca20       ??$destroy@Unode@?$list@PAE@mySTL@@@mySTL@@YAXPAUnode@?$list@PAE@0@@Z 0043da20 f i yassl:yassl_imp.obj
 0001:0003ca30       ??$swap@PAE@mySTL@@YAXAAPAE0@Z 0043da30 f i yassl:yassl_imp.obj
 0001:0003ca50       ??$ysDelete@E@yaSSL@@YAXPAE@Z 0043da50 f i yassl:yassl_imp.obj
 0001:0003ca60       ??0Alert@yaSSL@@QAE@XZ     0043da60 f i yassl:yassl_imp.obj
 0001:0003ca70       ??_GAlert@yaSSL@@UAEPAXI@Z 0043da70 f i yassl:yassl_imp.obj
 0001:0003ca70       ??_EAlert@yaSSL@@UAEPAXI@Z 0043da70 f i yassl:yassl_imp.obj
 0001:0003ca90       ??_GHandShakeHeader@yaSSL@@UAEPAXI@Z 0043da90 f i yassl:yassl_imp.obj
 0001:0003ca90       ??_EHandShakeHeader@yaSSL@@UAEPAXI@Z 0043da90 f i yassl:yassl_imp.obj
 0001:0003cab0       ?build@EncryptedPreMasterSecret@yaSSL@@UAEXAAVSSL@2@@Z 0043dab0 f   yassl:yassl_imp.obj
 0001:0003cbe0       ?build@ClientDiffieHellmanPublic@yaSSL@@UAEXAAVSSL@2@@Z 0043dbe0 f   yassl:yassl_imp.obj
 0001:0003cc90       ?read@EncryptedPreMasterSecret@yaSSL@@UAEXAAVSSL@2@AAVinput_buffer@2@@Z 0043dc90 f   yassl:yassl_imp.obj
 0001:0003cdb0       ??0EncryptedPreMasterSecret@yaSSL@@QAE@XZ 0043ddb0 f   yassl:yassl_imp.obj
 0001:0003cdd0       ??1EncryptedPreMasterSecret@yaSSL@@UAE@XZ 0043ddd0 f   yassl:yassl_imp.obj
 0001:0003cdf0       ?read@ClientDiffieHellmanPublic@yaSSL@@UAEXAAVSSL@2@AAVinput_buffer@2@@Z 0043ddf0 f   yassl:yassl_imp.obj
 0001:0003cec0       ??1ClientDiffieHellmanPublic@yaSSL@@UAE@XZ 0043dec0 f   yassl:yassl_imp.obj
 0001:0003cee0       ?read@DH_Server@yaSSL@@UAEXAAVSSL@2@AAVinput_buffer@2@@Z 0043dee0 f   yassl:yassl_imp.obj
 0001:0003d2d0       ?SetSuites@Parameters@yaSSL@@QAEXUProtocolVersion@2@_N11@Z 0043e2d0 f   yassl:yassl_imp.obj
 0001:0003d4b0       ??_GChangeCipherSpec@yaSSL@@UAEPAXI@Z 0043e4b0 f i yassl:yassl_imp.obj
 0001:0003d4b0       ??_EChangeCipherSpec@yaSSL@@UAEPAXI@Z 0043e4b0 f i yassl:yassl_imp.obj
 0001:0003d4d0       ?set@Alert@yaSSL@@UAEAAVinput_buffer@2@AAV32@@Z 0043e4d0 f   yassl:yassl_imp.obj
 0001:0003d4f0       ?get@Alert@yaSSL@@UBEAAVoutput_buffer@2@AAV32@@Z 0043e4f0 f   yassl:yassl_imp.obj
 0001:0003d510       ??_EData@yaSSL@@UAEPAXI@Z  0043e510 f i yassl:yassl_imp.obj
 0001:0003d510       ??_GData@yaSSL@@UAEPAXI@Z  0043e510 f i yassl:yassl_imp.obj
 0001:0003d530       ?get@Data@yaSSL@@UBEAAVoutput_buffer@2@AAV32@@Z 0043e530 f   yassl:yassl_imp.obj
 0001:0003d550       ??0Certificate@yaSSL@@QAE@PBVx509@1@@Z 0043e550 f   yassl:yassl_imp.obj
 0001:0003d580       ??_GCertificate@yaSSL@@UAEPAXI@Z 0043e580 f i yassl:yassl_imp.obj
 0001:0003d580       ??_ECertificate@yaSSL@@UAEPAXI@Z 0043e580 f i yassl:yassl_imp.obj
 0001:0003d5a0       ??1ServerDHParams@yaSSL@@QAE@XZ 0043e5a0 f   yassl:yassl_imp.obj
 0001:0003d5d0       ?Process@ServerHello@yaSSL@@UAEXAAVinput_buffer@2@AAVSSL@2@@Z 0043e5d0 f   yassl:yassl_imp.obj
 0001:0003d810       ??_GServerHello@yaSSL@@UAEPAXI@Z 0043e810 f i yassl:yassl_imp.obj
 0001:0003d810       ??_EServerHello@yaSSL@@UAEPAXI@Z 0043e810 f i yassl:yassl_imp.obj
 0001:0003d830       ??_EServerHelloDone@yaSSL@@UAEPAXI@Z 0043e830 f i yassl:yassl_imp.obj
 0001:0003d830       ??_GServerHelloDone@yaSSL@@UAEPAXI@Z 0043e830 f i yassl:yassl_imp.obj
 0001:0003d850       ?Process@ClientHello@yaSSL@@UAEXAAVinput_buffer@2@AAVSSL@2@@Z 0043e850 f   yassl:yassl_imp.obj
 0001:0003db70       ??_GClientHello@yaSSL@@UAEPAXI@Z 0043eb70 f i yassl:yassl_imp.obj
 0001:0003db70       ??_EClientHello@yaSSL@@UAEPAXI@Z 0043eb70 f i yassl:yassl_imp.obj
 0001:0003db90       ??6yaSSL@@YAAAVoutput_buffer@0@AAV10@ABVServerKeyExchange@0@@Z 0043eb90 f   yassl:yassl_imp.obj
 0001:0003dbc0       ??1ServerKeyExchange@yaSSL@@UAE@XZ 0043ebc0 f   yassl:yassl_imp.obj
 0001:0003dbe0       ?get@ServerKeyExchange@yaSSL@@UBEAAVoutput_buffer@2@AAV32@@Z 0043ebe0 f   yassl:yassl_imp.obj
 0001:0003dc00       ??1CertificateVerify@yaSSL@@UAE@XZ 0043ec00 f   yassl:yassl_imp.obj
 0001:0003dc20       ?set@CertificateVerify@yaSSL@@UAEAAVinput_buffer@2@AAV32@@Z 0043ec20 f   yassl:yassl_imp.obj
 0001:0003dc40       ?get@CertificateVerify@yaSSL@@UBEAAVoutput_buffer@2@AAV32@@Z 0043ec40 f   yassl:yassl_imp.obj
 0001:0003dc60       ??6yaSSL@@YAAAVoutput_buffer@0@AAV10@ABVClientKeyExchange@0@@Z 0043ec60 f   yassl:yassl_imp.obj
 0001:0003dc90       ??1ClientKeyExchange@yaSSL@@UAE@XZ 0043ec90 f   yassl:yassl_imp.obj
 0001:0003dcb0       ?get@ClientKeyExchange@yaSSL@@UBEAAVoutput_buffer@2@AAV32@@Z 0043ecb0 f   yassl:yassl_imp.obj
 0001:0003dcd0       ?CleanPreMaster@Connection@yaSSL@@QAEXXZ 0043ecd0 f   yassl:yassl_imp.obj
 0001:0003dd00       ?CreateAlert@yaSSL@@YAPAUMessage@1@XZ 0043ed00 f   yassl:yassl_imp.obj
 0001:0003dd20       ?CreateHelloRequest@yaSSL@@YAPAVHandShakeBase@1@XZ 0043ed20 f   yassl:yassl_imp.obj
 0001:0003dd40       ??_EHelloRequest@yaSSL@@UAEPAXI@Z 0043ed40 f i yassl:yassl_imp.obj
 0001:0003dd40       ??_GHelloRequest@yaSSL@@UAEPAXI@Z 0043ed40 f i yassl:yassl_imp.obj
 0001:0003dd60       ?CreateRSAServerKEA@yaSSL@@YAPAUServerKeyBase@1@XZ 0043ed60 f   yassl:yassl_imp.obj
 0001:0003dd80       ??_GRSA_Server@yaSSL@@UAEPAXI@Z 0043ed80 f i yassl:yassl_imp.obj
 0001:0003dd80       ??_ERSA_Server@yaSSL@@UAEPAXI@Z 0043ed80 f i yassl:yassl_imp.obj
 0001:0003dda0       ?CreateFortezzaServerKEA@yaSSL@@YAPAUServerKeyBase@1@XZ 0043eda0 f   yassl:yassl_imp.obj
 0001:0003ddc0       ??_EFortezza_Server@yaSSL@@UAEPAXI@Z 0043edc0 f i yassl:yassl_imp.obj
 0001:0003ddc0       ??_GFortezza_Server@yaSSL@@UAEPAXI@Z 0043edc0 f i yassl:yassl_imp.obj
 0001:0003dde0       ?CreateRSAClient@yaSSL@@YAPAUClientKeyBase@1@XZ 0043ede0 f   yassl:yassl_imp.obj
 0001:0003de00       ?CreateFortezzaClient@yaSSL@@YAPAUClientKeyBase@1@XZ 0043ee00 f   yassl:yassl_imp.obj
 0001:0003de20       ??_GFortezzaKeys@yaSSL@@UAEPAXI@Z 0043ee20 f i yassl:yassl_imp.obj
 0001:0003de20       ??_EFortezzaKeys@yaSSL@@UAEPAXI@Z 0043ee20 f i yassl:yassl_imp.obj
 0001:0003de40       ?begin@?$list@PAE@mySTL@@QBE?AViterator@12@XZ 0043ee40 f i yassl:yassl_imp.obj
 0001:0003de50       ?end@?$list@PAE@mySTL@@QBE?AViterator@12@XZ 0043ee50 f i yassl:yassl_imp.obj
 0001:0003de60       ?CreateObject@?$Factory@VHandShakeBase@yaSSL@@HP6APAV12@XZ@yaSSL@@QBEPAVHandShakeBase@2@ABH@Z 0043ee60 f i yassl:yassl_imp.obj
 0001:0003de90       ?CreateObject@?$Factory@UServerKeyBase@yaSSL@@HP6APAU12@XZ@yaSSL@@QBEPAUServerKeyBase@2@ABH@Z 0043ee90 f i yassl:yassl_imp.obj
 0001:0003dec0       ?CreateObject@?$Factory@UClientKeyBase@yaSSL@@HP6APAU12@XZ@yaSSL@@QBEPAUClientKeyBase@2@ABH@Z 0043eec0 f i yassl:yassl_imp.obj
 0001:0003def0       ?Destroy@?$auto_ptr@UAuth@yaSSL@@@mySTL@@AAEXXZ 0043eef0 f i yassl:yassl_imp.obj
 0001:0003df00       ?Destroy@?$auto_ptr@VHandShakeBase@yaSSL@@@mySTL@@AAEXXZ 0043ef00 f i yassl:yassl_imp.obj
 0001:0003df10       ?Destroy@?$auto_array@E@mySTL@@AAEXXZ 0043ef10 f i yassl:yassl_imp.obj
 0001:0003df20       ??0?$vector_base@U?$pair@HP6APAUMessage@yaSSL@@XZ@mySTL@@@mySTL@@QAE@I@Z 0043ef20 f i yassl:yassl_imp.obj
 0001:0003df50       ?Swap@?$vector_base@U?$pair@HP6APAUMessage@yaSSL@@XZ@mySTL@@@mySTL@@QAEXAAU12@@Z 0043ef50 f i yassl:yassl_imp.obj
 0001:0003df80       ??0?$vector_base@U?$pair@HP6APAVHandShakeBase@yaSSL@@XZ@mySTL@@@mySTL@@QAE@I@Z 0043ef80 f i yassl:yassl_imp.obj
 0001:0003dfb0       ?Swap@?$vector_base@U?$pair@HP6APAVHandShakeBase@yaSSL@@XZ@mySTL@@@mySTL@@QAEXAAU12@@Z 0043efb0 f i yassl:yassl_imp.obj
 0001:0003dfe0       ??0?$vector_base@U?$pair@HP6APAUServerKeyBase@yaSSL@@XZ@mySTL@@@mySTL@@QAE@I@Z 0043efe0 f i yassl:yassl_imp.obj
 0001:0003e010       ?Swap@?$vector_base@U?$pair@HP6APAUServerKeyBase@yaSSL@@XZ@mySTL@@@mySTL@@QAEXAAU12@@Z 0043f010 f i yassl:yassl_imp.obj
 0001:0003e040       ??0?$vector_base@U?$pair@HP6APAUClientKeyBase@yaSSL@@XZ@mySTL@@@mySTL@@QAE@I@Z 0043f040 f i yassl:yassl_imp.obj
 0001:0003e070       ?Swap@?$vector_base@U?$pair@HP6APAUClientKeyBase@yaSSL@@XZ@mySTL@@@mySTL@@QAEXAAU12@@Z 0043f070 f i yassl:yassl_imp.obj
 0001:0003e0a0       ?push_back@?$list@PAE@mySTL@@QAEXPAE@Z 0043f0a0 f i yassl:yassl_imp.obj
 0001:0003e0f0       ??$make_pair@HP6APAUMessage@yaSSL@@XZ@mySTL@@YA?AU?$pair@HP6APAUMessage@yaSSL@@XZ@0@ABHABQ6APAUMessage@yaSSL@@XZ@Z 0043f0f0 f i yassl:yassl_imp.obj
 0001:0003e110       ??$make_pair@HP6APAVHandShakeBase@yaSSL@@XZ@mySTL@@YA?AU?$pair@HP6APAVHandShakeBase@yaSSL@@XZ@0@ABHABQ6APAVHandShakeBase@yaSSL@@XZ@Z 0043f110 f i yassl:yassl_imp.obj
 0001:0003e130       ??$make_pair@HP6APAUServerKeyBase@yaSSL@@XZ@mySTL@@YA?AU?$pair@HP6APAUServerKeyBase@yaSSL@@XZ@0@ABHABQ6APAUServerKeyBase@yaSSL@@XZ@Z 0043f130 f i yassl:yassl_imp.obj
 0001:0003e150       ??$make_pair@HP6APAUClientKeyBase@yaSSL@@XZ@mySTL@@YA?AU?$pair@HP6APAUClientKeyBase@yaSSL@@XZ@0@ABHABQ6APAUClientKeyBase@yaSSL@@XZ@Z 0043f150 f i yassl:yassl_imp.obj
 0001:0003e170       ??$checked_delete@E@yaSSL@@YAXPAE@Z 0043f170 f i yassl:yassl_imp.obj
 0001:0003e180       ?createKey@ClientKeyExchange@yaSSL@@QAEXAAVSSL@2@@Z 0043f180 f   yassl:yassl_imp.obj
 0001:0003e1f0       ?createKey@ServerKeyExchange@yaSSL@@QAEXAAVSSL@2@@Z 0043f1f0 f   yassl:yassl_imp.obj
 0001:0003e260       ??_GEncryptedPreMasterSecret@yaSSL@@UAEPAXI@Z 0043f260 f i yassl:yassl_imp.obj
 0001:0003e260       ??_EEncryptedPreMasterSecret@yaSSL@@UAEPAXI@Z 0043f260 f i yassl:yassl_imp.obj
 0001:0003e280       ??_EClientDiffieHellmanPublic@yaSSL@@UAEPAXI@Z 0043f280 f i yassl:yassl_imp.obj
 0001:0003e280       ??_GClientDiffieHellmanPublic@yaSSL@@UAEPAXI@Z 0043f280 f i yassl:yassl_imp.obj
 0001:0003e2a0       ??0DH_Server@yaSSL@@QAE@XZ 0043f2a0 f   yassl:yassl_imp.obj
 0001:0003e2c0       ??1DH_Server@yaSSL@@UAE@XZ 0043f2c0 f   yassl:yassl_imp.obj
 0001:0003e2f0       ??0Parameters@yaSSL@@QAE@W4ConnectionEnd@1@ABUCiphers@1@UProtocolVersion@1@_N@Z 0043f2f0 f   yassl:yassl_imp.obj
 0001:0003e380       ?Process@ServerKeyExchange@yaSSL@@UAEXAAVinput_buffer@2@AAVSSL@2@@Z 0043f380 f   yassl:yassl_imp.obj
 0001:0003e3d0       ??0ServerKeyExchange@yaSSL@@QAE@AAVSSL@1@@Z 0043f3d0 f   yassl:yassl_imp.obj
 0001:0003e3f0       ??_EServerKeyExchange@yaSSL@@UAEPAXI@Z 0043f3f0 f i yassl:yassl_imp.obj
 0001:0003e3f0       ??_GServerKeyExchange@yaSSL@@UAEPAXI@Z 0043f3f0 f i yassl:yassl_imp.obj
 0001:0003e410       ?Build@CertificateRequest@yaSSL@@QAEXXZ 0043f410 f   yassl:yassl_imp.obj
 0001:0003e430       ??5yaSSL@@YAAAVinput_buffer@0@AAV10@AAVCertificateRequest@0@@Z 0043f430 f   yassl:yassl_imp.obj
 0001:0003e520       ??6yaSSL@@YAAAVoutput_buffer@0@AAV10@ABVCertificateRequest@0@@Z 0043f520 f   yassl:yassl_imp.obj
 0001:0003e5e0       ??_ECertificateVerify@yaSSL@@UAEPAXI@Z 0043f5e0 f i yassl:yassl_imp.obj
 0001:0003e5e0       ??_GCertificateVerify@yaSSL@@UAEPAXI@Z 0043f5e0 f i yassl:yassl_imp.obj
 0001:0003e600       ?Process@ClientKeyExchange@yaSSL@@UAEXAAVinput_buffer@2@AAVSSL@2@@Z 0043f600 f   yassl:yassl_imp.obj
 0001:0003e680       ??0ClientKeyExchange@yaSSL@@QAE@AAVSSL@1@@Z 0043f680 f   yassl:yassl_imp.obj
 0001:0003e6a0       ??_GClientKeyExchange@yaSSL@@UAEPAXI@Z 0043f6a0 f i yassl:yassl_imp.obj
 0001:0003e6a0       ??_EClientKeyExchange@yaSSL@@UAEPAXI@Z 0043f6a0 f i yassl:yassl_imp.obj
 0001:0003e6c0       ??1Connection@yaSSL@@QAE@XZ 0043f6c0 f   yassl:yassl_imp.obj
 0001:0003e6e0       ?CreateDHServerKEA@yaSSL@@YAPAUServerKeyBase@1@XZ 0043f6e0 f   yassl:yassl_imp.obj
 0001:0003e700       ??1?$auto_ptr@UAuth@yaSSL@@@mySTL@@QAE@XZ 0043f700 f i yassl:yassl_imp.obj
 0001:0003e710       ?reset@?$auto_ptr@UAuth@yaSSL@@@mySTL@@QAEXPAUAuth@yaSSL@@@Z 0043f710 f i yassl:yassl_imp.obj
 0001:0003e730       ??1?$auto_ptr@VHandShakeBase@yaSSL@@@mySTL@@QAE@XZ 0043f730 f i yassl:yassl_imp.obj
 0001:0003e740       ??1?$auto_array@E@mySTL@@QAE@XZ 0043f740 f i yassl:yassl_imp.obj
 0001:0003e750       ?reset@?$auto_array@E@mySTL@@QAEXPAE@Z 0043f750 f i yassl:yassl_imp.obj
 0001:0003e770       ?Swap@?$vector@U?$pair@HP6APAUMessage@yaSSL@@XZ@mySTL@@@mySTL@@QAEXAAV12@@Z 0043f770 f i yassl:yassl_imp.obj
 0001:0003e7a0       ??0?$vector@U?$pair@HP6APAUMessage@yaSSL@@XZ@mySTL@@@mySTL@@AAE@IABV01@@Z 0043f7a0 f i yassl:yassl_imp.obj
 0001:0003e7e0       ?Swap@?$vector@U?$pair@HP6APAVHandShakeBase@yaSSL@@XZ@mySTL@@@mySTL@@QAEXAAV12@@Z 0043f7e0 f i yassl:yassl_imp.obj
 0001:0003e810       ??0?$vector@U?$pair@HP6APAVHandShakeBase@yaSSL@@XZ@mySTL@@@mySTL@@AAE@IABV01@@Z 0043f810 f i yassl:yassl_imp.obj
 0001:0003e850       ?Swap@?$vector@U?$pair@HP6APAUServerKeyBase@yaSSL@@XZ@mySTL@@@mySTL@@QAEXAAV12@@Z 0043f850 f i yassl:yassl_imp.obj
 0001:0003e880       ??0?$vector@U?$pair@HP6APAUServerKeyBase@yaSSL@@XZ@mySTL@@@mySTL@@AAE@IABV01@@Z 0043f880 f i yassl:yassl_imp.obj
 0001:0003e8c0       ?Swap@?$vector@U?$pair@HP6APAUClientKeyBase@yaSSL@@XZ@mySTL@@@mySTL@@QAEXAAV12@@Z 0043f8c0 f i yassl:yassl_imp.obj
 0001:0003e8f0       ??0?$vector@U?$pair@HP6APAUClientKeyBase@yaSSL@@XZ@mySTL@@@mySTL@@AAE@IABV01@@Z 0043f8f0 f i yassl:yassl_imp.obj
 0001:0003e930       ??1?$list@PAE@mySTL@@QAE@XZ 0043f930 f i yassl:yassl_imp.obj
 0001:0003e950       ??$?RE@del_ptr_zero@yaSSL@@QBEXAAPAE@Z 0043f950 f i yassl:yassl_imp.obj
 0001:0003e970       ?build@DH_Server@yaSSL@@UAEXAAVSSL@2@@Z 0043f970 f   yassl:yassl_imp.obj
 0001:0003edc0       ??_EDH_Server@yaSSL@@UAEPAXI@Z 0043fdc0 f i yassl:yassl_imp.obj
 0001:0003edc0       ??_GDH_Server@yaSSL@@UAEPAXI@Z 0043fdc0 f i yassl:yassl_imp.obj
 0001:0003ede0       ?Process@HandShakeHeader@yaSSL@@UAEXAAVinput_buffer@2@AAVSSL@2@@Z 0043fde0 f   yassl:yassl_imp.obj
 0001:0003eed0       ??0CertificateRequest@yaSSL@@QAE@XZ 0043fed0 f   yassl:yassl_imp.obj
 0001:0003ef00       ?set@CertificateRequest@yaSSL@@UAEAAVinput_buffer@2@AAV32@@Z 0043ff00 f   yassl:yassl_imp.obj
 0001:0003ef20       ?get@CertificateRequest@yaSSL@@UBEAAVoutput_buffer@2@AAV32@@Z 0043ff20 f   yassl:yassl_imp.obj
 0001:0003ef40       ?Build@CertificateVerify@yaSSL@@QAEXAAVSSL@2@@Z 0043ff40 f   yassl:yassl_imp.obj
 0001:0003f0f0       ?CreateCertificateRequest@yaSSL@@YAPAVHandShakeBase@1@XZ 004400f0 f   yassl:yassl_imp.obj
 0001:0003f110       ?push_back@?$vector@U?$pair@HP6APAUMessage@yaSSL@@XZ@mySTL@@@mySTL@@QAEXABU?$pair@HP6APAUMessage@yaSSL@@XZ@2@@Z 00440110 f i yassl:yassl_imp.obj
 0001:0003f190       ?reserve@?$vector@U?$pair@HP6APAUMessage@yaSSL@@XZ@mySTL@@@mySTL@@QAEXI@Z 00440190 f i yassl:yassl_imp.obj
 0001:0003f1e0       ?push_back@?$vector@U?$pair@HP6APAVHandShakeBase@yaSSL@@XZ@mySTL@@@mySTL@@QAEXABU?$pair@HP6APAVHandShakeBase@yaSSL@@XZ@2@@Z 004401e0 f i yassl:yassl_imp.obj
 0001:0003f260       ?reserve@?$vector@U?$pair@HP6APAVHandShakeBase@yaSSL@@XZ@mySTL@@@mySTL@@QAEXI@Z 00440260 f i yassl:yassl_imp.obj
 0001:0003f2b0       ?push_back@?$vector@U?$pair@HP6APAUServerKeyBase@yaSSL@@XZ@mySTL@@@mySTL@@QAEXABU?$pair@HP6APAUServerKeyBase@yaSSL@@XZ@2@@Z 004402b0 f i yassl:yassl_imp.obj
 0001:0003f330       ?reserve@?$vector@U?$pair@HP6APAUServerKeyBase@yaSSL@@XZ@mySTL@@@mySTL@@QAEXI@Z 00440330 f i yassl:yassl_imp.obj
 0001:0003f380       ?push_back@?$vector@U?$pair@HP6APAUClientKeyBase@yaSSL@@XZ@mySTL@@@mySTL@@QAEXABU?$pair@HP6APAUClientKeyBase@yaSSL@@XZ@2@@Z 00440380 f i yassl:yassl_imp.obj
 0001:0003f400       ?reserve@?$vector@U?$pair@HP6APAUClientKeyBase@yaSSL@@XZ@mySTL@@@mySTL@@QAEXI@Z 00440400 f i yassl:yassl_imp.obj
 0001:0003f450       ??$for_each@Viterator@?$list@PAE@mySTL@@Udel_ptr_zero@yaSSL@@@mySTL@@YA?AUdel_ptr_zero@yaSSL@@Viterator@?$list@PAE@0@0U12@@Z 00440450 f i yassl:yassl_imp.obj
 0001:0003f490       ??1CertificateRequest@yaSSL@@UAE@XZ 00440490 f   yassl:yassl_imp.obj
 0001:0003f4d0       ?Reserve@?$Factory@UMessage@yaSSL@@HP6APAU12@XZ@yaSSL@@QAEXI@Z 004404d0 f i yassl:yassl_imp.obj
 0001:0003f520       ?Register@?$Factory@UMessage@yaSSL@@HP6APAU12@XZ@yaSSL@@QAEXABHP6APAUMessage@2@XZ@Z 00440520 f i yassl:yassl_imp.obj
 0001:0003f550       ?Reserve@?$Factory@VHandShakeBase@yaSSL@@HP6APAV12@XZ@yaSSL@@QAEXI@Z 00440550 f i yassl:yassl_imp.obj
 0001:0003f5a0       ?Register@?$Factory@VHandShakeBase@yaSSL@@HP6APAV12@XZ@yaSSL@@QAEXABHP6APAVHandShakeBase@2@XZ@Z 004405a0 f i yassl:yassl_imp.obj
 0001:0003f5d0       ?Reserve@?$Factory@UServerKeyBase@yaSSL@@HP6APAU12@XZ@yaSSL@@QAEXI@Z 004405d0 f i yassl:yassl_imp.obj
 0001:0003f620       ?Register@?$Factory@UServerKeyBase@yaSSL@@HP6APAU12@XZ@yaSSL@@QAEXABHP6APAUServerKeyBase@2@XZ@Z 00440620 f i yassl:yassl_imp.obj
 0001:0003f650       ?Reserve@?$Factory@UClientKeyBase@yaSSL@@HP6APAU12@XZ@yaSSL@@QAEXI@Z 00440650 f i yassl:yassl_imp.obj
 0001:0003f6a0       ?Register@?$Factory@UClientKeyBase@yaSSL@@HP6APAU12@XZ@yaSSL@@QAEXABHP6APAUClientKeyBase@2@XZ@Z 004406a0 f i yassl:yassl_imp.obj
 0001:0003f6d0       ??_GCertificateRequest@yaSSL@@UAEPAXI@Z 004406d0 f i yassl:yassl_imp.obj
 0001:0003f6d0       ??_ECertificateRequest@yaSSL@@UAEPAXI@Z 004406d0 f i yassl:yassl_imp.obj
 0001:0003f6f0       ?InitMessageFactory@yaSSL@@YAXAAV?$Factory@UMessage@yaSSL@@HP6APAU12@XZ@1@@Z 004406f0 f   yassl:yassl_imp.obj
 0001:0003f7b0       ?InitHandShakeFactory@yaSSL@@YAXAAV?$Factory@VHandShakeBase@yaSSL@@HP6APAV12@XZ@1@@Z 004407b0 f   yassl:yassl_imp.obj
 0001:0003f920       ?InitServerKeyFactory@yaSSL@@YAXAAV?$Factory@UServerKeyBase@yaSSL@@HP6APAU12@XZ@1@@Z 00440920 f   yassl:yassl_imp.obj
 0001:0003f9c0       ?InitClientKeyFactory@yaSSL@@YAXAAV?$Factory@UClientKeyBase@yaSSL@@HP6APAU12@XZ@1@@Z 004409c0 f   yassl:yassl_imp.obj
 0001:0003fa60       ??0Socket@yaSSL@@QAE@I@Z   00440a60 f   yassl:socket_wrapper.obj
 0001:0003fa80       ?set_fd@Socket@yaSSL@@QAEXI@Z 00440a80 f   yassl:socket_wrapper.obj
 0001:0003fa90       ?get_fd@Socket@yaSSL@@QBEIXZ 00440a90 f   yassl:socket_wrapper.obj
 0001:0003faa0       ??1Socket@yaSSL@@QAE@XZ    00440aa0 f   yassl:socket_wrapper.obj
 0001:0003fab0       ?closeSocket@Socket@yaSSL@@QAEXXZ 00440ab0 f   yassl:socket_wrapper.obj
 0001:0003fad0       ?get_ready@Socket@yaSSL@@QBEIXZ 00440ad0 f   yassl:socket_wrapper.obj
 0001:0003faf0       ?send@Socket@yaSSL@@QBEIPBEIH@Z 00440af0 f   yassl:socket_wrapper.obj
 0001:0003fb40       ?shutDown@Socket@yaSSL@@QAEXH@Z 00440b40 f   yassl:socket_wrapper.obj
 0001:0003fb60       ?get_lastError@Socket@yaSSL@@SAHXZ 00440b60 f   yassl:socket_wrapper.obj
 0001:0003fb70       ?WouldBlock@Socket@yaSSL@@QBE_NXZ 00440b70 f   yassl:socket_wrapper.obj
 0001:0003fb80       ?IsNonBlocking@Socket@yaSSL@@QBE_NXZ 00440b80 f   yassl:socket_wrapper.obj
 0001:0003fb90       ?set_lastError@Socket@yaSSL@@SAXH@Z 00440b90 f   yassl:socket_wrapper.obj
 0001:0003fba0       ?receive@Socket@yaSSL@@QAEIPAEIH@Z 00440ba0 f   yassl:socket_wrapper.obj
 0001:0003fc10       ?wait@Socket@yaSSL@@QAE_NXZ 00440c10 f   yassl:socket_wrapper.obj
 0001:0003fc30       ??0Log@yaSSL@@QAE@PBD@Z    00440c30 f   yassl:log.obj
 0001:0003fc40       ??1Log@yaSSL@@QAE@XZ       00440c40 f   yassl:log.obj
 0001:0003fc50       ?Trace@Log@yaSSL@@QAEXPBD@Z 00440c50 f   yassl:log.obj
 0001:0003fc60       ?ShowTCP@Log@yaSSL@@QAEXI_N@Z 00440c60 f   yassl:log.obj
 0001:0003fc70       ?ShowData@Log@yaSSL@@QAEXI_N@Z 00440c70 f   yassl:log.obj
 0001:0003fc80       ?buildClientHello@yaSSL@@YAXAAVSSL@1@AAVClientHello@1@@Z 00440c80 f   yassl:handshake.obj
 0001:0003fd60       ?buildServerHello@yaSSL@@YAXAAVSSL@1@AAVServerHello@1@@Z 00440d60 f   yassl:handshake.obj
 0001:0003fe40       ?hashHandShake@yaSSL@@YAXAAVSSL@1@ABVinput_buffer@1@I@Z 00440e40 f   yassl:handshake.obj
 0001:0003fea0       ?buildOutput@?A0x7f60fe72@yaSSL@@YAXAAVoutput_buffer@2@ABURecordLayerHeader@2@ABUMessage@2@@Z 00440ea0 f   yassl:handshake.obj
 0001:0003fee0       ?buildOutput@?A0x7f60fe72@yaSSL@@YAXAAVoutput_buffer@2@ABURecordLayerHeader@2@ABVHandShakeHeader@2@ABVHandShakeBase@2@@Z 00440ee0 f   yassl:handshake.obj
 0001:0003ff30       ?buildHeader@?A0x7f60fe72@yaSSL@@YAXAAVSSL@2@AAURecordLayerHeader@2@ABUMessage@2@@Z 00440f30 f   yassl:handshake.obj
 0001:0003ff80       ?buildHeaders@?A0x7f60fe72@yaSSL@@YAXAAVSSL@2@AAVHandShakeHeader@2@AAURecordLayerHeader@2@ABVHandShakeBase@2@@Z 00440f80 f   yassl:handshake.obj
 0001:0003ffe0       ?hashHandShake@?A0x7f60fe72@yaSSL@@YAXAAVSSL@2@ABVoutput_buffer@2@_N@Z 00440fe0 f   yassl:handshake.obj
 0001:00040060       ?buildMD5@?A0x7f60fe72@yaSSL@@YAXAAVSSL@2@AAVFinished@2@PBE@Z 00441060 f   yassl:handshake.obj
 0001:00040180       ?buildSHA@?A0x7f60fe72@yaSSL@@YAXAAVSSL@2@AAVFinished@2@PBE@Z 00441180 f   yassl:handshake.obj
 0001:000402b0       ?decrypt_message@?A0x7f60fe72@yaSSL@@YAXAAVSSL@2@AAVinput_buffer@2@I@Z 004412b0 f   yassl:handshake.obj
 0001:00040380       ??6?A0x7f60fe72@yaSSL@@YAAAVoutput_buffer@1@AAV21@ABVinput_buffer@1@@Z 00441380 f   yassl:handshake.obj
 0001:000403b0       ??0RecordLayerHeader@yaSSL@@QAE@XZ 004413b0 f i yassl:handshake.obj
 0001:000403d0       ?get_xor@?A0x7f60fe72@yaSSL@@YAXPAEIAAVoutput_buffer@2@1@Z 004413d0 f   yassl:handshake.obj
 0001:00040420       ?buildMD5_CertVerify@?A0x7f60fe72@yaSSL@@YAXAAVSSL@2@PAE@Z 00441420 f   yassl:handshake.obj
 0001:00040530       ?buildSHA_CertVerify@?A0x7f60fe72@yaSSL@@YAXAAVSSL@2@PAE@Z 00441530 f   yassl:handshake.obj
 0001:00040650       ?hmac@yaSSL@@YAXAAVSSL@1@PAEPBEIW4ContentType@1@_N@Z 00441650 f   yassl:handshake.obj
 0001:000407f0       ?build_certHashes@yaSSL@@YAXAAVSSL@1@AAUHashes@1@@Z 004417f0 f   yassl:handshake.obj
 0001:000408e0       ?sendClientHello@yaSSL@@YAXAAVSSL@1@@Z 004418e0 f   yassl:handshake.obj
 0001:00040a00       ??0?$auto_ptr@UDigest@yaSSL@@@mySTL@@QAE@PAUDigest@yaSSL@@@Z 00441a00 f i yassl:handshake.obj
 0001:00040a10       ??C?$auto_ptr@UDigest@yaSSL@@@mySTL@@QBEPAUDigest@yaSSL@@XZ 00441a10 f i yassl:handshake.obj
 0001:00040a20       ??0?$auto_ptr@UMessage@yaSSL@@@mySTL@@QAE@PAUMessage@yaSSL@@@Z 00441a20 f i yassl:handshake.obj
 0001:00040a30       ??C?$auto_ptr@UMessage@yaSSL@@@mySTL@@QBEPAUMessage@yaSSL@@XZ 00441a30 f i yassl:handshake.obj
 0001:00040a40       ??D?$auto_ptr@UMessage@yaSSL@@@mySTL@@QBEAAUMessage@yaSSL@@XZ 00441a40 f i yassl:handshake.obj
 0001:00040a50       ?get@?$auto_ptr@UMessage@yaSSL@@@mySTL@@QBEPAUMessage@yaSSL@@XZ 00441a50 f i yassl:handshake.obj
 0001:00040a60       ??0?$auto_ptr@Voutput_buffer@yaSSL@@@mySTL@@QAE@PAVoutput_buffer@yaSSL@@@Z 00441a60 f i yassl:handshake.obj
 0001:00040a70       ??C?$auto_ptr@Voutput_buffer@yaSSL@@@mySTL@@QBEPAVoutput_buffer@yaSSL@@XZ 00441a70 f i yassl:handshake.obj
 0001:00040a80       ?get@?$auto_ptr@Voutput_buffer@yaSSL@@@mySTL@@QBEPAVoutput_buffer@yaSSL@@XZ 00441a80 f i yassl:handshake.obj
 0001:00040a90       ?release@?$auto_ptr@Voutput_buffer@yaSSL@@@mySTL@@QAEPAVoutput_buffer@yaSSL@@XZ 00441a90 f i yassl:handshake.obj
 0001:00040aa0       ?begin@?$vector@U?$pair@HP6APAUMessage@yaSSL@@XZ@mySTL@@@mySTL@@QBEPBU?$pair@HP6APAUMessage@yaSSL@@XZ@2@XZ 00441aa0 f i yassl:handshake.obj
 0001:00040ab0       ?end@?$vector@U?$pair@HP6APAUMessage@yaSSL@@XZ@mySTL@@@mySTL@@QBEPBU?$pair@HP6APAUMessage@yaSSL@@XZ@2@XZ 00441ab0 f i yassl:handshake.obj
 0001:00040ac0       ??$ysDelete@UMessage@yaSSL@@@yaSSL@@YAXPAUMessage@0@@Z 00441ac0 f i yassl:handshake.obj
 0001:00040ae0       ?ProcessOldClientHello@yaSSL@@YAXAAVinput_buffer@1@AAVSSL@1@@Z 00441ae0 f   yassl:handshake.obj
 0001:00040d70       ?CreateObject@?$Factory@UMessage@yaSSL@@HP6APAU12@XZ@yaSSL@@QBEPAUMessage@2@ABH@Z 00441d70 f i yassl:handshake.obj
 0001:00040da0       ?Destroy@?$auto_ptr@UDigest@yaSSL@@@mySTL@@AAEXXZ 00441da0 f i yassl:handshake.obj
 0001:00040db0       ?Destroy@?$auto_ptr@UMessage@yaSSL@@@mySTL@@AAEXXZ 00441db0 f i yassl:handshake.obj
 0001:00040dc0       ??1?$auto_ptr@UDigest@yaSSL@@@mySTL@@QAE@XZ 00441dc0 f i yassl:handshake.obj
 0001:00040dd0       ?reset@?$auto_ptr@UDigest@yaSSL@@@mySTL@@QAEXPAUDigest@yaSSL@@@Z 00441dd0 f i yassl:handshake.obj
 0001:00040df0       ??1?$auto_ptr@UMessage@yaSSL@@@mySTL@@QAE@XZ 00441df0 f i yassl:handshake.obj
 0001:00040e00       ?Destroy@?$auto_ptr@Voutput_buffer@yaSSL@@@mySTL@@AAEXXZ 00441e00 f i yassl:handshake.obj
 0001:00040e10       ?p_hash@?A0x7f60fe72@yaSSL@@YAXAAVoutput_buffer@2@ABV32@1W4MACAlgorithm@2@@Z 00441e10 f   yassl:handshake.obj
 0001:00040fb0       ?TLS_hmac@yaSSL@@YAXAAVSSL@1@PAEPBEIW4ContentType@1@_N@Z 00441fb0 f   yassl:handshake.obj
 0001:00041150       ?PRF@yaSSL@@YAXPAEIPBEI1I1I@Z 00442150 f   yassl:handshake.obj
 0001:00041280       ?DoProcessReply@yaSSL@@YAHAAVSSL@1@@Z 00442280 f   yassl:handshake.obj
 0001:000415d0       ?processReply@yaSSL@@YAXAAVSSL@1@@Z 004425d0 f   yassl:handshake.obj
 0001:00041640       ?receiveData@yaSSL@@YAHAAVSSL@1@AAVData@1@_N@Z 00442640 f   yassl:handshake.obj
 0001:00041710       ??1?$auto_ptr@Voutput_buffer@yaSSL@@@mySTL@@QAE@XZ 00442710 f i yassl:handshake.obj
 0001:00041720       ?cipherFinished@?A0x7f60fe72@yaSSL@@YAXAAVSSL@2@AAVFinished@2@AAVoutput_buffer@2@@Z 00442720 f   yassl:handshake.obj
 0001:00041a00       ?buildMessage@?A0x7f60fe72@yaSSL@@YAXAAVSSL@2@AAVoutput_buffer@2@ABUMessage@2@@Z 00442a00 f   yassl:handshake.obj
 0001:00041cc0       ?buildAlert@?A0x7f60fe72@yaSSL@@YAXAAVSSL@2@AAVoutput_buffer@2@ABVAlert@2@@Z 00442cc0 f   yassl:handshake.obj
 0001:00041d30       ?buildFinishedTLS@?A0x7f60fe72@yaSSL@@YAXAAVSSL@2@AAVFinished@2@PBE@Z 00442d30 f   yassl:handshake.obj
 0001:00041df0       ?buildFinished@yaSSL@@YAXAAVSSL@1@AAVFinished@1@PBE@Z 00442df0 f   yassl:handshake.obj
 0001:00041ec0       ?sendClientKeyExchange@yaSSL@@YAXAAVSSL@1@W4BufferOutput@1@@Z 00442ec0 f   yassl:handshake.obj
 0001:00041fd0       ?sendServerKeyExchange@yaSSL@@YAXAAVSSL@1@W4BufferOutput@1@@Z 00442fd0 f   yassl:handshake.obj
 0001:000420d0       ?sendChangeCipher@yaSSL@@YAXAAVSSL@1@W4BufferOutput@1@@Z 004430d0 f   yassl:handshake.obj
 0001:000421c0       ?sendFinished@yaSSL@@YAXAAVSSL@1@W4ConnectionEnd@1@W4BufferOutput@1@@Z 004431c0 f   yassl:handshake.obj
 0001:00042300       ?sendData@yaSSL@@YAHAAVSSL@1@PBXH@Z 00443300 f   yassl:handshake.obj
 0001:00042470       ?sendAlert@yaSSL@@YAHAAVSSL@1@ABVAlert@1@@Z 00443470 f   yassl:handshake.obj
 0001:000424d0       ?sendServerHello@yaSSL@@YAXAAVSSL@1@W4BufferOutput@1@@Z 004434d0 f   yassl:handshake.obj
 0001:00042620       ?sendServerHelloDone@yaSSL@@YAXAAVSSL@1@W4BufferOutput@1@@Z 00443620 f   yassl:handshake.obj
 0001:00042700       ?sendCertificate@yaSSL@@YAXAAVSSL@1@W4BufferOutput@1@@Z 00443700 f   yassl:handshake.obj
 0001:000427f0       ?sendCertificateRequest@yaSSL@@YAXAAVSSL@1@W4BufferOutput@1@@Z 004437f0 f   yassl:handshake.obj
 0001:000428f0       ?sendCertificateVerify@yaSSL@@YAXAAVSSL@1@W4BufferOutput@1@@Z 004438f0 f   yassl:handshake.obj
 0001:000429f0       ?GetKey@PublicKey@TaoCrypt@@QBEPBEXZ 004439f0 f i yassl:cert_wrapper.obj
 0001:00042a00       ?size@PublicKey@TaoCrypt@@QBEIXZ 00443a00 f i yassl:cert_wrapper.obj
 0001:00042a10       ?GetPublicKey@CertDecoder@TaoCrypt@@QBEABVPublicKey@2@XZ 00443a10 f i yassl:cert_wrapper.obj
 0001:00042a20       ?GetKeyType@CertDecoder@TaoCrypt@@QBE?AW4KeyType@2@XZ 00443a20 f i yassl:cert_wrapper.obj
 0001:00042a30       ?GetIssuer@CertDecoder@TaoCrypt@@QBEPBDXZ 00443a30 f i yassl:cert_wrapper.obj
 0001:00042a40       ?GetCommonName@CertDecoder@TaoCrypt@@QBEPBDXZ 00443a40 f i yassl:cert_wrapper.obj
 0001:00042a50       ?GetHash@CertDecoder@TaoCrypt@@QBEPBEXZ 00443a50 f i yassl:cert_wrapper.obj
 0001:00042a60       ?GetBeforeDate@CertDecoder@TaoCrypt@@QBEPBDXZ 00443a60 f i yassl:cert_wrapper.obj
 0001:00042a70       ?GetAfterDate@CertDecoder@TaoCrypt@@QBEPBDXZ 00443a70 f i yassl:cert_wrapper.obj
 0001:00042a80       ??0x509@yaSSL@@QAE@I@Z     00443a80 f   yassl:cert_wrapper.obj
 0001:00042aa0       ??0x509@yaSSL@@QAE@ABV01@@Z 00443aa0 f   yassl:cert_wrapper.obj
 0001:00042ad0       ?get_length@x509@yaSSL@@QBEIXZ 00443ad0 f   yassl:cert_wrapper.obj
 0001:00042ae0       ?get_buffer@x509@yaSSL@@QBEPBEXZ 00443ae0 f   yassl:cert_wrapper.obj
 0001:00042af0       ?use_buffer@x509@yaSSL@@QAEPAEXZ 00443af0 f   yassl:cert_wrapper.obj
 0001:00042b00       ?verifyPeer@CertManager@yaSSL@@QBE_NXZ 00443b00 f   yassl:cert_wrapper.obj
 0001:00042b10       ?verifyNone@CertManager@yaSSL@@QBE_NXZ 00443b10 f   yassl:cert_wrapper.obj
 0001:00042b20       ?failNoCert@CertManager@yaSSL@@QBE_NXZ 00443b20 f   yassl:cert_wrapper.obj
 0001:00042b30       ?sendVerify@CertManager@yaSSL@@QBE_NXZ 00443b30 f   yassl:cert_wrapper.obj
 0001:00042b40       ?setVerifyPeer@CertManager@yaSSL@@QAEXXZ 00443b40 f   yassl:cert_wrapper.obj
 0001:00042b50       ?setVerifyNone@CertManager@yaSSL@@QAEXXZ 00443b50 f   yassl:cert_wrapper.obj
 0001:00042b60       ?setFailNoCert@CertManager@yaSSL@@QAEXXZ 00443b60 f   yassl:cert_wrapper.obj
 0001:00042b70       ?setSendVerify@CertManager@yaSSL@@QAEXXZ 00443b70 f   yassl:cert_wrapper.obj
 0001:00042b80       ?setVerifyCallback@CertManager@yaSSL@@QAEXP6AHHPAUX509_STORE_CTX@2@@Z@Z 00443b80 f   yassl:cert_wrapper.obj
 0001:00042b90       ?get_peerKey@CertManager@yaSSL@@QBEPBEXZ 00443b90 f   yassl:cert_wrapper.obj
 0001:00042ba0       ?get_peerX509@CertManager@yaSSL@@QBEPAVX509@2@XZ 00443ba0 f   yassl:cert_wrapper.obj
 0001:00042bb0       ?get_peerKeyType@CertManager@yaSSL@@QBE?AW4SignatureAlgorithm@2@XZ 00443bb0 f   yassl:cert_wrapper.obj
 0001:00042bc0       ?get_keyType@CertManager@yaSSL@@QBE?AW4SignatureAlgorithm@2@XZ 00443bc0 f   yassl:cert_wrapper.obj
 0001:00042bd0       ?get_peerKeyLength@CertManager@yaSSL@@QBEIXZ 00443bd0 f   yassl:cert_wrapper.obj
 0001:00042be0       ?get_privateKey@CertManager@yaSSL@@QBEPBEXZ 00443be0 f   yassl:cert_wrapper.obj
 0001:00042bf0       ?get_privateKeyLength@CertManager@yaSSL@@QBEIXZ 00443bf0 f   yassl:cert_wrapper.obj
 0001:00042c00       ?setPeerX509@CertManager@yaSSL@@QAEXPAVX509@2@@Z 00443c00 f   yassl:cert_wrapper.obj
 0001:00042cb0       ?size@?$list@PAVx509@yaSSL@@@mySTL@@QBEIXZ 00443cb0 f i yassl:cert_wrapper.obj
 0001:00042cc0       ??0?$list@PAVSigner@TaoCrypt@@@mySTL@@QAE@XZ 00443cc0 f i yassl:cert_wrapper.obj
 0001:00042cd0       ??Dreverse_iterator@?$list@PAVx509@yaSSL@@@mySTL@@QBEAAPAVx509@yaSSL@@XZ 00443cd0 f i yassl:cert_wrapper.obj
 0001:00042ce0       ??Ereverse_iterator@?$list@PAVx509@yaSSL@@@mySTL@@QAEAAV012@XZ 00443ce0 f i yassl:cert_wrapper.obj
 0001:00042cf0       ??0iterator@?$list@PAVSigner@TaoCrypt@@@mySTL@@QAE@PAUnode@12@@Z 00443cf0 f i yassl:cert_wrapper.obj
 0001:00042d00       ??0reverse_iterator@?$list@PAVx509@yaSSL@@@mySTL@@QAE@PAUnode@12@@Z 00443d00 f i yassl:cert_wrapper.obj
 0001:00042d10       ?front@?$list@PAVx509@yaSSL@@@mySTL@@QBEPAVx509@yaSSL@@XZ 00443d10 f i yassl:cert_wrapper.obj
 0001:00042d20       ??$swap@I@mySTL@@YAXAAI0@Z 00443d20 f i yassl:cert_wrapper.obj
 0001:00042d40       ??Diterator@?$list@PAVSigner@TaoCrypt@@@mySTL@@QBEAAPAVSigner@TaoCrypt@@XZ 00443d40 f i yassl:cert_wrapper.obj
 0001:00042d50       ??Eiterator@?$list@PAVSigner@TaoCrypt@@@mySTL@@QAEAAV012@XZ 00443d50 f i yassl:cert_wrapper.obj
 0001:00042d60       ??9iterator@?$list@PAVSigner@TaoCrypt@@@mySTL@@QBE_NABV012@@Z 00443d60 f i yassl:cert_wrapper.obj
 0001:00042d80       ??0node@?$list@PAVSigner@TaoCrypt@@@mySTL@@QAE@PAVSigner@TaoCrypt@@@Z 00443d80 f i yassl:cert_wrapper.obj
 0001:00042da0       ??$destroy@Unode@?$list@PAVSigner@TaoCrypt@@@mySTL@@@mySTL@@YAXPAUnode@?$list@PAVSigner@TaoCrypt@@@0@@Z 00443da0 f i yassl:cert_wrapper.obj
 0001:00042db0       ??$swap@PAVSigner@TaoCrypt@@@mySTL@@YAXAAPAVSigner@TaoCrypt@@0@Z 00443db0 f i yassl:cert_wrapper.obj
 0001:00042dd0       ??_GSigner@TaoCrypt@@QAEPAXI@Z 00443dd0 f i yassl:cert_wrapper.obj
 0001:00042df0       ??1x509@yaSSL@@QAE@XZ      00443df0 f   yassl:cert_wrapper.obj
 0001:00042e00       ?Swap@x509@yaSSL@@AAEXAAV12@@Z 00443e00 f   yassl:cert_wrapper.obj
 0001:00042e20       ??4x509@yaSSL@@QAEAAV01@ABV01@@Z 00443e20 f   yassl:cert_wrapper.obj
 0001:00042e60       ?get_cert@CertManager@yaSSL@@QBEPBVx509@2@XZ 00443e60 f   yassl:cert_wrapper.obj
 0001:00042e70       ?rbegin@?$list@PAVx509@yaSSL@@@mySTL@@QBE?AVreverse_iterator@12@XZ 00443e70 f i yassl:cert_wrapper.obj
 0001:00042e80       ?begin@?$list@PAVSigner@TaoCrypt@@@mySTL@@QBE?AViterator@12@XZ 00443e80 f i yassl:cert_wrapper.obj
 0001:00042e90       ?end@?$list@PAVSigner@TaoCrypt@@@mySTL@@QBE?AViterator@12@XZ 00443e90 f i yassl:cert_wrapper.obj
 0001:00042ea0       ?push_back@?$list@PAVSigner@TaoCrypt@@@mySTL@@QAEXPAVSigner@TaoCrypt@@@Z 00443ea0 f i yassl:cert_wrapper.obj
 0001:00042ef0       ??$ysDelete@VSigner@TaoCrypt@@@yaSSL@@YAXPAVSigner@TaoCrypt@@@Z 00443ef0 f i yassl:cert_wrapper.obj
 0001:00042f10       ?AddPeerCert@CertManager@yaSSL@@QAEXPAVx509@2@@Z 00443f10 f   yassl:cert_wrapper.obj
 0001:00042f20       ?CopySelfCert@CertManager@yaSSL@@QAEXPBVx509@2@@Z 00443f20 f   yassl:cert_wrapper.obj
 0001:00042f60       ??1?$list@PAVSigner@TaoCrypt@@@mySTL@@QAE@XZ 00443f60 f i yassl:cert_wrapper.obj
 0001:00042f80       ??$checked_delete@VSigner@TaoCrypt@@@yaSSL@@YAXPAVSigner@TaoCrypt@@@Z 00443f80 f i yassl:cert_wrapper.obj
 0001:00042f90       ??0CertManager@yaSSL@@QAE@XZ 00443f90 f   yassl:cert_wrapper.obj
 0001:00042fe0       ?CopyCaCert@CertManager@yaSSL@@QAEHPBVx509@2@@Z 00443fe0 f   yassl:cert_wrapper.obj
 0001:000430f0       ?Validate@CertManager@yaSSL@@QAEHXZ 004440f0 f   yassl:cert_wrapper.obj
 0001:000433b0       ?SetPrivateKey@CertManager@yaSSL@@QAEHABVx509@2@@Z 004443b0 f   yassl:cert_wrapper.obj
 0001:00043500       ??$?RVSigner@TaoCrypt@@@del_ptr_zero@yaSSL@@QBEXAAPAVSigner@TaoCrypt@@@Z 00444500 f i yassl:cert_wrapper.obj
 0001:00043520       ??$for_each@Viterator@?$list@PAVSigner@TaoCrypt@@@mySTL@@Udel_ptr_zero@yaSSL@@@mySTL@@YA?AUdel_ptr_zero@yaSSL@@Viterator@?$list@PAVSigner@TaoCrypt@@@0@0U12@@Z 00444520 f i yassl:cert_wrapper.obj
 0001:00043560       ??1CertManager@yaSSL@@QAE@XZ 00444560 f   yassl:cert_wrapper.obj
 0001:000435f0       ?SetErrorString@yaSSL@@YAXKPAD@Z 004445f0 f   yassl:yassl_error.obj
 0001:00043bf0       ?check@Check@yaSSL@@QAEXII@Z 00444bf0 f   yassl:buffer.obj
 0001:00043c00       ?check@NoCheck@yaSSL@@QAEXII@Z 00444c00 f   yassl:buffer.obj
 0001:00043c10       ??0input_buffer@yaSSL@@QAE@XZ 00444c10 f   yassl:buffer.obj
 0001:00043c20       ??0input_buffer@yaSSL@@QAE@I@Z 00444c20 f   yassl:buffer.obj
 0001:00043c50       ?allocate@input_buffer@yaSSL@@QAEXI@Z 00444c50 f   yassl:buffer.obj
 0001:00043c70       ?get_buffer@input_buffer@yaSSL@@QBEPAEXZ 00444c70 f   yassl:buffer.obj
 0001:00043c80       ?get_capacity@input_buffer@yaSSL@@QBEIXZ 00444c80 f   yassl:buffer.obj
 0001:00043c90       ?get_current@input_buffer@yaSSL@@QBEIXZ 00444c90 f   yassl:buffer.obj
 0001:00043ca0       ?get_size@input_buffer@yaSSL@@QBEIXZ 00444ca0 f   yassl:buffer.obj
 0001:00043cb0       ?get_remaining@input_buffer@yaSSL@@QBEIXZ 00444cb0 f   yassl:buffer.obj
 0001:00043cc0       ?set_current@input_buffer@yaSSL@@QAEXI@Z 00444cc0 f   yassl:buffer.obj
 0001:00043cd0       ??Ainput_buffer@yaSSL@@QAEABEI@Z 00444cd0 f   yassl:buffer.obj
 0001:00043cf0       ?eof@input_buffer@yaSSL@@QAE_NXZ 00444cf0 f   yassl:buffer.obj
 0001:00043d00       ?peek@input_buffer@yaSSL@@QBEEXZ 00444d00 f   yassl:buffer.obj
 0001:00043d10       ?read@input_buffer@yaSSL@@QAEXPAEI@Z 00444d10 f   yassl:buffer.obj
 0001:00043d40       ??0output_buffer@yaSSL@@QAE@XZ 00444d40 f   yassl:buffer.obj
 0001:00043d50       ??0output_buffer@yaSSL@@QAE@I@Z 00444d50 f   yassl:buffer.obj
 0001:00043d80       ?get_size@output_buffer@yaSSL@@QBEIXZ 00444d80 f   yassl:buffer.obj
 0001:00043d90       ?get_capacity@output_buffer@yaSSL@@QBEIXZ 00444d90 f   yassl:buffer.obj
 0001:00043da0       ?set_current@output_buffer@yaSSL@@QAEXI@Z 00444da0 f   yassl:buffer.obj
 0001:00043db0       ?allocate@output_buffer@yaSSL@@QAEXI@Z 00444db0 f   yassl:buffer.obj
 0001:00043dd0       ?get_buffer@output_buffer@yaSSL@@QBEPBEXZ 00444dd0 f   yassl:buffer.obj
 0001:00043de0       ??Aoutput_buffer@yaSSL@@QAEAAEI@Z 00444de0 f   yassl:buffer.obj
 0001:00043df0       ?eof@output_buffer@yaSSL@@QAE_NXZ 00444df0 f   yassl:buffer.obj
 0001:00043e00       ?write@output_buffer@yaSSL@@QAEXPBEI@Z 00444e00 f   yassl:buffer.obj
 0001:00043e30       ??1input_buffer@yaSSL@@QAE@XZ 00444e30 f   yassl:buffer.obj
 0001:00043e40       ?add_size@input_buffer@yaSSL@@QAEXI@Z 00444e40 f   yassl:buffer.obj
 0001:00043e50       ?assign@input_buffer@yaSSL@@QAEXPBEI@Z 00444e50 f   yassl:buffer.obj
 0001:00043e80       ??0output_buffer@yaSSL@@QAE@IPBEI@Z 00444e80 f   yassl:buffer.obj
 0001:00043ec0       ??1output_buffer@yaSSL@@QAE@XZ 00444ec0 f   yassl:buffer.obj
 0001:00043ed0       ??0input_buffer@yaSSL@@QAE@IPBEI@Z 00444ed0 f   yassl:buffer.obj
 0001:00043f10       ??0Mutex@yaSSL@@QAE@XZ     00444f10 f   yassl:lock.obj
 0001:00043f20       ??1Mutex@yaSSL@@QAE@XZ     00444f20 f   yassl:lock.obj
 0001:00043f30       ??0Lock@Mutex@yaSSL@@QAE@AAV12@@Z 00444f30 f   yassl:lock.obj
 0001:00043f50       ??1Lock@Mutex@yaSSL@@QAE@XZ 00444f50 f   yassl:lock.obj
 0001:00043f60       ?timer@yaSSL@@YANXZ        00444f60 f   yassl:timer.obj
 0001:00043fa0       ?lowResTimer@yaSSL@@YAIXZ  00444fa0 f   yassl:timer.obj
 0001:00043fd0       _compress2                 00444fd0 f   zlib:compress.obj
 0001:00044080       _compress                  00445080 f   zlib:compress.obj
 0001:000440a0       _compressBound             004450a0 f   zlib:compress.obj
 0001:000440c0       _uncompress                004450c0 f   zlib:uncompr.obj
 0001:00044170       _deflateSetDictionary      00445170 f   zlib:deflate.obj
 0001:00044270       _deflateSetHeader          00445270 f   zlib:deflate.obj
 0001:000442a0       _deflatePrime              004452a0 f   zlib:deflate.obj
 0001:000442e0       _deflateTune               004452e0 f   zlib:deflate.obj
 0001:00044320       _deflateBound              00445320 f   zlib:deflate.obj
 0001:000443e0       _deflate                   004453e0 f   zlib:deflate.obj
 0001:00044bc0       _deflateEnd                00445bc0 f   zlib:deflate.obj
 0001:00044ca0       _deflateCopy               00445ca0 f   zlib:deflate.obj
 0001:00045ac0       _deflateReset              00446ac0 f   zlib:deflate.obj
 0001:00045b50       _deflateParams             00446b50 f   zlib:deflate.obj
 0001:00045c20       _deflateInit2_             00446c20 f   zlib:deflate.obj
 0001:00045e40       _deflateInit_              00446e40 f   zlib:deflate.obj
 0001:00045e70       _inflateReset              00446e70 f   zlib:inflate.obj
 0001:00045ed0       _inflatePrime              00446ed0 f   zlib:inflate.obj
 0001:00045f20       _inflateInit2_             00446f20 f   zlib:inflate.obj
 0001:00045ff0       _inflateInit_              00446ff0 f   zlib:inflate.obj
 0001:00046120       _inflate                   00447120 f   zlib:inflate.obj
 0001:00047710       _inflateEnd                00448710 f   zlib:inflate.obj
 0001:00047760       _inflateSetDictionary      00448760 f   zlib:inflate.obj
 0001:00047840       _inflateGetHeader          00448840 f   zlib:inflate.obj
 0001:000478d0       _inflateSync               004488d0 f   zlib:inflate.obj
 0001:000479b0       _inflateSyncPoint          004489b0 f   zlib:inflate.obj
 0001:000479e0       _inflateCopy               004489e0 f   zlib:inflate.obj
 0001:00047b30       _adler32                   00448b30 f   zlib:adler32.obj
 0001:00047db0       _adler32_combine           00448db0 f   zlib:adler32.obj
 0001:00048a20       __tr_tally                 00449a20 f   zlib:trees.obj
 0001:00049150       __tr_init                  0044a150 f   zlib:trees.obj
 0001:00049510       __tr_stored_block          0044a510 f   zlib:trees.obj
 0001:000495b0       __tr_align                 0044a5b0 f   zlib:trees.obj
 0001:000497a0       __tr_flush_block           0044a7a0 f   zlib:trees.obj
 0001:000499b0       _get_crc_table             0044a9b0 f   zlib:crc32.obj
 0001:00049fa0       _crc32_combine             0044afa0 f   zlib:crc32.obj
 0001:0004a080       _crc32                     0044b080 f   zlib:crc32.obj
 0001:0004a0a0       _zlibVersion               0044b0a0 f   zlib:zutil.obj
 0001:0004a0b0       _zlibCompileFlags          0044b0b0 f   zlib:zutil.obj
 0001:0004a0c0       _zError                    0044b0c0 f   zlib:zutil.obj
 0001:0004a0e0       _zcalloc                   0044b0e0 f   zlib:zutil.obj
 0001:0004a100       _zcfree                    0044b100 f   zlib:zutil.obj
 0001:0004a110       _inflate_fast              0044b110 f   zlib:inffast.obj
 0001:0004a5d0       _inflate_table             0044b5d0 f   zlib:inftrees.obj
 0001:0004aabe       _gethostname@8             0044babe f   wsock32:WSOCK32.dll
 0001:0004aac4       _ioctlsocket@12            0044bac4 f   wsock32:WSOCK32.dll
 0001:0004aaca       _closesocket@4             0044baca f   wsock32:WSOCK32.dll
 0001:0004aad0       _listen@8                  0044bad0 f   wsock32:WSOCK32.dll
 0001:0004aad6       _bind@12                   0044bad6 f   wsock32:WSOCK32.dll
 0001:0004aadc       _setsockopt@20             0044badc f   wsock32:WSOCK32.dll
 0001:0004aae2       _htons@4                   0044bae2 f   wsock32:WSOCK32.dll
 0001:0004aae8       _htonl@4                   0044bae8 f   wsock32:WSOCK32.dll
 0001:0004aaee       _inet_addr@4               0044baee f   wsock32:WSOCK32.dll
 0001:0004aaf4       _socket@12                 0044baf4 f   wsock32:WSOCK32.dll
 0001:0004aafa       _shutdown@8                0044bafa f   wsock32:WSOCK32.dll
 0001:0004ab00       _accept@12                 0044bb00 f   wsock32:WSOCK32.dll
 0001:0004ab06       ___WSAFDIsSet@8            0044bb06 f   wsock32:WSOCK32.dll
 0001:0004ab0c       _select@20                 0044bb0c f   wsock32:WSOCK32.dll
 0001:0004ab12       _connect@12                0044bb12 f   wsock32:WSOCK32.dll
 0001:0004ab18       _WSAGetLastError@0         0044bb18 f   wsock32:WSOCK32.dll
 0001:0004ab1e       _WSACleanup@0              0044bb1e f   wsock32:WSOCK32.dll
 0001:0004ab24       _WSAStartup@8              0044bb24 f   wsock32:WSOCK32.dll
 0001:0004ab2a       _inet_ntoa@4               0044bb2a f   wsock32:WSOCK32.dll
 0001:0004ab30       _gethostbyname@4           0044bb30 f   wsock32:WSOCK32.dll
 0001:0004ab36       _recv@16                   0044bb36 f   wsock32:WSOCK32.dll
 0001:0004ab3c       _send@16                   0044bb3c f   wsock32:WSOCK32.dll
 0001:0004ab42       _ntohs@4                   0044bb42 f   wsock32:WSOCK32.dll
 0001:0004ab48       _getpeername@12            0044bb48 f   wsock32:WSOCK32.dll
 0001:0004ab4e       _WSASetLastError@4         0044bb4e f   wsock32:WSOCK32.dll
 0001:0004ab54       ??_U@YAPAXI@Z              0044bb54 f   libcpmt:newaop.obj
 0001:0004ab59       __fpclear                  0044bb59 f   LIBCMT:fpinit.obj
 0001:0004ab5a       __cfltcvt_init             0044bb5a f   LIBCMT:fpinit.obj
 0001:0004abba       ___setfflag                0044bbba f   LIBCMT:fpinit.obj
 0001:0004abca       __fpmath                   0044bbca f   LIBCMT:fpinit.obj
 0001:0004abe8       ?name@type_info@@QBEPBDPAU__type_info_node@@@Z 0044bbe8 f   LIBCMT:typinfo.obj
 0001:0004abf7       ??1type_info@@UAE@XZ       0044bbf7 f   LIBCMT:typinfo.obj
 0001:0004ac05       ??_Etype_info@@UAEPAXI@Z   0044bc05 f i LIBCMT:typinfo.obj
 0001:0004ac05       ??_Gtype_info@@UAEPAXI@Z   0044bc05 f i LIBCMT:typinfo.obj
 0001:0004ac21       ?_name_internal_method@type_info@@QBEPBDPAU__type_info_node@@@Z 0044bc21 f   LIBCMT:typinfo.obj
 0001:0004ac30       ?_type_info_dtor_internal_method@type_info@@QAEXXZ 0044bc30 f   LIBCMT:typinfo.obj
 0001:0004ac38       ??8type_info@@QBE_NABV0@@Z 0044bc38 f   LIBCMT:typinfo.obj
 0001:0004ac53       ??9type_info@@QBE_NABV0@@Z 0044bc53 f   LIBCMT:typinfo.obj
 0001:0004ac6f       ?before@type_info@@QBEHABV1@@Z 0044bc6f f   LIBCMT:typinfo.obj
 0001:0004ac8e       ?raw_name@type_info@@QBEPBDXZ 0044bc8e f   LIBCMT:typinfo.obj
 0001:0004ac92       ??0type_info@@AAE@ABV0@@Z  0044bc92 f   LIBCMT:typinfo.obj
 0001:0004ac9d       ??4type_info@@AAEAAV0@ABV0@@Z 0044bc9d f   LIBCMT:typinfo.obj
 0001:0004aca2       __purecall                 0044bca2 f   LIBCMT:purevirt.obj
 0001:0004accc       __set_purecall_handler     0044bccc f   LIBCMT:purevirt.obj
 0001:0004acee       __get_purecall_handler     0044bcee f   LIBCMT:purevirt.obj
 0001:0004acfb       ??3@YAXPAX@Z               0044bcfb f   LIBCMT:delete.obj
 0001:0004add6       __stat64i32                0044bdd6 f   LIBCMT:stati32.obj
 0001:0004b110       _strncpy                   0044c110 f   LIBCMT:strncpy.obj
 0001:0004b234       @__security_check_cookie@4 0044c234 f   LIBCMT:secchk.obj
 0001:0004b243       ??0bad_alloc@std@@QAE@XZ   0044c243 f i LIBCMT:new.obj
 0001:0004b25c       ??1bad_alloc@std@@UAE@XZ   0044c25c f i LIBCMT:new.obj
 0001:0004b267       ??_Gbad_alloc@std@@UAEPAXI@Z 0044c267 f i LIBCMT:new.obj
 0001:0004b267       ??_Ebad_alloc@std@@UAEPAXI@Z 0044c267 f i LIBCMT:new.obj
 0001:0004b289       ??0bad_alloc@std@@QAE@ABV01@@Z 0044c289 f i LIBCMT:new.obj
 0001:0004b2a1       ??2@YAPAXI@Z               0044c2a1 f   LIBCMT:new.obj
 0001:0004b30b       __time64                   0044c30b f   LIBCMT:time64.obj
 0001:0004b350       _memset                    0044c350 f   LIBCMT:memset.obj
 0001:0004b3ca       _strncmp                   0044c3ca f   LIBCMT:strncmp.obj
 0001:0004b4a0       _strchr                    0044c4a0 f   LIBCMT:strchr.obj
 0001:0004b4a6       ___from_strstr_to_strchr   0044c4a6     LIBCMT:strchr.obj
 0001:0004b55e       __invoke_watson_if_error   0044c55e f i LIBCMT:strerror.obj
 0001:0004b580       __get_sys_err_msg          0044c580 f i LIBCMT:strerror.obj
 0001:0004b5a3       _strerror                  0044c5a3 f   LIBCMT:strerror.obj
 0001:0004b60a       _strerror_s                0044c60a f   LIBCMT:strerror.obj
 0001:0004b669       __get_errno_from_oserr     0044c669 f   LIBCMT:dosmap.obj
 0001:0004b6a4       __errno                    0044c6a4 f   LIBCMT:dosmap.obj
 0001:0004b6b7       ___doserrno                0044c6b7 f   LIBCMT:dosmap.obj
 0001:0004b6ca       __dosmaperr                0044c6ca f   LIBCMT:dosmap.obj
 0001:0004b6e8       __set_errno                0044c6e8 f   LIBCMT:dosmap.obj
 0001:0004b703       __get_errno                0044c703 f   LIBCMT:dosmap.obj
 0001:0004b72d       __set_doserrno             0044c72d f   LIBCMT:dosmap.obj
 0001:0004b748       __get_doserrno             0044c748 f   LIBCMT:dosmap.obj
 0001:0004b772       __snprintf                 0044c772 f   LIBCMT:snprintf.obj
 0001:0004b81f       __snprintf_l               0044c81f f   LIBCMT:snprintf.obj
 0001:0004b840       _strstr                    0044c840 f   LIBCMT:strstr.obj
 0001:0004b8c6       _vfscanf                   0044c8c6 f   LIBCMT:fscanf.obj
 0001:0004ba03       _fscanf                    0044ca03 f   LIBCMT:fscanf.obj
 0001:0004ba20       __fscanf_l                 0044ca20 f   LIBCMT:fscanf.obj
 0001:0004ba3f       _fscanf_s                  0044ca3f f   LIBCMT:fscanf.obj
 0001:0004ba5c       __fscanf_s_l               0044ca5c f   LIBCMT:fscanf.obj
 0001:0004ba7b       _printf                    0044ca7b f   LIBCMT:printf.obj
 0001:0004bb2a       __printf_l                 0044cb2a f   LIBCMT:printf.obj
 0001:0004bb40       __printf_s_l               0044cb40 f   LIBCMT:printf.obj
 0001:0004bb56       _printf_s                  0044cb56 f   LIBCMT:printf.obj
 0001:0004bb6a       __printf_p_l               0044cb6a f   LIBCMT:printf.obj
 0001:0004bb80       __printf_p                 0044cb80 f   LIBCMT:printf.obj
 0001:0004bb94       __set_printf_count_output  0044cb94 f   LIBCMT:printf.obj
 0001:0004bbb9       __get_printf_count_output  0044cbb9 f   LIBCMT:printf.obj
 0001:0004bbcf       _atol                      0044cbcf f   LIBCMT:atox.obj
 0001:0004bbe0       __atol_l                   0044cbe0 f   LIBCMT:atox.obj
 0001:0004bbf5       _atoi                      0044cbf5 f   LIBCMT:atox.obj
 0001:0004bbfa       __atoi_l                   0044cbfa f   LIBCMT:atox.obj
 0001:0004bbff       __atoi64                   0044cbff f   LIBCMT:atox.obj
 0001:0004bc10       __atoi64_l                 0044cc10 f   LIBCMT:atox.obj
 0001:0004bc25       _fprintf                   0044cc25 f   LIBCMT:fprintf.obj
 0001:0004bd74       __fprintf_l                0044cd74 f   LIBCMT:fprintf.obj
 0001:0004bd8e       __fprintf_s_l              0044cd8e f   LIBCMT:fprintf.obj
 0001:0004bda8       _fprintf_s                 0044cda8 f   LIBCMT:fprintf.obj
 0001:0004bdc0       __fprintf_p_l              0044cdc0 f   LIBCMT:fprintf.obj
 0001:0004bdda       __fprintf_p                0044cdda f   LIBCMT:fprintf.obj
 0001:0004bdf2       __vsnprintf_l              0044cdf2 f   LIBCMT:vsnprint.obj
 0001:0004bea3       __vsnprintf                0044cea3 f   LIBCMT:vsnprint.obj
 0001:0004bebe       _sprintf                   0044cebe f   LIBCMT:sprintf.obj
 0001:0004bf39       __sprintf_l                0044cf39 f   LIBCMT:sprintf.obj
 0001:0004bf53       _sprintf_s                 0044cf53 f   LIBCMT:sprintf.obj
 0001:0004bf6f       __sprintf_s_l              0044cf6f f   LIBCMT:sprintf.obj
 0001:0004bf8c       __snprintf_s               0044cf8c f   LIBCMT:sprintf.obj
 0001:0004bfab       __snprintf_s_l             0044cfab f   LIBCMT:sprintf.obj
 0001:0004bfcb       __sprintf_p                0044cfcb f   LIBCMT:sprintf.obj
 0001:0004bfe7       __sprintf_p_l              0044cfe7 f   LIBCMT:sprintf.obj
 0001:0004c004       __scprintf                 0044d004 f   LIBCMT:sprintf.obj
 0001:0004c015       __scprintf_p               0044d015 f   LIBCMT:sprintf.obj
 0001:0004c026       __scprintf_l               0044d026 f   LIBCMT:sprintf.obj
 0001:0004c03c       __scprintf_p_l             0044d03c f   LIBCMT:sprintf.obj
 0001:0004c052       _setbuf                    0044d052 f   LIBCMT:setbuf.obj
 0001:0004c077       ___iob_func                0044d077 f   LIBCMT:_file.obj
 0001:0004c07d       ___initstdio               0044d07d f   LIBCMT:_file.obj
 0001:0004c12e       ___endstdio                0044d12e f   LIBCMT:_file.obj
 0001:0004c14e       __lock_file                0044d14e f   LIBCMT:_file.obj
 0001:0004c18a       __lock_file2               0044d18a f   LIBCMT:_file.obj
 0001:0004c1b8       __unlock_file              0044d1b8 f   LIBCMT:_file.obj
 0001:0004c1ee       __unlock_file2             0044d1ee f   LIBCMT:_file.obj
 0001:0004c218       __flush                    0044d218 f   LIBCMT:fflush.obj
 0001:0004c27a       __fflush_nolock            0044d27a f   LIBCMT:fflush.obj
 0001:0004c396       _fflush                    0044d396 f   LIBCMT:fflush.obj
 0001:0004c3e9       __flushall                 0044d3e9 f   LIBCMT:fflush.obj
 0001:0004c3f2       __amsg_exit                0044d3f2 f   LIBCMT:crt0dat.obj
 0001:0004c416       ___crtCorExitProcess       0044d416 f   LIBCMT:crt0dat.obj
 0001:0004c43c       ___crtExitProcess          0044d43c f   LIBCMT:crt0dat.obj
 0001:0004c451       __lockexit                 0044d451 f   LIBCMT:crt0dat.obj
 0001:0004c45a       __unlockexit               0044d45a f   LIBCMT:crt0dat.obj
 0001:0004c47b       __initterm_e               0044d47b f   LIBCMT:crt0dat.obj
 0001:0004c49b       __get_osplatform           0044d49b f   LIBCMT:crt0dat.obj
 0001:0004c4d2       __get_osver                0044d4d2 f   LIBCMT:crt0dat.obj
 0001:0004c50e       __get_winver               0044d50e f   LIBCMT:crt0dat.obj
 0001:0004c54a       __get_winmajor             0044d54a f   LIBCMT:crt0dat.obj
 0001:0004c586       __get_winminor             0044d586 f   LIBCMT:crt0dat.obj
 0001:0004c5c2       __get_wpgmptr              0044d5c2 f   LIBCMT:crt0dat.obj
 0001:0004c5f9       __get_pgmptr               0044d5f9 f   LIBCMT:crt0dat.obj
 0001:0004c630       __cinit                    0044d630 f   LIBCMT:crt0dat.obj
 0001:0004c7a4       _exit                      0044d7a4 f   LIBCMT:crt0dat.obj
 0001:0004c7b5       __exit                     0044d7b5 f   LIBCMT:crt0dat.obj
 0001:0004c7c6       __cexit                    0044d7c6 f   LIBCMT:crt0dat.obj
 0001:0004c7d5       __c_exit                   0044d7d5 f   LIBCMT:crt0dat.obj
 0001:0004c7e4       __init_pointers            0044d7e4 f   LIBCMT:crt0dat.obj
 0001:0004c830       _vfprintf_helper           0044d830 f   LIBCMT:vfprintf.obj
 0001:0004c97e       __vfprintf_l               0044d97e f   LIBCMT:vfprintf.obj
 0001:0004c99c       __vfprintf_s_l             0044d99c f   LIBCMT:vfprintf.obj
 0001:0004c9ba       __vfprintf_p_l             0044d9ba f   LIBCMT:vfprintf.obj
 0001:0004c9d8       _vfprintf                  0044d9d8 f   LIBCMT:vfprintf.obj
 0001:0004c9f4       _vfprintf_s                0044d9f4 f   LIBCMT:vfprintf.obj
 0001:0004ca10       __vfprintf_p               0044da10 f   LIBCMT:vfprintf.obj
 0001:0004ca2c       __initp_misc_winsig        0044da2c f   LIBCMT:winsig.obj
 0001:0004cb14       ___get_sigabrt             0044db14 f   LIBCMT:winsig.obj
 0001:0004cb21       ___fpecode                 0044db21 f   LIBCMT:winsig.obj
 0001:0004cb2a       ___pxcptinfoptrs           0044db2a f   LIBCMT:winsig.obj
 0001:0004cb33       _signal                    0044db33 f   LIBCMT:winsig.obj
 0001:0004cd70       _raise                     0044dd70 f   LIBCMT:winsig.obj
 0001:0004cf20       _srand                     0044df20 f   LIBCMT:rand.obj
 0001:0004cf2d       _rand                      0044df2d f   LIBCMT:rand.obj
 0001:0004cf50       _memcpy                    0044df50 f   LIBCMT:memcpy.obj
 0001:0004d2b5       _puts                      0044e2b5 f   LIBCMT:puts.obj
 0001:0004d450       _strrchr                   0044e450 f   LIBCMT:strrchr.obj
 0001:0004d47d       _fgets                     0044e47d f   LIBCMT:fgets.obj
 0001:0004d610       _memmove                   0044e610 f   LIBCMT:memmove.obj
 0001:0004d980       __ftol2_sse                0044e980 f   LIBCMT:ftol2.obj
 0001:0004d989       __ftol2_pentium4           0044e989 f   LIBCMT:ftol2.obj
 0001:0004d99c       __ftol2_sse_excpt          0044e99c f   LIBCMT:ftol2.obj
 0001:0004d9b6       __ftol2                    0044e9b6 f   LIBCMT:ftol2.obj
 0001:0004da30       _floor                     0044ea30 f   LIBCMT:floor_pentium4.obj
 0001:0004da70       __floor_pentium4           0044ea70 f   LIBCMT:floor_pentium4.obj
 0001:0004db51       __getenv_helper_nolock     0044eb51 f   LIBCMT:getenv.obj
 0001:0004dd07       _getenv                    0044ed07 f   LIBCMT:getenv.obj
 0001:0004dd8a       _getenv_s                  0044ed8a f   LIBCMT:getenv.obj
 0001:0004de62       __dupenv_s                 0044ee62 f   LIBCMT:getenv.obj
 0001:0004df48       ??0_LocaleUpdate@@QAE@PAUlocaleinfo_struct@@@Z 0044ef48 f i LIBCMT:strtol.obj
 0001:0004dfca       ??1_LocaleUpdate@@QAE@XZ   0044efca f i LIBCMT:strtol.obj
 0001:0004dfd8       ?GetLocaleT@_LocaleUpdate@@QAEPAUlocaleinfo_struct@@XZ 0044efd8 f i LIBCMT:strtol.obj
 0001:0004e206       _strtol                    0044f206 f   LIBCMT:strtol.obj
 0001:0004e22f       __strtol_l                 0044f22f f   LIBCMT:strtol.obj
 0001:0004e24a       _strtoul                   0044f24a f   LIBCMT:strtol.obj
 0001:0004e274       __strtoul_l                0044f274 f   LIBCMT:strtol.obj
 0001:0004e28f       __isalpha_l                0044f28f f i LIBCMT:_ctype.obj
 0001:0004e2e3       _isalpha                   0044f2e3 f i LIBCMT:_ctype.obj
 0001:0004e30e       __isupper_l                0044f30e f i LIBCMT:_ctype.obj
 0001:0004e35d       _isupper                   0044f35d f i LIBCMT:_ctype.obj
 0001:0004e386       __islower_l                0044f386 f i LIBCMT:_ctype.obj
 0001:0004e3d5       _islower                   0044f3d5 f i LIBCMT:_ctype.obj
 0001:0004e3fe       __isdigit_l                0044f3fe f i LIBCMT:_ctype.obj
 0001:0004e44d       _isdigit                   0044f44d f i LIBCMT:_ctype.obj
 0001:0004e476       __isxdigit_l               0044f476 f i LIBCMT:_ctype.obj
 0001:0004e4ca       _isxdigit                  0044f4ca f i LIBCMT:_ctype.obj
 0001:0004e4f5       __isspace_l                0044f4f5 f i LIBCMT:_ctype.obj
 0001:0004e544       _isspace                   0044f544 f i LIBCMT:_ctype.obj
 0001:0004e56d       __ispunct_l                0044f56d f i LIBCMT:_ctype.obj
 0001:0004e5bc       _ispunct                   0044f5bc f i LIBCMT:_ctype.obj
 0001:0004e5e5       __isalnum_l                0044f5e5 f i LIBCMT:_ctype.obj
 0001:0004e639       _isalnum                   0044f639 f i LIBCMT:_ctype.obj
 0001:0004e664       __isprint_l                0044f664 f i LIBCMT:_ctype.obj
 0001:0004e6b8       _isprint                   0044f6b8 f i LIBCMT:_ctype.obj
 0001:0004e6e3       __isgraph_l                0044f6e3 f i LIBCMT:_ctype.obj
 0001:0004e737       _isgraph                   0044f737 f i LIBCMT:_ctype.obj
 0001:0004e762       __iscntrl_l                0044f762 f i LIBCMT:_ctype.obj
 0001:0004e7b1       _iscntrl                   0044f7b1 f i LIBCMT:_ctype.obj
 0001:0004e7da       ___isascii                 0044f7da f i LIBCMT:_ctype.obj
 0001:0004e7e7       ___toascii                 0044f7e7 f i LIBCMT:_ctype.obj
 0001:0004e7ef       __iscsymf_l                0044f7ef f i LIBCMT:_ctype.obj
 0001:0004e80e       ___iscsymf                 0044f80e f i LIBCMT:_ctype.obj
 0001:0004e828       __iscsym_l                 0044f828 f i LIBCMT:_ctype.obj
 0001:0004e847       ___iscsym                  0044f847 f i LIBCMT:_ctype.obj
 0001:0004e863       __MarkAllocaS              0044f863 f i LIBCMT:getch.obj
 0001:0004e875       __freea                    0044f875 f i LIBCMT:getch.obj
 0001:0004e890       __ungetch_nolock           0044f890 f   LIBCMT:getch.obj
 0001:0004e8b1       __getextendedkeycode       0044f8b1 f   LIBCMT:getch.obj
 0001:0004e95e       __getch_nolock             0044f95e f   LIBCMT:getch.obj
 0001:0004ea21       __getche_nolock            0044fa21 f   LIBCMT:getch.obj
 0001:0004ea58       __kbhit_nolock             0044fa58 f   LIBCMT:getch.obj
 0001:0004eb80       __ungetch                  0044fb80 f   LIBCMT:getch.obj
 0001:0004ebc4       __getch                    0044fbc4 f   LIBCMT:getch.obj
 0001:0004ec02       __getche                   0044fc02 f   LIBCMT:getch.obj
 0001:0004ec40       __kbhit                    0044fc40 f   LIBCMT:getch.obj
 0001:0004ec7e       __cputs                    0044fc7e f   LIBCMT:cputs.obj
 0001:0004ed12       __set_osplatform           0044fd12 f i LIBCMT:crt0.obj
 0001:0004ed1c       __set_osver                0044fd1c f i LIBCMT:crt0.obj
 0001:0004ed26       __set_winver               0044fd26 f i LIBCMT:crt0.obj
 0001:0004ed30       __set_winmajor             0044fd30 f i LIBCMT:crt0.obj
 0001:0004ed3a       __set_winminor             0044fd3a f i LIBCMT:crt0.obj
 0001:0004ef5f       _mainCRTStartup            0044ff5f f   LIBCMT:crt0.obj
 0001:0004ef69       _realloc                   0044ff69 f   LIBCMT:realloc.obj
 0001:0004f184       __recalloc                 00450184 f   LIBCMT:realloc.obj
 0001:0004f1fd       _V6_HeapAlloc              004501fd f   LIBCMT:malloc.obj
 0001:0004f24c       __heap_alloc               0045024c f i LIBCMT:malloc.obj
 0001:0004f2c1       _malloc                    004502c1 f   LIBCMT:malloc.obj
 0001:0004f384       _free                      00450384 f   LIBCMT:free.obj
 0001:0004f412       __lseeki64_nolock          00450412 f   LIBCMT:lseeki64.obj
 0001:0004f495       __lseeki64                 00450495 f   LIBCMT:lseeki64.obj
 0001:0004f5ae       __telli64                  004505ae f   LIBCMT:telli64.obj
 0001:0004f5c1       __fstat64i32               004505c1 f   LIBCMT:fstati32.obj
 0001:0004f912       ___time64_t_from_ft        00450912 f   LIBCMT:findfi32.obj
 0001:0004f978       __findfirst64i32           00450978 f   LIBCMT:findfi32.obj
 0001:0004faa8       __findnext64i32            00450aa8 f   LIBCMT:findfi32.obj
 0001:0004fbd7       __findclose                00450bd7 f   LIBCMT:findfile.obj
 0001:0004fbf7       ___timet_from_ft           00450bf7 f   LIBCMT:findfile.obj
 0001:0004fc5b       __findfirst32              00450c5b f   LIBCMT:findfile.obj
 0001:0004fd82       __findnext32               00450d82 f   LIBCMT:findfile.obj
 0001:0004fea8       __set_osfhnd               00450ea8 f   LIBCMT:osfinfo.obj
 0001:0004ff25       __free_osfhnd              00450f25 f   LIBCMT:osfinfo.obj
 0001:0004ffa6       __get_osfhandle            00450fa6 f   LIBCMT:osfinfo.obj
 0001:00050017       ___lock_fhandle            00451017 f   LIBCMT:osfinfo.obj
 0001:000500b7       __unlock_fhandle           004510b7 f   LIBCMT:osfinfo.obj
 0001:000500d9       __alloc_osfhnd             004510d9 f   LIBCMT:osfinfo.obj
 0001:00050273       __open_osfhandle           00451273 f   LIBCMT:osfinfo.obj
 0001:00050388       __umask_s                  00451388 f   LIBCMT:umask.obj
 0001:000503d1       _umask                     004513d1 f   LIBCMT:umask.obj
 0001:000503d1       __umask                    004513d1 f   LIBCMT:umask.obj
 0001:000503f2       __localtime64_s            004513f2 f   LIBCMT:loctim64.obj
 0001:000506b7       __localtime64              004516b7 f   LIBCMT:loctim64.obj
 0001:000506e0       __alldiv                   004516e0 f   LIBCMT:lldiv.obj
 0001:00050790       __chkstk                   00451790 f   LIBCMT:chkstk.obj
 0001:00050790       __alloca_probe             00451790     LIBCMT:chkstk.obj
 0001:000507bb       _fputs                     004517bb f   LIBCMT:fputs.obj
 0001:000508fd       _fputc                     004518fd f   LIBCMT:fputc.obj
 0001:00050a3c       _putc                      00451a3c f   LIBCMT:fputc.obj
 0001:00050b80       _strncat                   00451b80 f   LIBCMT:strncat.obj
 0001:00050cb5       __close_nolock             00451cb5 f   LIBCMT:close.obj
 0001:00050d4c       __close                    00451d4c f   LIBCMT:close.obj
 0001:00050d4c       _close                     00451d4c f   LIBCMT:close.obj
 0001:00050f90       __dup2                     00451f90 f   LIBCMT:dup2.obj
 0001:0005109d       __freopen_helper           0045209d f   LIBCMT:freopen.obj
 0001:00051176       _freopen                   00452176 f   LIBCMT:freopen.obj
 0001:0005119a       _freopen_s                 0045219a f   LIBCMT:freopen.obj
 0001:000511b8       __fileno                   004521b8 f   LIBCMT:fileno.obj
 0001:000511b8       _fileno                    004521b8 f   LIBCMT:fileno.obj
 0001:000511e5       __fclose_nolock            004521e5 f   LIBCMT:fclose.obj
 0001:00051257       _fclose                    00452257 f   LIBCMT:fclose.obj
 0001:000512d3       __fsopen                   004522d3 f   LIBCMT:fopen.obj
 0001:00051397       _fopen                     00452397 f   LIBCMT:fopen.obj
 0001:000513aa       _fopen_s                   004523aa f   LIBCMT:fopen.obj
 0001:00051400       __set_daylight             00452400 f i LIBCMT:tzset.obj
 0001:0005140c       __set_dstbias              0045240c f i LIBCMT:tzset.obj
 0001:00051418       __set_timezone             00452418 f i LIBCMT:tzset.obj
 0001:00051b38       ___tzset                   00452b38 f   LIBCMT:tzset.obj
 0001:00051b87       __tzset                    00452b87 f   LIBCMT:tzset.obj
 0001:00051bbf       __isindst                  00452bbf f   LIBCMT:tzset.obj
 0001:00051c00       __initp_misc_invarg        00452c00 f   LIBCMT:invarg.obj
 0001:00051c0a       __invoke_watson            00452c0a f   LIBCMT:invarg.obj
 0001:00051d06       __set_invalid_parameter_handler 00452d06 f   LIBCMT:invarg.obj
 0001:00051d28       __get_invalid_parameter_handler 00452d28 f   LIBCMT:invarg.obj
 0001:00051d35       ?_invoke_watson@@YAXPBG00II@Z 00452d35 f   LIBCMT:invarg.obj
 0001:00051d3e       __invalid_parameter        00452d3e f   LIBCMT:invarg.obj
 0001:00051d62       __invalid_parameter_noinfo 00452d62 f   LIBCMT:invarg.obj
 0001:00051d72       ?_invalid_parameter@@YAXPBG00II@Z 00452d72 f   LIBCMT:invarg.obj
 0001:00051d80       __aulldiv                  00452d80 f   LIBCMT:ulldiv.obj
 0001:00051df0       __allmul                   00452df0 f   LIBCMT:llmul.obj
 0001:00051e30       __aulldvrm                 00452e30 f   LIBCMT:ulldvrm.obj
 0001:00051ec5       __fputchar                 00452ec5 f   LIBCMT:fputchar.obj
 0001:00051eda       _putchar                   00452eda f   LIBCMT:fputchar.obj
 0001:00051edf       __gmtime64_s               00452edf f   LIBCMT:gmtime64.obj
 0001:0005211b       __gmtime64                 0045311b f   LIBCMT:gmtime64.obj
 0001:0005213f       __endthread                0045313f f   LIBCMT:thread.obj
 0001:0005223d       __beginthread              0045323d f   LIBCMT:thread.obj
 0001:00052300       __allshl                   00453300 f   LIBCMT:llshl.obj
 0001:0005231f       _feof                      0045331f f   LIBCMT:feoferr.obj
 0001:0005234e       _ferror                    0045334e f   LIBCMT:feoferr.obj
 0001:0005237d       __fread_nolock_s           0045337d f   LIBCMT:fread.obj
 0001:00052583       __fread_nolock             00453583 f   LIBCMT:fread.obj
 0001:0005259e       _fread_s                   0045359e f   LIBCMT:fread.obj
 0001:00052634       _fread                     00453634 f   LIBCMT:fread.obj
 0001:0005264f       __ftell_nolock             0045364f f   LIBCMT:ftell.obj
 0001:000527e7       _ftell                     004537e7 f   LIBCMT:ftell.obj
 0001:00052855       __fseek_nolock             00453855 f   LIBCMT:fseek.obj
 0001:000528dc       _fseek                     004538dc f   LIBCMT:fseek.obj
 0001:00052961       __fwrite_nolock            00453961 f   LIBCMT:fwrite.obj
 0001:00052ac0       _fwrite                    00453ac0 f   LIBCMT:fwrite.obj
 0001:00052b50       __alloca_probe_16          00453b50 f   LIBCMT:alloca16.obj
 0001:00052b66       __alloca_probe_8           00453b66     LIBCMT:alloca16.obj
 0001:00052b7c       __commit                   00453b7c f   LIBCMT:commit.obj
 0001:00052c5d       _ldiv                      00453c5d f   LIBCMT:ldiv.obj
 0001:00052c77       _strnlen                   00453c77 f   LIBCMT:strlen_s.obj
 0001:00052d60       _qsort                     00453d60 f   LIBCMT:qsort.obj
 0001:00053007       __copysign                 00454007 f   LIBCMT:ieeemisc.obj
 0001:0005302d       __chgsign                  0045402d f   LIBCMT:ieeemisc.obj
 0001:00053058       __scalb                    00454058 f   LIBCMT:ieeemisc.obj
 0001:0005306e       __logb                     0045406e f   LIBCMT:ieeemisc.obj
 0001:00053151       __nextafter                00454151 f   LIBCMT:ieeemisc.obj
 0001:000533e6       __finite                   004543e6 f   LIBCMT:ieeemisc.obj
 0001:000533fb       __isnan                    004543fb f   LIBCMT:ieeemisc.obj
 0001:00053429       __fpclass                  00454429 f   LIBCMT:ieeemisc.obj
 0001:000534bd       ??_V@YAXPAX@Z              004544bd f   LIBCMT:delete2.obj
 0001:000534c2       _rewind                    004544c2 f   LIBCMT:rewind.obj
 0001:00053587       __forcdecpt_l              00454587 f   LIBCMT:cvt.obj
 0001:000535f8       __cropzeros_l              004545f8 f   LIBCMT:cvt.obj
 0001:00053678       __positive                 00454678 f   LIBCMT:cvt.obj
 0001:0005368e       __fassign_l                0045468e f   LIBCMT:cvt.obj
 0001:000536ce       __fassign                  004546ce f   LIBCMT:cvt.obj
 0001:00053702       __forcdecpt                00454702 f   LIBCMT:cvt.obj
 0001:00053710       __cropzeros                00454710 f   LIBCMT:cvt.obj
 0001:0005388b       __cftoe_l                  0045488b f   LIBCMT:cvt.obj
 0001:00053959       __cftoe                    00454959 f   LIBCMT:cvt.obj
 0001:00053977       __cftoa_l                  00454977 f   LIBCMT:cvt.obj
 0001:00053ce8       __cftoa                    00454ce8 f   LIBCMT:cvt.obj
 0001:00053dfb       __cftof_l                  00454dfb f   LIBCMT:cvt.obj
 0001:00053eb4       __cftof                    00454eb4 f   LIBCMT:cvt.obj
 0001:00053ecf       __cftog_l                  00454ecf f   LIBCMT:cvt.obj
 0001:00053fc7       __cftog                    00454fc7 f   LIBCMT:cvt.obj
 0001:00053fe5       __cfltcvt_l                00454fe5 f   LIBCMT:cvt.obj
 0001:0005406b       __cfltcvt                  0045506b f   LIBCMT:cvt.obj
 0001:0005408c       __initp_misc_cfltcvt_tab   0045508c f   LIBCMT:cmiscdat.obj
 0001:000540ab       __setdefaultprecision      004550ab f   LIBCMT:fp8.obj
 0001:000540d4       __ms_p5_test_fdiv          004550d4 f   LIBCMT:testfdiv.obj
 0001:00054110       __ms_p5_mp_test_fdiv       00455110 f   LIBCMT:testfdiv.obj
 0001:00054139       ?_Type_info_dtor@type_info@@CAXPAV1@@Z 00455139 f   LIBCMT:typname.obj
 0001:000541a9       ?_Name_base@type_info@@CAPBDPBV1@PAU__type_info_node@@@Z 004551a9 f   LIBCMT:typname.obj
 0001:0005429e       ?_Type_info_dtor_internal@type_info@@CAXPAV1@@Z 0045529e f   LIBCMT:typname.obj
 0001:0005430e       ___unDNameHelper           0045530e f   LIBCMT:typname.obj
 0001:0005433f       ?_Name_base_internal@type_info@@CAPBDPBV1@PAU__type_info_node@@@Z 0045533f f   LIBCMT:typname.obj
 0001:0005442a       ___clean_type_info_names_internal 0045542a f   LIBCMT:typname.obj
 0001:00054480       _strcmp                    00455480 f   LIBCMT:strcmp.obj
 0001:00054508       _abort                     00455508 f   LIBCMT:abort.obj
 0001:000545fb       __set_abort_behavior       004555fb f   LIBCMT:abort.obj
 0001:00054619       __NMSG_WRITE               00455619 f   LIBCMT:crt0msg.obj
 0001:000547b9       __GET_RTERRMSG             004557b9 f   LIBCMT:crt0msg.obj
 0001:000547d9       __FF_MSGBANNER             004557d9 f   LIBCMT:crt0msg.obj
 0001:0005487e       __encode_pointer           0045587e f   LIBCMT:tidtable.obj
 0001:000548ec       __encoded_null             004558ec f   LIBCMT:tidtable.obj
 0001:000548f5       __decode_pointer           004558f5 f   LIBCMT:tidtable.obj
 0001:00054963       ___crtTlsAlloc@4           00455963 f   LIBCMT:tidtable.obj
 0001:0005496c       ___fls_getvalue@4          0045596c f   LIBCMT:tidtable.obj
 0001:00054981       ___get_flsindex            00455981 f   LIBCMT:tidtable.obj
 0001:00054987       ___set_flsgetvalue         00455987 f   LIBCMT:tidtable.obj
 0001:000549b9       ___fls_setvalue@8          004559b9 f   LIBCMT:tidtable.obj
 0001:000549d2       __mtterm                   004559d2 f   LIBCMT:tidtable.obj
 0001:00054a0f       __initptd                  00455a0f f   LIBCMT:tidtable.obj
 0001:00054ace       __getptd_noexit            00455ace f   LIBCMT:tidtable.obj
 0001:00054b45       __getptd                   00455b45 f   LIBCMT:tidtable.obj
 0001:00054b5d       __freefls@4                00455b5d f   LIBCMT:tidtable.obj
 0001:00054c7e       __freeptd                  00455c7e f   LIBCMT:tidtable.obj
 0001:00054ce7       ___threadid                00455ce7 f   LIBCMT:tidtable.obj
 0001:00054ced       ___threadhandle            00455ced f   LIBCMT:tidtable.obj
 0001:00054cf3       __mtinit                   00455cf3 f   LIBCMT:tidtable.obj
 0001:00054e77       ___getlocaleinfo           00455e77 f   LIBCMT:inithelp.obj
 0001:00054fd1       __initp_misc_purevirt      00455fd1 f   LIBCMT:inithelp.obj
 0001:00054fe0       _strlen                    00455fe0 f   LIBCMT:strlen.obj
 0001:0005506b       __fullpath                 0045606b f   LIBCMT:fullpath.obj
 0001:00055173       ___dtoxmode                00456173 f   LIBCMT:stat.obj
 0001:00055302       __stat32                   00456302 f   LIBCMT:stat.obj
 0001:0005560b       ___loctotime64_t           0045660b f   LIBCMT:dtoxtm64.obj
 0001:00055874       __getdrive                 00456874 f   LIBCMT:drive.obj
 0001:0005593a       __chdrive                  0045693a f   LIBCMT:drive.obj
 0001:000559db       __mbctolower_l             004569db f   LIBCMT:mbtolwr.obj
 0001:00055a7f       __mbctolower               00456a7f f   LIBCMT:mbtolwr.obj
 0001:00055a8d       __mbspbrk_l                00456a8d f   LIBCMT:mbspbrk.obj
 0001:00055b57       __mbspbrk                  00456b57 f   LIBCMT:mbspbrk.obj
 0001:00055b6a       ___report_gsfailure        00456b6a f   LIBCMT:gs_report.obj
 0001:00055c6e       ??0exception@std@@QAE@XZ   00456c6e f   LIBCMT:stdexcpt.obj
 0001:00055c7f       ??0exception@std@@QAE@ABQBD@Z 00456c7f f   LIBCMT:stdexcpt.obj
 0001:00055ccd       ??0exception@std@@QAE@ABQBDH@Z 00456ccd f   LIBCMT:stdexcpt.obj
 0001:00055ce5       ??0exception@std@@QAE@ABV01@@Z 00456ce5 f   LIBCMT:stdexcpt.obj
 0001:00055d3d       ??4exception@std@@QAEAAV01@ABV01@@Z 00456d3d f   LIBCMT:stdexcpt.obj
 0001:00055d93       ??1exception@std@@UAE@XZ   00456d93 f   LIBCMT:stdexcpt.obj
 0001:00055da9       ?what@exception@std@@UBEPBDXZ 00456da9 f   LIBCMT:stdexcpt.obj
 0001:00055db6       ??0bad_cast@std@@QAE@PBD@Z 00456db6 f   LIBCMT:stdexcpt.obj
 0001:00055dcf       ??0bad_cast@std@@QAE@ABV01@@Z 00456dcf f   LIBCMT:stdexcpt.obj
 0001:00055de7       ??1bad_cast@std@@UAE@XZ    00456de7 f   LIBCMT:stdexcpt.obj
 0001:00055df2       ??0bad_typeid@std@@QAE@PBD@Z 00456df2 f   LIBCMT:stdexcpt.obj
 0001:00055e0b       ??0bad_typeid@std@@QAE@ABV01@@Z 00456e0b f   LIBCMT:stdexcpt.obj
 0001:00055e23       ??1bad_typeid@std@@UAE@XZ  00456e23 f   LIBCMT:stdexcpt.obj
 0001:00055e2e       ??0__non_rtti_object@std@@QAE@PBD@Z 00456e2e f   LIBCMT:stdexcpt.obj
 0001:00055e46       ??0__non_rtti_object@std@@QAE@ABV01@@Z 00456e46 f   LIBCMT:stdexcpt.obj
 0001:00055e5e       ??1__non_rtti_object@std@@UAE@XZ 00456e5e f   LIBCMT:stdexcpt.obj
 0001:00055e69       ??_Gexception@std@@UAEPAXI@Z 00456e69 f i LIBCMT:stdexcpt.obj
 0001:00055e69       ??_Eexception@std@@UAEPAXI@Z 00456e69 f i LIBCMT:stdexcpt.obj
 0001:00055e85       ??_Ebad_cast@std@@UAEPAXI@Z 00456e85 f i LIBCMT:stdexcpt.obj
 0001:00055e85       ??_Gbad_cast@std@@UAEPAXI@Z 00456e85 f i LIBCMT:stdexcpt.obj
 0001:00055ea7       ??_Gbad_typeid@std@@UAEPAXI@Z 00456ea7 f i LIBCMT:stdexcpt.obj
 0001:00055ea7       ??_Ebad_typeid@std@@UAEPAXI@Z 00456ea7 f i LIBCMT:stdexcpt.obj
 0001:00055ec9       ??_G__non_rtti_object@std@@UAEPAXI@Z 00456ec9 f i LIBCMT:stdexcpt.obj
 0001:00055ec9       ??_E__non_rtti_object@std@@UAEPAXI@Z 00456ec9 f i LIBCMT:stdexcpt.obj
 0001:00055fa4       ___onexitinit              00456fa4 f   LIBCMT:onexit.obj
 0001:00055fd3       __onexit                   00456fd3 f   LIBCMT:onexit.obj
 0001:0005600f       _atexit                    0045700f f   LIBCMT:onexit.obj
 0001:00056021       __initp_heap_handler       00457021 f   LIBCMT:handler.obj
 0001:0005602b       ?_set_new_handler@@YAP6AHI@ZP6AHI@Z@Z 0045702b f   LIBCMT:handler.obj
 0001:0005605c       ?_set_new_handler@@YAP6AHI@ZH@Z 0045705c f   LIBCMT:handler.obj
 0001:00056065       ?_query_new_handler@@YAP6AHI@ZXZ 00457065 f   LIBCMT:handler.obj
 0001:00056072       __callnewh                 00457072 f   LIBCMT:handler.obj
 0001:00056094       __CxxThrowException@8      00457094 f   LIBCMT:throw.obj
 0001:00056135       __VEC_memzero              00457135 f   LIBCMT:p4_memset.obj
 0001:000561c4       __sse2_mathfcns_init       004571c4 f   LIBCMT:mathfcns.obj
 0001:000561d8       __set_SSE2_enable          004571d8 f   LIBCMT:mathfcns.obj
 0001:000561ec       ___sys_nerr                004571ec f   LIBCMT:syserr.obj
 0001:000561f2       ___sys_errlist             004571f2 f   LIBCMT:syserr.obj
 0001:000561f8       _strcpy_s                  004571f8 f   LIBCMT:strcpy_s.obj
 0001:0005625d       _wait_a_bit                0045725d f i LIBCMT:crtheap.obj
 0001:0005627e       __set_malloc_crt_max_wait  0045727e f   LIBCMT:crtheap.obj
 0001:0005628e       __malloc_crt               0045728e f   LIBCMT:crtheap.obj
 0001:000562ce       __calloc_crt               004572ce f   LIBCMT:crtheap.obj
 0001:00056316       __realloc_crt              00457316 f   LIBCMT:crtheap.obj
 0001:00056361       __recalloc_crt             00457361 f   LIBCMT:crtheap.obj
 0001:000563b1       @_malloc_crt_fastcall@4    004573b1 f   LIBCMT:crtheap.obj
 0001:000563b9       @_calloc_crt_fastcall@8    004573b9 f   LIBCMT:crtheap.obj
 0001:000563c3       @_realloc_crt_fastcall@8   004573c3 f   LIBCMT:crtheap.obj
 0001:000563cd       _strncpy_s                 004573cd f   LIBCMT:strncpy_s.obj
 0001:00056480       __flsbuf                   00457480 f   LIBCMT:_flsbuf.obj
 0001:00056681       _get_int_arg               00457681 f i LIBCMT:output.obj
 0001:0005668e       _get_int64_arg             0045768e f i LIBCMT:output.obj
 0001:0005669e       _get_short_arg             0045769e f i LIBCMT:output.obj
 0001:000566ac       __output_l                 004576ac f   LIBCMT:output.obj
 0001:00057040       __ioinit                   00458040 f   LIBCMT:ioinit.obj
 0001:00057294       __ioterm                   00458294 f   LIBCMT:ioinit.obj
 0001:000572e0       __SEH_prolog4              004582e0 f   LIBCMT:sehprolg4.obj
 0001:00057325       __SEH_epilog4              00458325 f   LIBCMT:sehprolg4.obj
 0001:00057370       __except_handler4          00458370 f   LIBCMT:chandler4.obj
 0001:0005755a       __INTRN_LOCALE_CONV        0045855a f i LIBCMT:input.obj
 0001:000575c7       __input_l                  004585c7 f   LIBCMT:input.obj
 0001:000582c8       __input_s_l                004592c8 f   LIBCMT:inputs.obj
 0001:00058ff3       __stbuf                    00459ff3 f   LIBCMT:_sftbuf.obj
 0001:00059089       __ftbuf                    0045a089 f   LIBCMT:_sftbuf.obj
 0001:000590b8       _vprintf_helper            0045a0b8 f   LIBCMT:vprintf.obj
 0001:00059148       __vprintf_l                0045a148 f   LIBCMT:vprintf.obj
 0001:00059162       __vprintf_s_l              0045a162 f   LIBCMT:vprintf.obj
 0001:0005917c       __vprintf_p_l              0045a17c f   LIBCMT:vprintf.obj
 0001:00059196       _vprintf                   0045a196 f   LIBCMT:vprintf.obj
 0001:000591ae       _vprintf_s                 0045a1ae f   LIBCMT:vprintf.obj
 0001:000591c6       __vprintf_p                0045a1c6 f   LIBCMT:vprintf.obj
 0001:00059472       __strtoi64                 0045a472 f   LIBCMT:strtoq.obj
 0001:0005949b       __strtoi64_l               0045a49b f   LIBCMT:strtoq.obj
 0001:000594b6       __strtoui64                0045a4b6 f   LIBCMT:strtoq.obj
 0001:000594e0       __strtoui64_l              0045a4e0 f   LIBCMT:strtoq.obj
 0001:000594fb       __vsprintf_l               0045a4fb f   LIBCMT:vsprintf.obj
 0001:00059577       _vsprintf                  0045a577 f   LIBCMT:vsprintf.obj
 0001:0005958e       __vscprintf_helper         0045a58e f   LIBCMT:vsprintf.obj
 0001:000595e3       __vscprintf                0045a5e3 f   LIBCMT:vsprintf.obj
 0001:000595fb       __vscprintf_l              0045a5fb f   LIBCMT:vsprintf.obj
 0001:00059615       __vscprintf_p              0045a615 f   LIBCMT:vsprintf.obj
 0001:0005962d       __vscprintf_p_l            0045a62d f   LIBCMT:vsprintf.obj
 0001:00059647       __vsnprintf_helper         0045a647 f   LIBCMT:vsnprnc.obj
 0001:00059711       __vsnprintf_c              0045a711 f   LIBCMT:vsnprnc.obj
 0001:00059738       __vsnprintf_c_l            0045a738 f   LIBCMT:vsnprnc.obj
 0001:00059760       __vsprintf_s_l             0045a760 f   LIBCMT:vsnprnc.obj
 0001:000597e6       _vsprintf_s                0045a7e6 f   LIBCMT:vsnprnc.obj
 0001:00059801       __vsnprintf_s_l            0045a801 f   LIBCMT:vsnprnc.obj
 0001:00059906       __vsnprintf_s              0045a906 f   LIBCMT:vsnprnc.obj
 0001:00059924       __vsprintf_p               0045a924 f   LIBCMT:vsnprnc.obj
 0001:0005994b       __vsprintf_p_l             0045a94b f   LIBCMT:vsnprnc.obj
 0001:00059973       _setvbuf                   0045a973 f   LIBCMT:setvbuf.obj
 0001:00059a71       __fcloseall                0045aa71 f   LIBCMT:closeall.obj
 0001:00059b10       __mtinitlocks              0045ab10 f   LIBCMT:mlock.obj
 0001:00059b59       __mtdeletelocks            0045ab59 f   LIBCMT:mlock.obj
 0001:00059bae       __unlock                   0045abae f   LIBCMT:mlock.obj
 0001:00059bc3       __lockerr_exit             0045abc3 f   LIBCMT:mlock.obj
 0001:00059bdb       __mtinitlocknum            0045abdb f   LIBCMT:mlock.obj
 0001:00059c9e       __lock                     0045ac9e f   LIBCMT:mlock.obj
 0001:00059ccf       __write_nolock             0045accf f   LIBCMT:write.obj
 0001:0005a2f1       _write                     0045b2f1 f   LIBCMT:write.obj
 0001:0005a2f1       __write                    0045b2f1 f   LIBCMT:write.obj
 0001:0005a3cd       __RTC_Initialize           0045b3cd f   LIBCMT:initsect.obj
 0001:0005a3f1       __RTC_Terminate            0045b3f1 f   LIBCMT:initsect.obj
 0001:0005a420       __ValidateImageBase        0045b420 f   LIBCMT:pesect.obj
 0001:0005a450       __FindPESection            0045b450 f   LIBCMT:pesect.obj
 0001:0005a4a0       __IsNonwritableInCurrentImage 0045b4a0 f   LIBCMT:pesect.obj
 0001:0005a55b       ?terminate@@YAXXZ          0045b55b f   LIBCMT:hooks.obj
 0001:0005a594       ?unexpected@@YAXXZ         0045b594 f   LIBCMT:hooks.obj
 0001:0005a5a7       ?_inconsistency@@YAXXZ     0045b5a7 f   LIBCMT:hooks.obj
 0001:0005a5de       __initp_eh_hooks           0045b5de f   LIBCMT:hooks.obj
 0001:0005a5ef       __initp_misc_winxfltr      0045b5ef f   LIBCMT:winxfltr.obj
 0001:0005a622       __XcptFilter               0045b622 f   LIBCMT:winxfltr.obj
 0001:0005a780       ___CppXcptFilter           0045b780 f   LIBCMT:winxfltr.obj
 0001:0005a79b       __initp_misc_rand_s        0045b79b f   LIBCMT:rand_s.obj
 0001:0005a7a5       _rand_s                    0045b7a5 f   LIBCMT:rand_s.obj
 0001:0005a8a9       __initp_misc_initcrit      0045b8a9 f   LIBCMT:initcrit.obj
 0001:0005a8c3       ___crtInitCritSecAndSpinCount 0045b8c3 f   LIBCMT:initcrit.obj
 0001:0005aa29       __output_s_l               0045ba29 f   LIBCMT:outputs.obj
 0001:0005b3d9       __validate_param_reuseA    0045c3d9 f   LIBCMT:outputp.obj
 0001:0005b5a3       _get_crtdouble_arg         0045c5a3 f i LIBCMT:outputp.obj
 0001:0005b5b3       __output_p_l               0045c5b3 f   LIBCMT:outputp.obj
 0001:0005c5c2       __VEC_memcpy               0045d5c2 f   LIBCMT:p4_memcpy.obj
 0001:0005c6a5       __filbuf                   0045d6a5 f   LIBCMT:_filbuf.obj
 0001:0005c7c5       ___libm_setusermatherr     0045d7c5 f   LIBCMT:libm_error.obj
 0001:0005c7ee       ___libm_error_support      0045d7ee f   LIBCMT:libm_error.obj
 0001:0005ca9e       __floor_default            0045da9e f   LIBCMT:floor.obj
 0001:0005cb6f       __mbsnbicoll_l             0045db6f f   LIBCMT:mbsnbico.obj
 0001:0005cc5b       __mbsnbicoll               0045dc5b f   LIBCMT:mbsnbico.obj
 0001:0005cc72       ___wtomb_environ           0045dc72 f   LIBCMT:wtombenv.obj
 0001:0005cd07       __calloc_impl              0045dd07 f   LIBCMT:calloc.obj
 0001:0005ce25       _calloc                    0045de25 f   LIBCMT:calloc.obj
 0001:0005d072       ___updatetmbcinfo          0045e072 f   LIBCMT:mbctype.obj
 0001:0005d190       __setmbcp_nolock           0045e190 f   LIBCMT:mbctype.obj
 0001:0005d369       __getmbcp                  0045e369 f   LIBCMT:mbctype.obj
 0001:0005d3a5       __setmbcp                  0045e3a5 f   LIBCMT:mbctype.obj
 0001:0005d53f       ___initmbctable            0045e53f f   LIBCMT:mbctype.obj
 0001:0005d55d       ____setlc_active_func      0045e55d f   LIBCMT:setlocal.obj
 0001:0005d563       ____unguarded_readlc_active_add_func 0045e563 f   LIBCMT:setlocal.obj
 0001:0005d569       ___freetlocinfo            0045e569 f   LIBCMT:setlocal.obj
 0001:0005d6a9       ___addlocaleref            0045e6a9 f   LIBCMT:setlocal.obj
 0001:0005d72f       ___removelocaleref         0045e72f f   LIBCMT:setlocal.obj
 0001:0005d81d       ___updatetlocinfo          0045e81d f   LIBCMT:setlocal.obj
 0001:0005d893       __configthreadlocale       0045e893 f   LIBCMT:setlocal.obj
 0001:0005d94c       __free_locale              0045e94c f   LIBCMT:setlocal.obj
 0001:0005d9e2       ___free_locale             0045e9e2 f   LIBCMT:setlocal.obj
 0001:0005d9e7       __get_current_locale       0045e9e7 f   LIBCMT:setlocal.obj
 0001:0005da6f       ___get_current_locale      0045ea6f f   LIBCMT:setlocal.obj
 0001:0005da74       ___init_dummy              0045ea74 f   LIBCMT:setlocal.obj
 0001:0005da77       __strcats                  0045ea77 f   LIBCMT:setlocal.obj
 0001:0005dab5       ___lc_strtolc              0045eab5 f   LIBCMT:setlocal.obj
 0001:0005dbde       ___lc_lctostr              0045ebde f   LIBCMT:setlocal.obj
 0001:0005ddba       __expandlocale             0045edba f   LIBCMT:setlocal.obj
 0001:0005e452       __create_locale            0045f452 f   LIBCMT:setlocal.obj
 0001:0005e545       ___create_locale           0045f545 f   LIBCMT:setlocal.obj
 0001:0005e54a       _setlocale                 0045f54a f   LIBCMT:setlocal.obj
 0001:0005e6ba       __isctype_l                0045f6ba f   LIBCMT:isctype.obj
 0001:0005e770       __isctype                  0045f770 f   LIBCMT:isctype.obj
 0001:0005e79f       ___initconin               0045f79f f   LIBCMT:initcon.obj
 0001:0005e7be       ___initconout              0045f7be f   LIBCMT:initcon.obj
 0001:0005e7dd       ___termcon                 0045f7dd f   LIBCMT:initcon.obj
 0001:0005e80a       __putch_nolock             0045f80a f   LIBCMT:putch.obj
 0001:0005e882       __putch                    0045f882 f   LIBCMT:putch.obj
 0001:0005e8c4       ?__CxxUnhandledExceptionFilter@@YGJPAU_EXCEPTION_POINTERS@@@Z 0045f8c4 f   LIBCMT:unhandld.obj
 0001:0005e901       ___CxxSetUnhandledExceptionFilter 0045f901 f   LIBCMT:unhandld.obj
 0001:0005e90f       __setenvp                  0045f90f f   LIBCMT:stdenvp.obj
 0001:0005e9ea       __set_pgmptr               0045f9ea f i LIBCMT:stdargv.obj
 0001:0005eb8c       __setargv                  0045fb8c f   LIBCMT:stdargv.obj
 0001:0005ec45       ___crtGetEnvironmentStringsA 0045fc45 f   LIBCMT:a_env.obj
 0001:0005ed7a       ___heap_select             0045fd7a f   LIBCMT:heapinit.obj
 0001:0005edd5       __heap_init                0045fdd5 f   LIBCMT:heapinit.obj
 0001:0005ee2f       __heap_term                0045fe2f f   LIBCMT:heapinit.obj
 0001:0005eea3       __get_heap_handle          0045fea3 f   LIBCMT:heapinit.obj
 0001:0005eea9       ___security_init_cookie    0045fea9 f   LIBCMT:gs_support.obj
 0001:0005ef3d       __get_sbh_threshold        0045ff3d f   LIBCMT:sbheap.obj
 0001:0005ef5e       __set_amblksiz             0045ff5e f   LIBCMT:sbheap.obj
 0001:0005efa4       __get_amblksiz             0045ffa4 f   LIBCMT:sbheap.obj
 0001:0005efe0       ___sbh_heap_init           0045ffe0 f   LIBCMT:sbheap.obj
 0001:0005f028       ___sbh_find_block          00460028 f   LIBCMT:sbheap.obj
 0001:0005f053       ___sbh_free_block          00460053 f   LIBCMT:sbheap.obj
 0001:0005f367       ___sbh_alloc_new_region    00460367 f   LIBCMT:sbheap.obj
 0001:0005f417       ___sbh_alloc_new_group     00460417 f   LIBCMT:sbheap.obj
 0001:0005f51d       ___sbh_resize_block        0046051d f   LIBCMT:sbheap.obj
 0001:0005f7fc       ___sbh_heapmin             004607fc f   LIBCMT:sbheap.obj
 0001:0005f8c9       ___sbh_heap_check          004608c9 f   LIBCMT:sbheap.obj
 0001:0005fbab       __set_sbh_threshold        00460bab f   LIBCMT:sbheap.obj
 0001:0005fc53       ___sbh_alloc_block         00460c53 f   LIBCMT:sbheap.obj
 0001:0005ff36       __msize                    00460f36 f   LIBCMT:msize.obj
 0001:0005ffd9       ___loctotime32_t           00460fd9 f   LIBCMT:dtoxtime.obj
 0001:000601dd       __get_daylight             004611dd f   LIBCMT:timeset.obj
 0001:00060211       __get_dstbias              00461211 f   LIBCMT:timeset.obj
 0001:00060245       __get_timezone             00461245 f   LIBCMT:timeset.obj
 0001:00060279       __get_tzname               00461279 f   LIBCMT:timeset.obj
 0001:0006031b       ___daylight                0046131b f   LIBCMT:timeset.obj
 0001:00060321       ___dstbias                 00461321 f   LIBCMT:timeset.obj
 0001:00060327       ___timezone                00461327 f   LIBCMT:timeset.obj
 0001:0006032d       ___tzname                  0046132d f   LIBCMT:timeset.obj
 0001:00060340       __allrem                   00461340 f   LIBCMT:llrem.obj
 0001:000603f2       __gmtime32_s               004613f2 f   LIBCMT:gmtime.obj
 0001:0006051f       ___getgmtimebuf            0046151f f   LIBCMT:gmtime.obj
 0001:00060567       __gmtime32                 00461567 f   LIBCMT:gmtime.obj
 0001:0006058b       __openfile                 0046158b f   LIBCMT:_open.obj
 0001:0006082b       __freebuf                  0046182b f   LIBCMT:_freebuf.obj
 0001:00060857       __getstream                00461857 f   LIBCMT:stream.obj
 0001:00060990       __local_unwind4            00461990 f   LIBCMT:exsup4.obj
 0001:00060a66       __seh_longjmp_unwind4@4    00461a66 f   LIBCMT:exsup4.obj
 0001:00060a82       @_EH4_CallFilterFunc@8     00461a82 f   LIBCMT:exsup4.obj
 0001:00060a99       @_EH4_TransferToHandler@8  00461a99 f   LIBCMT:exsup4.obj
 0001:00060ab2       @_EH4_GlobalUnwind@4       00461ab2 f   LIBCMT:exsup4.obj
 0001:00060acc       @_EH4_LocalUnwind@16       00461acc f   LIBCMT:exsup4.obj
 0001:00060ae3       ___init_ctype              00461ae3 f   LIBCMT:initctyp.obj
 0001:00060e78       ____mb_cur_max_func        00461e78 f   LIBCMT:initctyp.obj
 0001:00060ea1       ____mb_cur_max_l_func      00461ea1 f   LIBCMT:initctyp.obj
 0001:00060eb7       ____lc_codepage_func       00461eb7 f   LIBCMT:initctyp.obj
 0001:00060edd       ____lc_collate_cp_func     00461edd f   LIBCMT:initctyp.obj
 0001:00060f03       ____lc_handle_func         00461f03 f   LIBCMT:initctyp.obj
 0001:00060f29       __crt_debugger_hook        00461f29 f   LIBCMT:dbghook.obj
 0001:00060f31       __read_nolock              00461f31 f   LIBCMT:read.obj
 0001:000614f2       __read                     004624f2 f   LIBCMT:read.obj
 0001:000614f2       _read                      004624f2 f   LIBCMT:read.obj
 0001:000615ef       _memcpy_s                  004625ef f   LIBCMT:memcpy_s.obj
 0001:0006166a       __lseek_nolock             0046266a f   LIBCMT:lseek.obj
 0001:000616dc       __lseek                    004626dc f   LIBCMT:lseek.obj
 0001:000617b8       _ldexp                     004627b8 f   LIBCMT:ldexp.obj
 0001:00061966       __set_exp                  00462966 f   LIBCMT:util.obj
 0001:00061990       __get_exp                  00462990 f   LIBCMT:util.obj
 0001:000619a5       __add_exp                  004629a5 f   LIBCMT:util.obj
 0001:000619cf       __set_bexp                 004629cf f   LIBCMT:util.obj
 0001:000619f4       __sptype                   004629f4 f   LIBCMT:util.obj
 0001:00061a4f       __decomp                   00462a4f f   LIBCMT:util.obj
 0001:00061afe       __raise_exc_ex             00462afe f   LIBCMT:fpexcept.obj
 0001:00061dd8       __raise_exc                00462dd8 f   LIBCMT:fpexcept.obj
 0001:00061df9       __raise_excf               00462df9 f   LIBCMT:fpexcept.obj
 0001:00061e1a       __handle_exc               00462e1a f   LIBCMT:fpexcept.obj
 0001:00061ffb       __set_errno_from_matherr   00462ffb f   LIBCMT:fpexcept.obj
 0001:00062043       __errcode                  00463043 f   LIBCMT:fpexcept.obj
 0001:00062070       __umatherr                 00463070 f   LIBCMT:fpexcept.obj
 0001:0006210e       __handle_qnan1             0046310e f   LIBCMT:fpexcept.obj
 0001:00062161       __handle_qnan2             00463161 f   LIBCMT:fpexcept.obj
 0001:000621c0       __except1                  004631c0 f   LIBCMT:fpexcept.obj
 0001:0006227a       __except2                  0046327a f   LIBCMT:fpexcept.obj
 0001:00062346       __statfp                   00463346 f   LIBCMT:fpctrl.obj
 0001:00062351       __clrfp                    00463351 f   LIBCMT:fpctrl.obj
 0001:0006235d       __ctrlfp                   0046335d f   LIBCMT:fpctrl.obj
 0001:00062384       __set_statfp               00463384 f   LIBCMT:fpctrl.obj
 0001:000623da       ___get_fpsr_sse2           004633da f   LIBCMT:fpctrl.obj
 0001:000623f6       ___set_fpsr_sse2           004633f6 f   LIBCMT:fpctrl.obj
 0001:00062468       ___fclrf_sse2              00463468 f   LIBCMT:fpctrl.obj
 0001:00062480       ___statfp_sse2             00463480 f   LIBCMT:fpctrl.obj
 0001:00062493       ___clrfp_sse2              00463493 f   LIBCMT:fpctrl.obj
 0001:000624ab       ___ctrlfp_sse2             004634ab f   LIBCMT:fpctrl.obj
 0001:000624df       ___set_statfp_sse2         004634df f   LIBCMT:fpctrl.obj
 0001:000624f5       __tolower                  004634f5 f   LIBCMT:tolower.obj
 0001:000624fd       __tolower_l                004634fd f   LIBCMT:tolower.obj
 0001:00062614       _tolower                   00463614 f   LIBCMT:tolower.obj
 0001:0006263b       __atodbl_l                 0046363b f   LIBCMT:atodbl.obj
 0001:000626e1       __atodbl                   004636e1 f   LIBCMT:atodbl.obj
 0001:000626f4       __atoldbl_l                004636f4 f   LIBCMT:atodbl.obj
 0001:0006279b       __atoldbl                  0046379b f   LIBCMT:atodbl.obj
 0001:000627ae       __atoflt_l                 004637ae f   LIBCMT:atodbl.obj
 0001:00062854       __atoflt                   00463854 f   LIBCMT:atodbl.obj
 0001:00062867       __set_output_format        00463867 f   LIBCMT:outputformat.obj
 0001:0006289e       __get_output_format        0046389e f   LIBCMT:outputformat.obj
 0001:000628a4       __fptostr                  004638a4 f   LIBCMT:_fptostr.obj
 0001:00062961       ___dtold                   00463961 f   LIBCMT:cfout.obj
 0001:00062a1c       __fltout2                  00463a1c f   LIBCMT:cfout.obj
 0001:00062ab0       __alldvrm                  00463ab0 f   LIBCMT:lldvrm.obj
 0001:00062b90       __aullshr                  00463b90 f   LIBCMT:ullshr.obj
 0001:00062baf       __fptrap                   00463baf f   LIBCMT:crt0fp.obj
 0001:00062bb8       __controlfp_s              00463bb8 f   LIBCMT:contrlfp.obj
 0001:00062c22       ??0Block@HeapManager@@QAE@XZ 00463c22 f i LIBCMT:undname.obj
 0001:00062c28       ?Constructor@HeapManager@@QAEXP6APAXI@ZP6AXPAX@Z@Z 00463c28 f i LIBCMT:undname.obj
 0001:00062c43       ?Destructor@HeapManager@@QAEXXZ 00463c43 f i LIBCMT:undname.obj
 0001:00062c69       ?getNumberOfDimensions@UnDecorator@@CAHXZ 00463c69 f   LIBCMT:undname.obj
 0001:00062ccc       ?getTypeEncoding@UnDecorator@@CAHXZ 00463ccc f i LIBCMT:undname.obj
 0001:00063140       ?doUnderScore@UnDecorator@@SAHXZ 00464140 f i LIBCMT:undname.obj
 0001:0006314b       ?doMSKeywords@UnDecorator@@SAHXZ 0046414b f i LIBCMT:undname.obj
 0001:00063158       ?doPtr64@UnDecorator@@SAHXZ 00464158 f i LIBCMT:undname.obj
 0001:00063166       ?doFunctionReturns@UnDecorator@@SAHXZ 00464166 f i LIBCMT:undname.obj
 0001:00063174       ?doAllocationModel@UnDecorator@@SAHXZ 00464174 f i LIBCMT:undname.obj
 0001:00063182       ?doAllocationLanguage@UnDecorator@@SAHXZ 00464182 f i LIBCMT:undname.obj
 0001:00063190       ?doThisTypes@UnDecorator@@SAHXZ 00464190 f i LIBCMT:undname.obj
 0001:000631a2       ?doAccessSpecifiers@UnDecorator@@SAHXZ 004641a2 f i LIBCMT:undname.obj
 0001:000631b0       ?doThrowTypes@UnDecorator@@SAHXZ 004641b0 f i LIBCMT:undname.obj
 0001:000631be       ?doMemberTypes@UnDecorator@@SAHXZ 004641be f i LIBCMT:undname.obj
 0001:000631cc       ?doNameOnly@UnDecorator@@SAHXZ 004641cc f i LIBCMT:undname.obj
 0001:000631d7       ?doTypeOnly@UnDecorator@@SAHXZ 004641d7 f i LIBCMT:undname.obj
 0001:000631e2       ?haveTemplateParameters@UnDecorator@@SAHXZ 004641e2 f i LIBCMT:undname.obj
 0001:000631ed       ?doEcsu@UnDecorator@@SAHXZ 004641ed f i LIBCMT:undname.obj
 0001:000631fb       ?doNoIdentCharCheck@UnDecorator@@SAHXZ 004641fb f i LIBCMT:undname.obj
 0001:00063206       ?doEllipsis@UnDecorator@@SAHXZ 00464206 f i LIBCMT:undname.obj
 0001:00063214       ?UScore@UnDecorator@@SAPBDW4Tokens@@@Z 00464214 f   LIBCMT:undname.obj
 0001:0006322d       ?getMemory@HeapManager@@QAEPAXIH@Z 0046422d f   LIBCMT:undname.obj
 0001:000632b1       ??0DName@@QAE@XZ           004642b1 f i LIBCMT:undname.obj
 0001:000632be       ??0DName@@QAE@PAVDNameNode@@@Z 004642be f i LIBCMT:undname.obj
 0001:000632d0       ??0DName@@QAE@ABV0@@Z      004642d0 f i LIBCMT:undname.obj
 0001:0006336c       ?status@DName@@QBE?AW4DNameStatus@@XZ 0046436c f i LIBCMT:undname.obj
 0001:00063376       ?clearStatus@DName@@QAEXXZ 00464376 f i LIBCMT:undname.obj
 0001:0006337b       ?setPtrRef@DName@@QAEAAV1@XZ 0046437b f i LIBCMT:undname.obj
 0001:00063382       ?isPtrRef@DName@@QBEHXZ    00464382 f i LIBCMT:undname.obj
 0001:0006338c       ?setIsArray@DName@@QAEXXZ  0046438c f i LIBCMT:undname.obj
 0001:00063394       ?isArray@DName@@QBEHXZ     00464394 f i LIBCMT:undname.obj
 0001:0006339e       ?isNoTE@DName@@QBEHXZ      0046439e f i LIBCMT:undname.obj
 0001:000633a8       ?setIsNoTE@DName@@QAEXXZ   004643a8 f i LIBCMT:undname.obj
 0001:000633b0       ?isPinPtr@DName@@QBEHXZ    004643b0 f i LIBCMT:undname.obj
 0001:000633ba       ?setIsPinPtr@DName@@QAEXXZ 004643ba f i LIBCMT:undname.obj
 0001:000633c2       ?isComArray@DName@@QBEHXZ  004643c2 f i LIBCMT:undname.obj
 0001:000633cc       ?setIsComArray@DName@@QAEXXZ 004643cc f i LIBCMT:undname.obj
 0001:000633d4       ?isVCallThunk@DName@@QBEHXZ 004643d4 f i LIBCMT:undname.obj
 0001:000633de       ?setIsVCallThunk@DName@@QAEXXZ 004643de f i LIBCMT:undname.obj
 0001:000633e6       ??4DName@@QAEAAV0@ABV0@@Z  004643e6 f   LIBCMT:undname.obj
 0001:00063461       ?isFull@Replicator@@QBEHXZ 00464461 f i LIBCMT:undname.obj
 0001:0006346a       ??AReplicator@@QBEABVDName@@H@Z 0046446a f   LIBCMT:undname.obj
 0001:0006348f       ??0DNameNode@@IAE@XZ       0046448f f   LIBCMT:undname.obj
 0001:0006349c       ?nextNode@DNameNode@@QBEPAV1@XZ 0046449c f i LIBCMT:undname.obj
 0001:000634a0       ??YDNameNode@@QAEAAV0@PAV0@@Z 004644a0 f   LIBCMT:undname.obj
 0001:000634c9       ??0charNode@@QAE@D@Z       004644c9 f   LIBCMT:undname.obj
 0001:000634df       ?length@charNode@@UBEHXZ   004644df f i LIBCMT:undname.obj
 0001:000634e3       ?getLastChar@charNode@@UBEDXZ 004644e3 f i LIBCMT:undname.obj
 0001:000634e7       ?getString@charNode@@UBEPADPADH@Z 004644e7 f   LIBCMT:undname.obj
 0001:00063502       ?length@pcharNode@@UBEHXZ  00464502 f i LIBCMT:undname.obj
 0001:00063506       ??0pDNameNode@@QAE@PAVDName@@@Z 00464506 f   LIBCMT:undname.obj
 0001:00063535       ??0DNameStatusNode@@QAE@W4DNameStatus@@@Z 00464535 f   LIBCMT:undname.obj
 0001:0006355a       ?length@DNameStatusNode@@UBEHXZ 0046455a f i LIBCMT:undname.obj
 0001:0006355e       ?getLastChar@DNameStatusNode@@UBEDXZ 0046455e f i LIBCMT:undname.obj
 0001:000635be       ?getDataIndirectType@UnDecorator@@CA?AVDName@@XZ 004645be f i LIBCMT:undname.obj
 0001:000635f1       ?getThisType@UnDecorator@@CA?AVDName@@XZ 004645f1 f i LIBCMT:undname.obj
 0001:00063625       ??2@YAPAXIAAVHeapManager@@H@Z 00464625 f i LIBCMT:undname.obj
 0001:00063638       ??0DName@@QAE@PAV0@@Z      00464638 f   LIBCMT:undname.obj
 0001:0006368e       ??0DName@@QAE@W4DNameStatus@@@Z 0046468e f   LIBCMT:undname.obj
 0001:000636ef       ?isValid@DName@@QBEHXZ     004646ef f   LIBCMT:undname.obj
 0001:00063706       ?isEmpty@DName@@QBEHXZ     00464706 f   LIBCMT:undname.obj
 0001:0006371b       ?isUDC@DName@@QBEHXZ       0046471b f i LIBCMT:undname.obj
 0001:0006372f       ?setIsUDC@DName@@QAEXXZ    0046472f f i LIBCMT:undname.obj
 0001:0006373d       ?isUDTThunk@DName@@QBEHXZ  0046473d f i LIBCMT:undname.obj
 0001:00063751       ?length@DName@@QBEHXZ      00464751 f   LIBCMT:undname.obj
 0001:00063776       ?getLastChar@DName@@QBEDXZ 00464776 f   LIBCMT:undname.obj
 0001:000637ae       ?getString@DName@@QBEPADPADH@Z 004647ae f   LIBCMT:undname.obj
 0001:0006383f       ??_5DName@@QAEAAV0@ABV0@@Z 0046483f f   LIBCMT:undname.obj
 0001:00063874       ??4DName@@QAEAAV0@W4DNameStatus@@@Z 00464874 f   LIBCMT:undname.obj
 0001:000638f5       ??0Replicator@@QAE@XZ      004648f5 f i LIBCMT:undname.obj
 0001:00063913       ??YReplicator@@QAEAAV0@ABVDName@@@Z 00464913 f   LIBCMT:undname.obj
 0001:0006395a       ?clone@DNameNode@@QAEPAV1@XZ 0046495a f   LIBCMT:undname.obj
 0001:000639a1       ??0pcharNode@@QAE@PBDH@Z   004649a1 f   LIBCMT:undname.obj
 0001:00063a06       ?getLastChar@pcharNode@@UBEDXZ 00464a06 f i LIBCMT:undname.obj
 0001:00063a18       ?getString@pcharNode@@UBEPADPADH@Z 00464a18 f   LIBCMT:undname.obj
 0001:00063a49       ?length@pDNameNode@@UBEHXZ 00464a49 f i LIBCMT:undname.obj
 0001:00063a58       ?getLastChar@pDNameNode@@UBEDXZ 00464a58 f i LIBCMT:undname.obj
 0001:00063a67       ?getString@pDNameNode@@UBEPADPADH@Z 00464a67 f   LIBCMT:undname.obj
 0001:00063a84       ?getString@DNameStatusNode@@UBEPADPADH@Z 00464a84 f   LIBCMT:undname.obj
 0001:00063ab7       ??0UnDecorator@@QAE@PADPBDHP6APADJ@ZK@Z 00464ab7 f i LIBCMT:undname.obj
 0001:00063b2a       ?getReturnType@UnDecorator@@CA?AVDName@@PAV2@@Z 00464b2a f   LIBCMT:undname.obj
 0001:00063b59       ?getStorageConvention@UnDecorator@@CA?AVDName@@XZ 00464b59 f i LIBCMT:undname.obj
 0001:00063b68       ??YDName@@QAEAAV0@W4DNameStatus@@@Z 00464b68 f   LIBCMT:undname.obj
 0001:00063be1       ??4DName@@QAEAAV0@PAV0@@Z  00464be1 f   LIBCMT:undname.obj
 0001:00063c49       ?doPchar@DName@@AAEXPBDH@Z 00464c49 f   LIBCMT:undname.obj
 0001:00063cef       ??0DName@@QAE@D@Z          00464cef f   LIBCMT:undname.obj
 0001:00063d15       ??0DName@@QAE@PBD@Z        00464d15 f   LIBCMT:undname.obj
 0001:00063d46       ??0DName@@QAE@AAPBDD@Z     00464d46 f   LIBCMT:undname.obj
 0001:00063e16       ??0DName@@QAE@_K@Z         00464e16 f   LIBCMT:undname.obj
 0001:00063e7f       ??0DName@@QAE@_J@Z         00464e7f f   LIBCMT:undname.obj
 0001:00063f15       ??HDName@@QBE?AV0@W4DNameStatus@@@Z 00464f15 f   LIBCMT:undname.obj
 0001:00063f43       ??YDName@@QAEAAV0@ABV0@@Z  00464f43 f   LIBCMT:undname.obj
 0001:00063fa5       ??YDName@@QAEAAV0@PAV0@@Z  00464fa5 f   LIBCMT:undname.obj
 0001:00064030       ??4DName@@QAEAAV0@D@Z      00465030 f   LIBCMT:undname.obj
 0001:0006404c       ??4DName@@QAEAAV0@PBD@Z    0046504c f   LIBCMT:undname.obj
 0001:00064076       ?getCallingConvention@UnDecorator@@CA?AVDName@@XZ 00465076 f   LIBCMT:undname.obj
 0001:0006411c       ?getVCallThunkType@UnDecorator@@CA?AVDName@@XZ 0046511c f i LIBCMT:undname.obj
 0001:00064153       ??HDName@@QBE?AV0@ABV0@@Z  00465153 f   LIBCMT:undname.obj
 0001:000641a4       ??HDName@@QBE?AV0@PAV0@@Z  004651a4 f   LIBCMT:undname.obj
 0001:000641d2       ??YDName@@QAEAAV0@D@Z      004651d2 f   LIBCMT:undname.obj
 0001:0006423c       ??YDName@@QAEAAV0@PBD@Z    0046523c f   LIBCMT:undname.obj
 0001:000642a8       ?getArgumentList@UnDecorator@@CA?AVDName@@XZ 004652a8 f   LIBCMT:undname.obj
 0001:00064388       ?getVdispMapType@UnDecorator@@CA?AVDName@@ABV2@@Z 00465388 f i LIBCMT:undname.obj
 0001:000643d7       ??H@YA?AVDName@@DABV0@@Z   004653d7 f i LIBCMT:undname.obj
 0001:000643f9       ??H@YA?AVDName@@W4DNameStatus@@ABV0@@Z 004653f9 f i LIBCMT:undname.obj
 0001:0006441b       ??H@YA?AVDName@@PBDABV0@@Z 0046541b f i LIBCMT:undname.obj
 0001:0006443d       ??HDName@@QBE?AV0@D@Z      0046543d f   LIBCMT:undname.obj
 0001:0006446b       ??HDName@@QBE?AV0@PBD@Z    0046546b f   LIBCMT:undname.obj
 0001:00064499       ?getDimension@UnDecorator@@CA?AVDName@@_N@Z 00465499 f   LIBCMT:undname.obj
 0001:000645da       ?getEnumType@UnDecorator@@CA?AVDName@@XZ 004655da f i LIBCMT:undname.obj
 0001:000646ae       ?getArgumentTypes@UnDecorator@@CA?AVDName@@XZ 004656ae f   LIBCMT:undname.obj
 0001:00064772       ?getThrowTypes@UnDecorator@@CA?AVDName@@XZ 00465772 f   LIBCMT:undname.obj
 0001:000647f0       ?getExtendedDataIndirectType@UnDecorator@@CA?AVDName@@AADAA_NH@Z 004657f0 f   LIBCMT:undname.obj
 0001:00064915       ?getArrayType@UnDecorator@@CA?AVDName@@ABV2@@Z 00465915 f i LIBCMT:undname.obj
 0001:00064a74       ?getLexicalFrame@UnDecorator@@CA?AVDName@@XZ 00465a74 f i LIBCMT:undname.obj
 0001:00064aa5       ?getDisplacement@UnDecorator@@CA?AVDName@@XZ 00465aa5 f i LIBCMT:undname.obj
 0001:00064ab7       ?getCallIndex@UnDecorator@@CA?AVDName@@XZ 00465ab7 f i LIBCMT:undname.obj
 0001:00064ac9       ?getGuardNumber@UnDecorator@@CA?AVDName@@XZ 00465ac9 f i LIBCMT:undname.obj
 0001:00064adb       ?getVfTableType@UnDecorator@@CA?AVDName@@ABV2@@Z 00465adb f i LIBCMT:undname.obj
 0001:00064c2b       ?getStringEncoding@UnDecorator@@CA?AVDName@@PADH@Z 00465c2b f   LIBCMT:undname.obj
 0001:00064ccb       ?getSignedDimension@UnDecorator@@CA?AVDName@@XZ 00465ccb f   LIBCMT:undname.obj
 0001:00064d1b       ?getTemplateConstant@UnDecorator@@CA?AVDName@@XZ 00465d1b f   LIBCMT:undname.obj
 0001:00064fd6       ?getPtrRefDataType@UnDecorator@@CA?AVDName@@ABV2@H@Z 00465fd6 f i LIBCMT:undname.obj
 0001:000650af       ?getVbTableType@UnDecorator@@CA?AVDName@@ABV2@@Z 004660af f i LIBCMT:undname.obj
 0001:000650c3       ?getTemplateArgumentList@UnDecorator@@CA?AVDName@@XZ 004660c3 f   LIBCMT:undname.obj
 0001:0006527b       ?getOperatorName@UnDecorator@@CA?AVDName@@_NPA_N@Z 0046627b f i LIBCMT:undname.obj
 0001:000657ea       ?getTemplateName@UnDecorator@@CA?AVDName@@_N@Z 004667ea f   LIBCMT:undname.obj
 0001:0006593d       ?getZName@UnDecorator@@CA?AVDName@@_N@Z 0046693d f   LIBCMT:undname.obj
 0001:00065b27       ?getScopedName@UnDecorator@@CA?AVDName@@XZ 00466b27 f   LIBCMT:undname.obj
 0001:00065c0b       ?getECSUName@UnDecorator@@CA?AVDName@@XZ 00466c0b f i LIBCMT:undname.obj
 0001:00065c1a       ?getECSUDataType@UnDecorator@@CA?AVDName@@XZ 00466c1a f   LIBCMT:undname.obj
 0001:00065d1a       ?getSymbolName@UnDecorator@@CA?AVDName@@XZ 00466d1a f i LIBCMT:undname.obj
 0001:00065d60       ?getBasedType@UnDecorator@@CA?AVDName@@XZ 00466d60 f   LIBCMT:undname.obj
 0001:00065df2       ?composeDeclaration@UnDecorator@@CA?AVDName@@ABV2@@Z 00466df2 f i LIBCMT:undname.obj
 0001:00066934       ?getDecoratedName@UnDecorator@@CA?AVDName@@XZ 00467934 f   LIBCMT:undname.obj
 0001:00066b45       ?getScope@UnDecorator@@CA?AVDName@@XZ 00467b45 f   LIBCMT:undname.obj
 0001:00066dd0       ?getFunctionIndirectType@UnDecorator@@CA?AVDName@@ABV2@@Z 00467dd0 f   LIBCMT:undname.obj
 0001:00067111       ?getDataIndirectType@UnDecorator@@CA?AVDName@@ABV2@D0H@Z 00468111 f   LIBCMT:undname.obj
 0001:000675f5       ??BUnDecorator@@QAEPADXZ   004685f5 f i LIBCMT:undname.obj
 0001:00067741       ?getPtrRefType@UnDecorator@@CA?AVDName@@ABV2@0D@Z 00468741 f   LIBCMT:undname.obj
 0001:00067857       ?getPointerType@UnDecorator@@CA?AVDName@@ABV2@0@Z 00468857 f i LIBCMT:undname.obj
 0001:00067872       ?getPointerTypeArray@UnDecorator@@CA?AVDName@@ABV2@0@Z 00468872 f i LIBCMT:undname.obj
 0001:0006788d       ?getReferenceType@UnDecorator@@CA?AVDName@@ABV2@0@Z 0046888d f i LIBCMT:undname.obj
 0001:000678a8       ___unDName                 004688a8 f   LIBCMT:undname.obj
 0001:0006794b       ___unDNameEx               0046894b f   LIBCMT:undname.obj
 0001:000679ee       ?getBasicDataType@UnDecorator@@CA?AVDName@@ABV2@@Z 004689ee f   LIBCMT:undname.obj
 0001:00067d75       ?getPrimaryDataType@UnDecorator@@CA?AVDName@@ABV2@@Z 00468d75 f   LIBCMT:undname.obj
 0001:00067eb3       ?getDataType@UnDecorator@@CA?AVDName@@PAV2@@Z 00468eb3 f   LIBCMT:undname.obj
 0001:00067f64       ?getExternalDataType@UnDecorator@@CA?AVDName@@ABV2@@Z 00468f64 f i LIBCMT:undname.obj
 0001:00067fc8       ___crtMessageBoxA          00468fc8 f   LIBCMT:crtmbox.obj
 0001:00068185       _strcat_s                  00469185 f   LIBCMT:strcat_s.obj
 0001:000681f6       __set_error_mode           004691f6 f   LIBCMT:errmode.obj
 0001:0006823c       ___set_app_type            0046923c f   LIBCMT:errmode.obj
 0001:00068246       ___get_app_type            00469246 f   LIBCMT:errmode.obj
 0001:00068387       ___crtGetLocaleInfoW       00469387 f   LIBCMT:w_loc.obj
 0001:000684ff       ___crtGetLocaleInfoA       004694ff f   LIBCMT:a_loc.obj
 0001:0006853a       __validdrive               0046953a f   LIBCMT:getcwd.obj
 0001:00068571       __getdcwd_nolock           00469571 f   LIBCMT:getcwd.obj
 0001:000686a6       _getcwd                    004696a6 f   LIBCMT:getcwd.obj
 0001:000686a6       __getcwd                   004696a6 f   LIBCMT:getcwd.obj
 0001:000686ef       __getdcwd                  004696ef f   LIBCMT:getcwd.obj
 0001:00068739       __mbsicmp_l                00469739 f   LIBCMT:mbsicmp.obj
 0001:00068953       __mbsicmp                  00469953 f   LIBCMT:mbsicmp.obj
 0001:00068966       __mbsrchr_l                00469966 f   LIBCMT:mbsrchr.obj
 0001:00068a26       __mbsrchr                  00469a26 f   LIBCMT:mbsrchr.obj
 0001:00068a39       __toupper                  00469a39 f   LIBCMT:toupper.obj
 0001:00068a41       __toupper_l                00469a41 f   LIBCMT:toupper.obj
 0001:00068b59       _toupper                   00469b59 f   LIBCMT:toupper.obj
 0001:00068f3c       ___crtLCMapStringA         00469f3c f   LIBCMT:a_map.obj
 0001:00068f80       _strpbrk                   00469f80 f   LIBCMT:strpbrk.obj
 0001:00069010       __get_sse2_info            0046a010 f   LIBCMT:cpu_disp.obj
 0001:00069070       ___sse2_available_init     0046a070 f   LIBCMT:cpu_disp.obj
 0001:0006907d       __getbuf                   0046a07d f   LIBCMT:_getbuf.obj
 0001:000690c1       __isatty                   0046a0c1 f   LIBCMT:isatty.obj
 0001:0006911f       __wctomb_s_l               0046a11f f   LIBCMT:wctomb.obj
 0001:0006927e       _wctomb_s                  0046a27e f   LIBCMT:wctomb.obj
 0001:00069299       __wctomb_l                 0046a299 f   LIBCMT:wctomb.obj
 0001:000692e8       _wctomb                    0046a2e8 f   LIBCMT:wctomb.obj
 0001:00069318       __isleadbyte_l             0046a318 f i LIBCMT:_wctype.obj
 0001:0006934e       _isleadbyte                0046a34e f i LIBCMT:_wctype.obj
 0001:0006935c       __iswalpha_l               0046a35c f i LIBCMT:_wctype.obj
 0001:00069372       _iswalpha                  0046a372 f i LIBCMT:_wctype.obj
 0001:00069383       __iswupper_l               0046a383 f i LIBCMT:_wctype.obj
 0001:00069396       _iswupper                  0046a396 f i LIBCMT:_wctype.obj
 0001:000693a4       __iswlower_l               0046a3a4 f i LIBCMT:_wctype.obj
 0001:000693b7       _iswlower                  0046a3b7 f i LIBCMT:_wctype.obj
 0001:000693c5       __iswdigit_l               0046a3c5 f i LIBCMT:_wctype.obj
 0001:000693d8       _iswdigit                  0046a3d8 f i LIBCMT:_wctype.obj
 0001:000693e6       __iswxdigit_l              0046a3e6 f i LIBCMT:_wctype.obj
 0001:000693fc       _iswxdigit                 0046a3fc f i LIBCMT:_wctype.obj
 0001:0006940d       __iswspace_l               0046a40d f i LIBCMT:_wctype.obj
 0001:00069420       _iswspace                  0046a420 f i LIBCMT:_wctype.obj
 0001:0006942e       __iswpunct_l               0046a42e f i LIBCMT:_wctype.obj
 0001:00069441       _iswpunct                  0046a441 f i LIBCMT:_wctype.obj
 0001:0006944f       __iswalnum_l               0046a44f f i LIBCMT:_wctype.obj
 0001:00069465       _iswalnum                  0046a465 f i LIBCMT:_wctype.obj
 0001:00069476       __iswprint_l               0046a476 f i LIBCMT:_wctype.obj
 0001:0006948c       _iswprint                  0046a48c f i LIBCMT:_wctype.obj
 0001:0006949d       __iswgraph_l               0046a49d f i LIBCMT:_wctype.obj
 0001:000694b3       _iswgraph                  0046a4b3 f i LIBCMT:_wctype.obj
 0001:000694c4       __iswcntrl_l               0046a4c4 f i LIBCMT:_wctype.obj
 0001:000694d7       _iswcntrl                  0046a4d7 f i LIBCMT:_wctype.obj
 0001:000694e5       _iswascii                  0046a4e5 f i LIBCMT:_wctype.obj
 0001:000694f1       __iswcsym_l                0046a4f1 f i LIBCMT:_wctype.obj
 0001:00069517       ___iswcsym                 0046a517 f i LIBCMT:_wctype.obj
 0001:00069538       __iswcsymf_l               0046a538 f i LIBCMT:_wctype.obj
 0001:0006955e       ___iswcsymf                0046a55e f i LIBCMT:_wctype.obj
 0001:0006957f       __ungetc_nolock            0046a57f f   LIBCMT:ungetc.obj
 0001:0006969d       _ungetc                    0046a69d f   LIBCMT:ungetc.obj
 0001:0006970f       __mbtowc_l                 0046a70f f   LIBCMT:mbtowc.obj
 0001:00069822       _mbtowc                    0046a822 f   LIBCMT:mbtowc.obj
 0001:00069839       __putwch_nolock            0046a839 f   LIBCMT:putwch.obj
 0001:000698fb       __cputws                   0046a8fb f   LIBCMT:putwch.obj
 0001:00069996       __putwch                   0046a996 f   LIBCMT:putwch.obj
 0001:000699dc       __matherr                  0046a9dc f   LIBCMT:matherr.obj
 0001:000699df       __frnd                     0046a9df f   LIBCMT:frnd.obj
 0001:00069d93       ___crtCompareStringA       0046ad93 f   LIBCMT:a_cmp.obj
 0001:00069dd3       __strnicoll_l              0046add3 f   LIBCMT:strnicol.obj
 0001:00069ecb       __strnicoll                0046aecb f   LIBCMT:strnicol.obj
 0001:00069f9c       ___crtsetenv               0046af9c f   LIBCMT:setenv.obj
 0001:0006a3a0       ___crtGetStringTypeA       0046b3a0 f   LIBCMT:a_str.obj
 0001:0006a3e0       ___pwctype_func            0046b3e0 f   LIBCMT:ctype.obj
 0001:0006a3e6       ___pctype_func             0046b3e6 f   LIBCMT:ctype.obj
 0001:0006a828       ___free_lc_time            0046b828 f   LIBCMT:inittime.obj
 0001:0006a9b8       ___init_time               0046b9b8 f   LIBCMT:inittime.obj
 0001:0006aa5e       ___free_lconv_num          0046ba5e f   LIBCMT:initnum.obj
 0001:0006aa9e       ___init_numeric            0046ba9e f   LIBCMT:initnum.obj
 0001:0006ac99       ___free_lconv_mon          0046bc99 f   LIBCMT:initmon.obj
 0001:0006ad22       ___init_monetary           0046bd22 f   LIBCMT:initmon.obj
 0001:0006afe6       ___init_collate            0046bfe6 f   LIBCMT:initcoll.obj
 0001:0006afe9       __Getdays_l                0046bfe9 f   LIBCMT:strftime.obj
 0001:0006b0e7       __Getdays                  0046c0e7 f   LIBCMT:strftime.obj
 0001:0006b0f0       __Getmonths_l              0046c0f0 f   LIBCMT:strftime.obj
 0001:0006b1ee       __Getmonths                0046c1ee f   LIBCMT:strftime.obj
 0001:0006b1f7       __Gettnames_l              0046c1f7 f   LIBCMT:strftime.obj
 0001:0006b54c       __Gettnames                0046c54c f   LIBCMT:strftime.obj
 0001:0006be67       __Strftime_l               0046ce67 f   LIBCMT:strftime.obj
 0001:0006c016       __strftime_l               0046d016 f   LIBCMT:strftime.obj
 0001:0006c034       _strftime                  0046d034 f   LIBCMT:strftime.obj
 0001:0006c051       __Strftime                 0046d051 f   LIBCMT:strftime.obj
 0001:0006c06f       _localeconv                0046d06f f   LIBCMT:lconv.obj
 0001:0006c0a0       _strcspn                   0046d0a0 f   LIBCMT:strcspn.obj
 0001:0006c6a0       ___get_qualified_locale    0046d6a0 f   LIBCMT:getqloc.obj
 0001:0006ddf5       _memcmp                    0046edf5 f   LIBCMT:memcmp.obj
 0001:0006f4c6       __ismbbkalnum_l            004704c6 f   LIBCMT:ismbbyte.obj
 0001:0006f4db       __ismbbkalnum              004704db f   LIBCMT:ismbbyte.obj
 0001:0006f4ee       __ismbbkprint_l            004704ee f   LIBCMT:ismbbyte.obj
 0001:0006f503       __ismbbkprint              00470503 f   LIBCMT:ismbbyte.obj
 0001:0006f516       __ismbbkpunct_l            00470516 f   LIBCMT:ismbbyte.obj
 0001:0006f52b       __ismbbkpunct              0047052b f   LIBCMT:ismbbyte.obj
 0001:0006f53e       __ismbbalnum_l             0047053e f   LIBCMT:ismbbyte.obj
 0001:0006f556       __ismbbalnum               00470556 f   LIBCMT:ismbbyte.obj
 0001:0006f56c       __ismbbalpha_l             0047056c f   LIBCMT:ismbbyte.obj
 0001:0006f584       __ismbbalpha               00470584 f   LIBCMT:ismbbyte.obj
 0001:0006f59a       __ismbbgraph_l             0047059a f   LIBCMT:ismbbyte.obj
 0001:0006f5b2       __ismbbgraph               004705b2 f   LIBCMT:ismbbyte.obj
 0001:0006f5c8       __ismbbprint_l             004705c8 f   LIBCMT:ismbbyte.obj
 0001:0006f5e0       __ismbbprint               004705e0 f   LIBCMT:ismbbyte.obj
 0001:0006f5f6       __ismbbpunct_l             004705f6 f   LIBCMT:ismbbyte.obj
 0001:0006f60b       __ismbbpunct               0047060b f   LIBCMT:ismbbyte.obj
 0001:0006f61e       __ismbblead_l              0047061e f   LIBCMT:ismbbyte.obj
 0001:0006f633       __ismbblead                00470633 f   LIBCMT:ismbbyte.obj
 0001:0006f646       __ismbbtrail_l             00470646 f   LIBCMT:ismbbyte.obj
 0001:0006f65b       __ismbbtrail               0047065b f   LIBCMT:ismbbyte.obj
 0001:0006f66e       __ismbbkana_l              0047066e f   LIBCMT:ismbbyte.obj
 0001:0006f6c1       __ismbbkana                004706c1 f   LIBCMT:ismbbyte.obj
 0001:0006fe28       __open                     00470e28 f   LIBCMT:open.obj
 0001:0006fede       __sopen_helper             00470ede f   LIBCMT:open.obj
 0001:0006ffaa       __sopen                    00470faa f   LIBCMT:open.obj
 0001:0006ffda       __sopen_s                  00470fda f   LIBCMT:open.obj
 0001:0006fff8       __mbsnbcmp_l               00470ff8 f   LIBCMT:mbsnbcmp.obj
 0001:00070161       __mbsnbcmp                 00471161 f   LIBCMT:mbsnbcmp.obj
 0001:00070178       __global_unwind2           00471178 f   LIBCMT:exsup.obj
 0001:000701dd       __local_unwind2            004711dd f   LIBCMT:exsup.obj
 0001:00070261       __abnormal_termination     00471261 f   LIBCMT:exsup.obj
 0001:00070284       __NLG_Notify1              00471284 f   LIBCMT:exsup.obj
 0001:0007028d       __NLG_Notify               0047128d f   LIBCMT:exsup.obj
 0001:000702a4       __NLG_Dispatch2            004712a4     LIBCMT:exsup.obj
 0001:000702a4       __NLG_Dispatch             004712a4     LIBCMT:exsup.obj
 0001:000702ac       __NLG_Call                 004712ac f   LIBCMT:exsup.obj
 0001:000702ae       __NLG_Return2              004712ae     LIBCMT:exsup.obj
 0001:000702af       ___addl                    004712af f i LIBCMT:intrncvt.obj
 0001:000702d0       __ZeroTail                 004712d0 f i LIBCMT:intrncvt.obj
 0001:00070315       __IncMan                   00471315 f i LIBCMT:intrncvt.obj
 0001:0007037f       __RoundMan                 0047137f f i LIBCMT:intrncvt.obj
 0001:0007046d       __CopyMan                  0047146d f i LIBCMT:intrncvt.obj
 0001:00070488       __FillZeroMan              00471488 f i LIBCMT:intrncvt.obj
 0001:00070494       __IsZeroMan                00471494 f i LIBCMT:intrncvt.obj
 0001:000704ad       __ShrMan                   004714ad f i LIBCMT:intrncvt.obj
 0001:00070545       __ld12cvt                  00471545 f i LIBCMT:intrncvt.obj
 0001:00070a6e       __ld12tod                  00471a6e f   LIBCMT:intrncvt.obj
 0001:00070fb0       __ld12tof                  00471fb0 f   LIBCMT:intrncvt.obj
 0001:000714f2       __ld12told                 004724f2 f   LIBCMT:intrncvt.obj
 0001:000715b4       ___shl_12                  004725b4 f i LIBCMT:strgtold.obj
 0001:000715e2       ___shr_12                  004725e2 f i LIBCMT:strgtold.obj
 0001:0007160f       ___ld12mul                 0047260f f i LIBCMT:strgtold.obj
 0001:00071883       ___multtenpow12            00472883 f i LIBCMT:strgtold.obj
 0001:00071b8c       ___strgtold12_l            00472b8c f   LIBCMT:strgtold.obj
 0001:0007224c       ___STRINGTOLD_L            0047324c f   LIBCMT:strgtold.obj
 0001:000722a5       ___add_12                  004732a5 f i LIBCMT:x10fout.obj
 0001:00072312       _$I10_OUTPUT               00473312 f   LIBCMT:x10fout.obj
 0001:00072bd8       __set_controlfp            00473bd8 f   LIBCMT:ieee87.obj
 0001:00072f2e       __statusfp                 00473f2e f   LIBCMT:ieee87.obj
 0001:00072fbe       __fpreset                  00473fbe f   LIBCMT:ieee87.obj
 0001:000731ee       __statusfp2                004741ee f   LIBCMT:ieee87.obj
 0001:00073246       __clearfp                  00474246 f   LIBCMT:ieee87.obj
 0001:0007331d       ___control87_2             0047431d f   LIBCMT:ieee87.obj
 0001:00073627       __control87                00474627 f i LIBCMT:ieee87.obj
 0001:0007392a       __controlfp                0047492a f   LIBCMT:ieee87.obj
 0001:00073c33       ___ascii_stricmp           00474c33 f   LIBCMT:stricmp.obj
 0001:00073c68       __stricmp_l                00474c68 f   LIBCMT:stricmp.obj
 0001:00073d3b       __stricmp                  00474d3b f   LIBCMT:stricmp.obj
 0001:00073d3b       _stricmp                   00474d3b f   LIBCMT:stricmp.obj
 0001:00073d8b       ___ansicp                  00474d8b f   LIBCMT:convrtcp.obj
 0001:00073dd2       ___convertcp               00474dd2 f   LIBCMT:convrtcp.obj
 0001:00073f84       __iswctype_l               00474f84 f   LIBCMT:iswctype.obj
 0001:00074006       _iswctype                  00475006 f   LIBCMT:iswctype.obj
 0001:00074074       _is_wctype                 00475074 f   LIBCMT:iswctype.obj
 0001:00074079       _wcslen                    00475079 f   LIBCMT:wcslen.obj
 0001:0007408f       __strnicmp_l               0047508f f   LIBCMT:strnicmp.obj
 0001:0007417f       __strnicmp                 0047517f f   LIBCMT:strnicmp.obj
 0001:000741db       __strdup                   004751db f   LIBCMT:strdup.obj
 0001:000741db       _strdup                    004751db f   LIBCMT:strdup.obj
 0001:0007422b       __mbschr_l                 0047522b f   LIBCMT:mbschr.obj
 0001:000742e5       __mbschr                   004752e5 f   LIBCMT:mbschr.obj
 0001:000743d3       __itoa_s                   004753d3 f   LIBCMT:xtoas.obj
 0001:000743fb       __ltoa_s                   004753fb f   LIBCMT:xtoas.obj
 0001:00074420       __ultoa_s                  00475420 f   LIBCMT:xtoas.obj
 0001:0007452e       __i64toa_s                 0047552e f   LIBCMT:xtoas.obj
 0001:00074561       __ui64toa_s                00475561 f   LIBCMT:xtoas.obj
 0001:0007457e       __chsize_nolock            0047557e f   LIBCMT:chsize.obj
 0001:00074732       __chsize_s                 00475732 f   LIBCMT:chsize.obj
 0001:0007481f       __chsize                   0047581f f   LIBCMT:chsize.obj
 0001:00074837       __setmode_nolock           00475837 f   LIBCMT:setmode.obj
 0001:000748f3       __set_fmode                004758f3 f   LIBCMT:setmode.obj
 0001:00074939       __get_fmode                00475939 f   LIBCMT:setmode.obj
 0001:0007496d       __setmode                  0047596d f   LIBCMT:setmode.obj
 0001:00074a64       ___mtold12                 00475a64 f   LIBCMT:mantold.obj
 0001:00074e54       ___crtGetStringTypeW       00475e54 f   LIBCMT:w_str.obj
 0001:00074ea0       ___ascii_strnicmp          00475ea0 f   LIBCMT:_strnicm.obj
 0001:00074f02       _GetLocaleInfoA@16         00475f02 f   kernel32:KERNEL32.dll
 0001:00074f08       _CreateEventA@16           00475f08 f   kernel32:KERNEL32.dll
 0001:00074f0e       _SetEvent@4                00475f0e f   kernel32:KERNEL32.dll
 0001:00074f14       _ResetEvent@4              00475f14 f   kernel32:KERNEL32.dll
 0001:00074f1a       _WaitForMultipleObjects@16 00475f1a f   kernel32:KERNEL32.dll
 0001:00074f20       _GetFileAttributesExA@12   00475f20 f   kernel32:KERNEL32.dll
 0001:00074f26       _GetSystemDirectoryA@8     00475f26 f   kernel32:KERNEL32.dll
 0001:00074f2c       _GetWindowsDirectoryA@8    00475f2c f   kernel32:KERNEL32.dll
 0001:00074f32       _InterlockedIncrement@4    00475f32 f   kernel32:KERNEL32.dll
 0001:00074f38       _DeleteFileA@4             00475f38 f   kernel32:KERNEL32.dll
 0001:00074f3e       _MoveFileA@8               00475f3e f   kernel32:KERNEL32.dll
 0001:00074f44       _GetTickCount@0            00475f44 f   kernel32:KERNEL32.dll
 0001:00074f4a       _QueryPerformanceCounter@4 00475f4a f   kernel32:KERNEL32.dll
 0001:00074f50       _QueryPerformanceFrequency@4 00475f50 f   kernel32:KERNEL32.dll
 0001:00074f56       _TryEnterCriticalSection@4 00475f56 f   kernel32:KERNEL32.dll
 0001:00074f5c       _InterlockedCompareExchange@12 00475f5c f   kernel32:KERNEL32.dll
 0001:00074f62       _SetThreadPriority@8       00475f62 f   kernel32:KERNEL32.dll
 0001:00074f68       _SetEndOfFile@4            00475f68 f   kernel32:KERNEL32.dll
 0001:00074f6e       _SetFilePointer@16         00475f6e f   kernel32:KERNEL32.dll
 0001:00074f74       _GetFileAttributesA@4      00475f74 f   kernel32:KERNEL32.dll
 0001:00074f7a       _GetOverlappedResult@16    00475f7a f   kernel32:KERNEL32.dll
 0001:00074f80       _CancelIo@4                00475f80 f   kernel32:KERNEL32.dll
 0001:00074f86       _WriteFile@20              00475f86 f   kernel32:KERNEL32.dll
 0001:00074f8c       _DisconnectNamedPipe@4     00475f8c f   kernel32:KERNEL32.dll
 0001:00074f92       _UnmapViewOfFile@4         00475f92 f   kernel32:KERNEL32.dll
 0001:00074f98       _FindClose@4               00475f98 f   kernel32:KERNEL32.dll
 0001:00074f9e       _FindNextFileA@8           00475f9e f   kernel32:KERNEL32.dll
 0001:00074fa4       _FindFirstFileA@8          00475fa4 f   kernel32:KERNEL32.dll
 0001:00074faa       _FileTimeToSystemTime@8    00475faa f   kernel32:KERNEL32.dll
 0001:00074fb0       _FileTimeToLocalFileTime@8 00475fb0 f   kernel32:KERNEL32.dll
 0001:00074fb6       _GetDriveTypeA@4           00475fb6 f   kernel32:KERNEL32.dll
 0001:00074fbc       _ExitProcess@4             00475fbc f   kernel32:KERNEL32.dll
 0001:00074fc2       _SetConsoleCtrlHandler@8   00475fc2 f   kernel32:KERNEL32.dll
 0001:00074fc8       _ReadConsoleInputA@16      00475fc8 f   kernel32:KERNEL32.dll
 0001:00074fce       _SetConsoleMode@8          00475fce f   kernel32:KERNEL32.dll
 0001:00074fd4       _GetConsoleMode@8          00475fd4 f   kernel32:KERNEL32.dll
 0001:00074fda       _PeekConsoleInputA@16      00475fda f   kernel32:KERNEL32.dll
 0001:00074fe0       _GetNumberOfConsoleInputEvents@8 00475fe0 f   kernel32:KERNEL32.dll
 0001:00074fe6       _GetCommandLineA@0         00475fe6 f   kernel32:KERNEL32.dll
 0001:00074fec       _HeapFree@12               00475fec f   kernel32:KERNEL32.dll
 0001:00074ff2       _GetVersionExA@4           00475ff2 f   kernel32:KERNEL32.dll
 0001:00074ff8       _HeapAlloc@12              00475ff8 f   kernel32:KERNEL32.dll
 0001:00074ffe       _GetProcessHeap@0          00475ffe f   kernel32:KERNEL32.dll
 0001:00075004       _HeapReAlloc@16            00476004 f   kernel32:KERNEL32.dll
 0001:0007500a       _GetFileInformationByHandle@8 0047600a f   kernel32:KERNEL32.dll
 0001:00075010       _PeekNamedPipe@24          00476010 f   kernel32:KERNEL32.dll
 0001:00075016       _GetFileType@4             00476016 f   kernel32:KERNEL32.dll
 0001:0007501c       _SetStdHandle@8            0047601c f   kernel32:KERNEL32.dll
 0001:00075022       _WideCharToMultiByte@32    00476022 f   kernel32:KERNEL32.dll
 0001:00075028       _GetTimeZoneInformation@4  00476028 f   kernel32:KERNEL32.dll
 0001:0007502e       _UnhandledExceptionFilter@4 0047602e f   kernel32:KERNEL32.dll
 0001:00075034       _SetUnhandledExceptionFilter@4 00476034 f   kernel32:KERNEL32.dll
 0001:0007503a       _IsDebuggerPresent@0       0047603a f   kernel32:KERNEL32.dll
 0001:00075040       _ExitThread@4              00476040 f   kernel32:KERNEL32.dll
 0001:00075046       _ResumeThread@4            00476046 f   kernel32:KERNEL32.dll
 0001:0007504c       _CreateThread@24           0047604c f   kernel32:KERNEL32.dll
 0001:00075052       _FlushFileBuffers@4        00476052 f   kernel32:KERNEL32.dll
 0001:00075058       _GetStdHandle@4            00476058 f   kernel32:KERNEL32.dll
 0001:0007505e       _TlsGetValue@4             0047605e f   kernel32:KERNEL32.dll
 0001:00075064       _TlsAlloc@0                00476064 f   kernel32:KERNEL32.dll
 0001:0007506a       _TlsSetValue@8             0047606a f   kernel32:KERNEL32.dll
 0001:00075070       _TlsFree@4                 00476070 f   kernel32:KERNEL32.dll
 0001:00075076       _InterlockedDecrement@4    00476076 f   kernel32:KERNEL32.dll
 0001:0007507c       _GetCurrentThread@0        0047607c f   kernel32:KERNEL32.dll
 0001:00075082       _GetCurrentDirectoryA@8    00476082 f   kernel32:KERNEL32.dll
 0001:00075088       _SetCurrentDirectoryA@4    00476088 f   kernel32:KERNEL32.dll
 0001:0007508e       _RaiseException@16         0047608e f   kernel32:KERNEL32.dll
 0001:00075094       _SetHandleCount@4          00476094 f   kernel32:KERNEL32.dll
 0001:0007509a       _GetStartupInfoA@4         0047609a f   kernel32:KERNEL32.dll
 0001:000750a0       _FatalAppExitA@8           004760a0 f   kernel32:KERNEL32.dll
 0001:000750a6       _GetConsoleCP@0            004760a6 f   kernel32:KERNEL32.dll
 0001:000750ac       _FreeLibrary@4             004760ac f   kernel32:KERNEL32.dll
 0001:000750b2       _InterlockedExchange@8     004760b2 f   kernel32:KERNEL32.dll
 0001:000750b8       _LoadLibraryA@4            004760b8 f   kernel32:KERNEL32.dll
 0001:000750be       _GetCPInfo@8               004760be f   kernel32:KERNEL32.dll
 0001:000750c4       _GetACP@0                  004760c4 f   kernel32:KERNEL32.dll
 0001:000750ca       _GetOEMCP@0                004760ca f   kernel32:KERNEL32.dll
 0001:000750d0       _IsValidCodePage@4         004760d0 f   kernel32:KERNEL32.dll
 0001:000750d6       _FreeEnvironmentStringsA@4 004760d6 f   kernel32:KERNEL32.dll
 0001:000750dc       _GetEnvironmentStrings@0   004760dc f   kernel32:KERNEL32.dll
 0001:000750e2       _FreeEnvironmentStringsW@4 004760e2 f   kernel32:KERNEL32.dll
 0001:000750e8       _GetEnvironmentStringsW@0  004760e8 f   kernel32:KERNEL32.dll
 0001:000750ee       _HeapDestroy@4             004760ee f   kernel32:KERNEL32.dll
 0001:000750f4       _HeapCreate@12             004760f4 f   kernel32:KERNEL32.dll
 0001:000750fa       _VirtualFree@12            004760fa f   kernel32:KERNEL32.dll
 0001:00075100       _GetCurrentProcessId@0     00476100 f   kernel32:KERNEL32.dll
 0001:00075106       _VirtualAlloc@16           00476106 f   kernel32:KERNEL32.dll
 0001:0007510c       _HeapSize@12               0047610c f   kernel32:KERNEL32.dll
 0001:00075112       _RtlUnwind@16              00476112 f   kernel32:KERNEL32.dll
 0001:00075118       _MultiByteToWideChar@24    00476118 f   kernel32:KERNEL32.dll
 0001:0007511e       _GetLocaleInfoW@16         0047611e f   kernel32:KERNEL32.dll
 0001:00075124       _LCMapStringA@24           00476124 f   kernel32:KERNEL32.dll
 0001:0007512a       _LCMapStringW@24           0047612a f   kernel32:KERNEL32.dll
 0001:00075130       _WriteConsoleA@20          00476130 f   kernel32:KERNEL32.dll
 0001:00075136       _GetConsoleOutputCP@0      00476136 f   kernel32:KERNEL32.dll
 0001:0007513c       _WriteConsoleW@20          0047613c f   kernel32:KERNEL32.dll
 0001:00075142       _CompareStringA@24         00476142 f   kernel32:KERNEL32.dll
 0001:00075148       _CompareStringW@24         00476148 f   kernel32:KERNEL32.dll
 0001:0007514e       _SetEnvironmentVariableA@8 0047614e f   kernel32:KERNEL32.dll
 0001:00075154       _GetStringTypeA@20         00476154 f   kernel32:KERNEL32.dll
 0001:0007515a       _GetStringTypeW@16         0047615a f   kernel32:KERNEL32.dll
 0001:00075160       _GetTimeFormatA@24         00476160 f   kernel32:KERNEL32.dll
 0001:00075166       _GetDateFormatA@24         00476166 f   kernel32:KERNEL32.dll
 0001:0007516c       _GetUserDefaultLCID@0      0047616c f   kernel32:KERNEL32.dll
 0001:00075172       _EnumSystemLocalesA@8      00476172 f   kernel32:KERNEL32.dll
 0001:00075178       _IsValidLocale@8           00476178 f   kernel32:KERNEL32.dll
 0001:0007517e       _SetTimer@16               0047617e f   user32:USER32.dll
 0001:00075184       _KillTimer@8               00476184 f   user32:USER32.dll
 0001:0007518a       _PeekMessageA@20           0047618a f   user32:USER32.dll
 0001:00075190       _RegCloseKey@4             00476190 f   advapi32:ADVAPI32.dll
 0001:00075196       _RegEnumValueA@32          00476196 f   advapi32:ADVAPI32.dll
 0001:0007519c       _RegOpenKeyExA@20          0047619c f   advapi32:ADVAPI32.dll
 0001:000751b0       ??$rotlFixed@I@TaoCrypt@@YAIII@Z 004761b0 f i taocrypt:md5.obj
 0001:000751c0       ?Init@MD5@TaoCrypt@@UAEXXZ 004761c0 f   taocrypt:md5.obj
 0001:000751f0       ??0MD5@TaoCrypt@@QAE@ABV01@@Z 004761f0 f   taocrypt:md5.obj
 0001:00075250       ?AsmTransform@MD5@TaoCrypt@@AAEXPBEI@Z 00476250 f   taocrypt:md5.obj
 0001:000758e0       ?Transform@MD5@TaoCrypt@@EAEXXZ 004768e0 f   taocrypt:md5.obj
 0001:00075ee0       ?Swap@MD5@TaoCrypt@@QAEXAAV12@@Z 00476ee0 f   taocrypt:md5.obj
 0001:00075f40       ?Update@MD5@TaoCrypt@@UAEXPBEI@Z 00476f40 f   taocrypt:md5.obj
 0001:00076010       ??4MD5@TaoCrypt@@QAEAAV01@ABV01@@Z 00477010 f   taocrypt:md5.obj
 0001:00076040       ??$rotrFixed@I@TaoCrypt@@YAIII@Z 00477040 f i taocrypt:hash.obj
 0001:00076050       ?ByteReverse@TaoCrypt@@YAII@Z 00477050 f i taocrypt:hash.obj
 0001:00076070       ?ByteReverse@TaoCrypt@@YA_K_K@Z 00477070 f i taocrypt:hash.obj
 0001:000760b0       ?GetBitCountLo@HASHwithTransform@TaoCrypt@@QBEIXZ 004770b0 f i taocrypt:hash.obj
 0001:000760c0       ?GetBitCountHi@HASHwithTransform@TaoCrypt@@QBEIXZ 004770c0 f i taocrypt:hash.obj
 0001:000760d0       ?GetBitCountLo@HASH64withTransform@TaoCrypt@@QBEIXZ 004770d0 f i taocrypt:hash.obj
 0001:000760e0       ?GetBitCountHi@HASH64withTransform@TaoCrypt@@QBEIXZ 004770e0 f i taocrypt:hash.obj
 0001:000760f0       ??0HASH@TaoCrypt@@QAE@XZ   004770f0 f i taocrypt:hash.obj
 0001:00076100       ??0HASH64withTransform@TaoCrypt@@QAE@II@Z 00477100 f   taocrypt:hash.obj
 0001:00076110       ??1HASH64withTransform@TaoCrypt@@UAE@XZ 00477110 f i taocrypt:hash.obj
 0001:00076120       ??_GHASH64withTransform@TaoCrypt@@UAEPAXI@Z 00477120 f i taocrypt:hash.obj
 0001:00076120       ??_EHASH64withTransform@TaoCrypt@@UAEPAXI@Z 00477120 f i taocrypt:hash.obj
 0001:00076140       ?ToEnum@?$EnumToType@W4ByteOrder@TaoCrypt@@$0A@@TaoCrypt@@SA?AW4ByteOrder@2@XZ 00477140 f i taocrypt:hash.obj
 0001:00076150       ??$ByteReverse@I@TaoCrypt@@YAXPAIPBII@Z 00477150 f i taocrypt:hash.obj
 0001:00076190       ??$RightShift@I@?$SafeShifter@$00@TaoCrypt@@SAIII@Z 00477190 f i taocrypt:hash.obj
 0001:000761a0       ??$ByteReverse@_K@TaoCrypt@@YAXPA_KPB_KI@Z 004771a0 f i taocrypt:hash.obj
 0001:00076210       ?GetHostByteOrder@TaoCrypt@@YA?AW4ByteOrder@1@XZ 00477210 f i taocrypt:hash.obj
 0001:00076220       ?HostByteOrderIs@TaoCrypt@@YA_NW4ByteOrder@1@@Z 00477220 f i taocrypt:hash.obj
 0001:00076230       ?ByteReverse@TaoCrypt@@YAXPAEPBEI@Z 00477230 f i taocrypt:hash.obj
 0001:00076240       ??0HASHwithTransform@TaoCrypt@@QAE@II@Z 00477240 f   taocrypt:hash.obj
 0001:00076250       ??_GHASHwithTransform@TaoCrypt@@UAEPAXI@Z 00477250 f i taocrypt:hash.obj
 0001:00076250       ??_EHASHwithTransform@TaoCrypt@@UAEPAXI@Z 00477250 f i taocrypt:hash.obj
 0001:00076270       ??$SafeRightShift@$0CA@I@TaoCrypt@@YAII@Z 00477270 f i taocrypt:hash.obj
 0001:00076280       ??$ByteReverseIf@E@TaoCrypt@@YAXPAEPBEIW4ByteOrder@0@@Z 00477280 f i taocrypt:hash.obj
 0001:000762c0       ??$ByteReverseIf@I@TaoCrypt@@YAXPAIPBIIW4ByteOrder@0@@Z 004772c0 f i taocrypt:hash.obj
 0001:00076300       ??$ByteReverseIf@_K@TaoCrypt@@YAXPA_KPB_KIW4ByteOrder@0@@Z 00477300 f i taocrypt:hash.obj
 0001:00076340       ?AddLength@HASHwithTransform@TaoCrypt@@IAEXI@Z 00477340 f   taocrypt:hash.obj
 0001:00076360       ?Update@HASHwithTransform@TaoCrypt@@UAEXPBEI@Z 00477360 f   taocrypt:hash.obj
 0001:00076420       ?Final@HASHwithTransform@TaoCrypt@@UAEXPAE@Z 00477420 f   taocrypt:hash.obj
 0001:00076570       ?AddLength@HASH64withTransform@TaoCrypt@@IAEXI@Z 00477570 f   taocrypt:hash.obj
 0001:00076590       ?Update@HASH64withTransform@TaoCrypt@@UAEXPBEI@Z 00477590 f   taocrypt:hash.obj
 0001:00076640       ?Final@HASH64withTransform@TaoCrypt@@UAEXPAE@Z 00477640 f   taocrypt:hash.obj
 0001:000767c0       ?Init@MD4@TaoCrypt@@UAEXXZ 004777c0 f   taocrypt:md4.obj
 0001:000767f0       ??0MD4@TaoCrypt@@QAE@ABV01@@Z 004777f0 f   taocrypt:md4.obj
 0001:00076850       ?Transform@MD4@TaoCrypt@@EAEXXZ 00477850 f   taocrypt:md4.obj
 0001:00076c80       ?Swap@MD4@TaoCrypt@@QAEXAAV12@@Z 00477c80 f   taocrypt:md4.obj
 0001:00076ce0       ??4MD4@TaoCrypt@@QAEAAV01@ABV01@@Z 00477ce0 f   taocrypt:md4.obj
 0001:00076d10       ?SetError@Error@TaoCrypt@@QAEXW4ErrorNumber@2@@Z 00477d10 f i taocrypt:coding.obj
 0001:00076d20       ?SetError@Source@TaoCrypt@@QAEXW4ErrorNumber@2@@Z 00477d20 f i taocrypt:coding.obj
 0001:00076d30       ??A?$Block@EV?$AllocatorWithCleanup@E@TaoCrypt@@@TaoCrypt@@QAEAAEI@Z 00477d30 f i taocrypt:coding.obj
 0001:00076d40       ?next@Source@TaoCrypt@@QAEEXZ 00477d40 f i taocrypt:coding.obj
 0001:00076d50       ?resize@?$Block@EV?$AllocatorWithCleanup@E@TaoCrypt@@@TaoCrypt@@QAEXI@Z 00477d50 f i taocrypt:coding.obj
 0001:00076d80       ?Encode@HexEncoder@TaoCrypt@@AAEXXZ 00477d80 f   taocrypt:coding.obj
 0001:00076e00       ?Decode@HexDecoder@TaoCrypt@@AAEXXZ 00477e00 f   taocrypt:coding.obj
 0001:00076e90       ?Encode@Base64Encoder@TaoCrypt@@AAEXXZ 00477e90 f   taocrypt:coding.obj
 0001:000770a0       ?Decode@Base64Decoder@TaoCrypt@@AAEXXZ 004780a0 f   taocrypt:coding.obj
 0001:000772b0       ?BytesToWords@TaoCrypt@@YAII@Z 004782b0 f i taocrypt:integer.obj
 0001:000772c0       ?BitsToWords@TaoCrypt@@YAII@Z 004782c0 f i taocrypt:integer.obj
 0001:000772d0       ?CopyWords@TaoCrypt@@YAXPAIPBII@Z 004782d0 f i taocrypt:integer.obj
 0001:00077300       ?CountWords@TaoCrypt@@YAIPBII@Z 00478300 f i taocrypt:integer.obj
 0001:00077320       ?SetWords@TaoCrypt@@YAXPAIII@Z 00478320 f i taocrypt:integer.obj
 0001:00077340       ?ShiftWordsLeftByBits@TaoCrypt@@YAIPAIII@Z 00478340 f i taocrypt:integer.obj
 0001:00077390       ?ShiftWordsRightByBits@TaoCrypt@@YAIPAIII@Z 00478390 f i taocrypt:integer.obj
 0001:000773e0       ?ShiftWordsLeftByWords@TaoCrypt@@YAXPAIII@Z 004783e0 f i taocrypt:integer.obj
 0001:00077420       ?ShiftWordsRightByWords@TaoCrypt@@YAXPAIII@Z 00478420 f i taocrypt:integer.obj
 0001:00077470       ?IsNegative@Integer@TaoCrypt@@QBE_NXZ 00478470 f i taocrypt:integer.obj
 0001:00077480       ?NotNegative@Integer@TaoCrypt@@QBE_NXZ 00478480 f i taocrypt:integer.obj
 0001:00077490       ??1AbstractGroup@TaoCrypt@@UAE@XZ 00478490 f i taocrypt:integer.obj
 0001:000774a0       ??0AbstractGroup@TaoCrypt@@QAE@XZ 004784a0 f i taocrypt:integer.obj
 0001:000774b0       ??0MultiplicativeGroupT@AbstractRing@TaoCrypt@@QAE@XZ 004784b0 f i taocrypt:integer.obj
 0001:000774c0       ?InversionIsFast@AbstractGroup@TaoCrypt@@UBE_NXZ 004784c0 f i taocrypt:integer.obj
 0001:000774d0       ?GetRing@MultiplicativeGroupT@AbstractRing@TaoCrypt@@QBEABV23@XZ 004784d0 f i taocrypt:integer.obj
 0001:000774e0       ?Equal@MultiplicativeGroupT@AbstractRing@TaoCrypt@@UBE_NABVInteger@3@0@Z 004784e0 f i taocrypt:integer.obj
 0001:000774f0       ?Identity@MultiplicativeGroupT@AbstractRing@TaoCrypt@@UBEABVInteger@3@XZ 004784f0 f i taocrypt:integer.obj
 0001:00077500       ?Add@MultiplicativeGroupT@AbstractRing@TaoCrypt@@UBEABVInteger@3@ABV43@0@Z 00478500 f i taocrypt:integer.obj
 0001:00077510       ?Inverse@MultiplicativeGroupT@AbstractRing@TaoCrypt@@UBEABVInteger@3@ABV43@@Z 00478510 f i taocrypt:integer.obj
 0001:00077520       ?Subtract@MultiplicativeGroupT@AbstractRing@TaoCrypt@@UBEABVInteger@3@ABV43@0@Z 00478520 f i taocrypt:integer.obj
 0001:00077530       ?Double@MultiplicativeGroupT@AbstractRing@TaoCrypt@@UBEABVInteger@3@ABV43@@Z 00478530 f i taocrypt:integer.obj
 0001:00077540       ?SimultaneousMultiply@MultiplicativeGroupT@AbstractRing@TaoCrypt@@UBEXPAVInteger@3@ABV43@PBV43@I@Z 00478540 f i taocrypt:integer.obj
 0001:00077550       ??1MultiplicativeGroupT@AbstractRing@TaoCrypt@@UAE@XZ 00478550 f i taocrypt:integer.obj
 0001:00077560       ??1AbstractRing@TaoCrypt@@UAE@XZ 00478560 f i taocrypt:integer.obj
 0001:00077570       ??_EMultiplicativeGroupT@AbstractRing@TaoCrypt@@UAEPAXI@Z 00478570 f i taocrypt:integer.obj
 0001:00077570       ??_GMultiplicativeGroupT@AbstractRing@TaoCrypt@@UAEPAXI@Z 00478570 f i taocrypt:integer.obj
 0001:00077590       ?SimultaneousExponentiate@MontgomeryRepresentation@TaoCrypt@@UBEXPAVInteger@2@ABV32@PBV32@I@Z 00478590 f i taocrypt:integer.obj
 0001:000775a0       ??0DWord@TaoCrypt@@QAE@XZ  004785a0 f i taocrypt:integer.obj
 0001:000775b0       ??0DWord@TaoCrypt@@QAE@I@Z 004785b0 f i taocrypt:integer.obj
 0001:000775d0       ??0DWord@TaoCrypt@@QAE@II@Z 004785d0 f i taocrypt:integer.obj
 0001:000775f0       ?Multiply@DWord@TaoCrypt@@SA?AV12@II@Z 004785f0 f i taocrypt:integer.obj
 0001:00077610       ??YDWord@TaoCrypt@@QAEAAV01@I@Z 00478610 f i taocrypt:integer.obj
 0001:00077620       ??HDWord@TaoCrypt@@QAE?AV01@I@Z 00478620 f i taocrypt:integer.obj
 0001:00077640       ??GDWord@TaoCrypt@@QAE?AV01@V01@@Z 00478640 f i taocrypt:integer.obj
 0001:00077660       ??GDWord@TaoCrypt@@QAE?AV01@I@Z 00478660 f i taocrypt:integer.obj
 0001:00077680       ??7DWord@TaoCrypt@@QBE_NXZ 00478680 f i taocrypt:integer.obj
 0001:00077690       ?GetLowHalf@DWord@TaoCrypt@@QBEIXZ 00478690 f i taocrypt:integer.obj
 0001:000776a0       ?GetHighHalf@DWord@TaoCrypt@@QBEIXZ 004786a0 f i taocrypt:integer.obj
 0001:000776b0       ?GetHighHalfAsBorrow@DWord@TaoCrypt@@QBEIXZ 004786b0 f i taocrypt:integer.obj
 0001:000776c0       ??KDWord@TaoCrypt@@QAEII@Z 004786c0 f i taocrypt:integer.obj
 0001:000776e0       ??LDWord@TaoCrypt@@QAEII@Z 004786e0 f i taocrypt:integer.obj
 0001:00077860       ?MultiplyRecursionLimit@Portable@TaoCrypt@@SAIXZ 00478860 f i taocrypt:integer.obj
 0001:00077870       ?MultiplyBottomRecursionLimit@Portable@TaoCrypt@@SAIXZ 00478870 f i taocrypt:integer.obj
 0001:00077880       ?Square8@Portable@TaoCrypt@@SAXPAIPBI@Z 00478880 f i taocrypt:integer.obj
 0001:00077890       ?SquareRecursionLimit@Portable@TaoCrypt@@SAIXZ 00478890 f i taocrypt:integer.obj
 0001:000778a0       ?Add@Portable@TaoCrypt@@SAIPAIPBI1I@Z 004788a0 f   taocrypt:integer.obj
 0001:00077930       ?Subtract@Portable@TaoCrypt@@SAIPAIPBI1I@Z 00478930 f   taocrypt:integer.obj
 0001:000779d0       ?Multiply2@Portable@TaoCrypt@@SAXPAIPBI1@Z 004789d0 f   taocrypt:integer.obj
 0001:00077ab0       ?Multiply2Bottom@Portable@TaoCrypt@@SAXPAIPBI1@Z 00478ab0 f   taocrypt:integer.obj
 0001:00077ae0       ?Multiply2Add@Portable@TaoCrypt@@SAIPAIPBI1@Z 00478ae0 f   taocrypt:integer.obj
 0001:00077cd0       ?Add@LowLevel@TaoCrypt@@SAIPAIPBI1I@Z 00478cd0 f i taocrypt:integer.obj
 0001:00077ce0       ?Subtract@LowLevel@TaoCrypt@@SAIPAIPBI1I@Z 00478ce0 f i taocrypt:integer.obj
 0001:00077cf0       ?Multiply4@LowLevel@TaoCrypt@@SAXPAIPBI1@Z 00478cf0 f i taocrypt:integer.obj
 0001:00077d00       ?Multiply8@LowLevel@TaoCrypt@@SAXPAIPBI1@Z 00478d00 f i taocrypt:integer.obj
 0001:00077d10       ?Multiply8Bottom@LowLevel@TaoCrypt@@SAXPAIPBI1@Z 00478d10 f i taocrypt:integer.obj
 0001:00077d20       ?Add@PentiumOptimized@TaoCrypt@@SAIPAIPBI1I@Z 00478d20 f   taocrypt:integer.obj
 0001:00077d70       ?Subtract@PentiumOptimized@TaoCrypt@@SAIPAIPBI1I@Z 00478d70 f   taocrypt:integer.obj
 0001:00077dc0       ?Add@P4Optimized@TaoCrypt@@SAIPAIPBI1I@Z 00478dc0 f   taocrypt:integer.obj
 0001:00077e30       ?Subtract@P4Optimized@TaoCrypt@@SAIPAIPBI1I@Z 00478e30 f   taocrypt:integer.obj
 0001:00077ea0       ?Multiply4@PentiumOptimized@TaoCrypt@@SAXPAIPBI1@Z 00478ea0 f   taocrypt:integer.obj
 0001:00077fd0       ?Multiply8@PentiumOptimized@TaoCrypt@@SAXPAIPBI1@Z 00478fd0 f   taocrypt:integer.obj
 0001:000783b0       ?Multiply8Bottom@PentiumOptimized@TaoCrypt@@SAXPAIPBI1@Z 004793b0 f   taocrypt:integer.obj
 0001:000786e0       ?Multiply4@P4Optimized@TaoCrypt@@SAXPAIPBI1@Z 004796e0 f   taocrypt:integer.obj
 0001:000787e0       ?Multiply8@P4Optimized@TaoCrypt@@SAXPAIPBI1@Z 004797e0 f   taocrypt:integer.obj
 0001:00078b50       ?Multiply8Bottom@P4Optimized@TaoCrypt@@SAXPAIPBI1@Z 00479b50 f   taocrypt:integer.obj
 0001:00078d00       ?RecursiveMultiply@TaoCrypt@@YAXPAI0PBI1I@Z 00479d00 f   taocrypt:integer.obj
 0001:00078f90       ?RecursiveMultiplyTop@TaoCrypt@@YAXPAI0PBI11I@Z 00479f90 f   taocrypt:integer.obj
 0001:00079270       ?Add@TaoCrypt@@YAIPAIPBI1I@Z 0047a270 f i taocrypt:integer.obj
 0001:00079280       ?Subtract@TaoCrypt@@YAIPAIPBI1I@Z 0047a280 f i taocrypt:integer.obj
 0001:00079290       ?Multiply@TaoCrypt@@YAXPAI0PBI1I@Z 0047a290 f i taocrypt:integer.obj
 0001:000792c0       ?DivideByPower2Mod@TaoCrypt@@YAXPAIPBII1I@Z 0047a2c0 f   taocrypt:integer.obj
 0001:00079370       ?MultiplyByPower2Mod@TaoCrypt@@YAXPAIPBII1I@Z 0047a370 f   taocrypt:integer.obj
 0001:00079400       ?MultiplyTop@TaoCrypt@@YAXPAI0PBI11I@Z 0047a400 f i taocrypt:integer.obj
 0001:00079410       ??A?$Block@IV?$AlignedAllocator@I@TaoCrypt@@@TaoCrypt@@QAEAAII@Z 0047a410 f i taocrypt:integer.obj
 0001:00079420       ??A?$Block@IV?$AlignedAllocator@I@TaoCrypt@@@TaoCrypt@@QBEABII@Z 0047a420 f i taocrypt:integer.obj
 0001:00079430       ??H?$Block@IV?$AlignedAllocator@I@TaoCrypt@@@TaoCrypt@@QAEPAII@Z 0047a430 f i taocrypt:integer.obj
 0001:00079440       ??H?$Block@IV?$AlignedAllocator@I@TaoCrypt@@@TaoCrypt@@QBEPBII@Z 0047a440 f i taocrypt:integer.obj
 0001:00079450       ?size@?$Block@IV?$AlignedAllocator@I@TaoCrypt@@@TaoCrypt@@QBEIXZ 0047a450 f i taocrypt:integer.obj
 0001:00079460       ?get_buffer@?$Block@IV?$AlignedAllocator@I@TaoCrypt@@@TaoCrypt@@QBEPAIXZ 0047a460 f i taocrypt:integer.obj
 0001:00079470       ?begin@?$Block@IV?$AlignedAllocator@I@TaoCrypt@@@TaoCrypt@@QBEPAIXZ 0047a470 f i taocrypt:integer.obj
 0001:00079480       ??$swap@PBI@mySTL@@YAXAAPBI0@Z 0047a480 f i taocrypt:integer.obj
 0001:000794a0       ??$swap@PAI@mySTL@@YAXAAPAI0@Z 0047a4a0 f i taocrypt:integer.obj
 0001:000794c0       ??$max@I@TaoCrypt@@YAABIABI0@Z 0047a4c0 f i taocrypt:integer.obj
 0001:000794e0       ??$swap@W4Sign@Integer@TaoCrypt@@@mySTL@@YAXAAW4Sign@Integer@TaoCrypt@@0@Z 0047a4e0 f i taocrypt:integer.obj
 0001:00079500       ??$swap@V?$AlignedAllocator@I@TaoCrypt@@@mySTL@@YAXAAV?$AlignedAllocator@I@TaoCrypt@@0@Z 0047a500 f i taocrypt:integer.obj
 0001:00079510       ?CheckSize@?$AllocatorBase@I@TaoCrypt@@KAXI@Z 0047a510 f i taocrypt:integer.obj
 0001:00079520       ??$tcArrayDelete@I@TaoCrypt@@YAXPAI@Z 0047a520 f i taocrypt:integer.obj
 0001:00079530       ??$RightShift@K@?$SafeShifter@$00@TaoCrypt@@SAKKI@Z 0047a530 f i taocrypt:integer.obj
 0001:00079540       ??$LeftShift@K@?$SafeShifter@$00@TaoCrypt@@SAKKI@Z 0047a540 f i taocrypt:integer.obj
 0001:00079550       ??$DivideThreeWordsByTwo@IVDWord@TaoCrypt@@@TaoCrypt@@YAIPAIIIPAVDWord@0@@Z 0047a550 f i taocrypt:integer.obj
 0001:00079620       ?prev@Source@TaoCrypt@@QAEEXZ 0047a620 f i taocrypt:integer.obj
 0001:00079630       ??0AbstractRing@TaoCrypt@@QAE@XZ 0047a630 f i taocrypt:integer.obj
 0001:00079640       ?MultiplyAndAdd@DWord@TaoCrypt@@SA?AV12@III@Z 0047a640 f i taocrypt:integer.obj
 0001:000796b0       ?Multiply4@Portable@TaoCrypt@@SAXPAIPBI1@Z 0047a6b0 f   taocrypt:integer.obj
 0001:000798f0       ?Square2@Portable@TaoCrypt@@SAXPAIPBI@Z 0047a8f0 f   taocrypt:integer.obj
 0001:00079960       ?Square4@Portable@TaoCrypt@@SAXPAIPBI@Z 0047a960 f   taocrypt:integer.obj
 0001:00079980       ?Multiply8@Portable@TaoCrypt@@SAXPAIPBI1@Z 0047a980 f   taocrypt:integer.obj
 0001:0007a2a0       ?Multiply4Bottom@Portable@TaoCrypt@@SAXPAIPBI1@Z 0047b2a0 f   taocrypt:integer.obj
 0001:0007a380       ?Multiply8Bottom@Portable@TaoCrypt@@SAXPAIPBI1@Z 0047b380 f   taocrypt:integer.obj
 0001:0007a860       ?Square4@LowLevel@TaoCrypt@@SAXPAIPBI@Z 0047b860 f i taocrypt:integer.obj
 0001:0007a880       ?RecursiveSquare@TaoCrypt@@YAXPAI0PBII@Z 0047b880 f   taocrypt:integer.obj
 0001:0007a950       ?RecursiveMultiplyBottom@TaoCrypt@@YAXPAI0PBI1I@Z 0047b950 f   taocrypt:integer.obj
 0001:0007aa20       ?Square@TaoCrypt@@YAXPAI0PBII@Z 0047ba20 f i taocrypt:integer.obj
 0001:0007aa30       ?AsymmetricMultiply@TaoCrypt@@YAXPAI0PBII1I@Z 0047ba30 f   taocrypt:integer.obj
 0001:0007ac30       ?AlmostInverse@TaoCrypt@@YAIPAI0PBII1I@Z 0047bc30 f   taocrypt:integer.obj
 0001:0007af40       ?GetBit@Integer@TaoCrypt@@QBE_NI@Z 0047bf40 f   taocrypt:integer.obj
 0001:0007af70       ?GetBits@Integer@TaoCrypt@@QBEKII@Z 0047bf70 f   taocrypt:integer.obj
 0001:0007afb0       ?GetByte@Integer@TaoCrypt@@QBEEI@Z 0047bfb0 f   taocrypt:integer.obj
 0001:0007afe0       ?WordCount@Integer@TaoCrypt@@QBEIXZ 0047bfe0 f   taocrypt:integer.obj
 0001:0007b130       ?Modulo@Integer@TaoCrypt@@QBEII@Z 0047c130 f   taocrypt:integer.obj
 0001:0007b1d0       ?IsUnit@Integer@TaoCrypt@@QBE_NXZ 0047c1d0 f   taocrypt:integer.obj
 0001:0007b1f0       ?MultiplyBottom@TaoCrypt@@YAXPAI0PBI1I@Z 0047c1f0 f i taocrypt:integer.obj
 0001:0007b200       ?MontgomeryReduce@TaoCrypt@@YAXPAI0PBI11I@Z 0047c200 f   taocrypt:integer.obj
 0001:0007b280       ?RecursiveInverseModPower2@TaoCrypt@@YAXPAI0PBII@Z 0047c280 f   taocrypt:integer.obj
 0001:0007b370       ?Multiply@MontgomeryRepresentation@TaoCrypt@@UBEABVInteger@2@ABV32@0@Z 0047c370 f   taocrypt:integer.obj
 0001:0007b400       ?Square@MontgomeryRepresentation@TaoCrypt@@UBEABVInteger@2@ABV32@@Z 0047c400 f   taocrypt:integer.obj
 0001:0007b470       ?MultiplicativeInverse@MontgomeryRepresentation@TaoCrypt@@UBEABVInteger@2@ABV32@@Z 0047c470 f   taocrypt:integer.obj
 0001:0007b530       ?Swap@?$Block@IV?$AlignedAllocator@I@TaoCrypt@@@TaoCrypt@@QAEXAAV12@@Z 0047c530 f i taocrypt:integer.obj
 0001:0007b550       ?allocate@?$AlignedAllocator@I@TaoCrypt@@QAEPAIIPBX@Z 0047c550 f i taocrypt:integer.obj
 0001:0007b590       ?deallocate@?$AlignedAllocator@I@TaoCrypt@@QAEXPAXI@Z 0047c590 f i taocrypt:integer.obj
 0001:0007b5d0       ??$SafeRightShift@$0CA@K@TaoCrypt@@YAKK@Z 0047c5d0 f i taocrypt:integer.obj
 0001:0007b5e0       ??$SafeLeftShift@$0CA@K@TaoCrypt@@YAKK@Z 0047c5e0 f i taocrypt:integer.obj
 0001:0007b5f0       ??$DivideFourWordsByTwo@IVDWord@TaoCrypt@@@TaoCrypt@@YA?AVDWord@0@PAIABV10@11@Z 0047c5f0 f i taocrypt:integer.obj
 0001:0007b670       ??$StdReallocate@IV?$AlignedAllocator@I@TaoCrypt@@@TaoCrypt@@YAPAIAAV?$AlignedAllocator@I@0@PAIII_N@Z 0047c670 f i taocrypt:integer.obj
 0001:0007b6f0       ?IsEven@Integer@TaoCrypt@@QBE_NXZ 0047c6f0 f i taocrypt:integer.obj
 0001:0007b700       ?IsOdd@Integer@TaoCrypt@@QBE_NXZ 0047c700 f i taocrypt:integer.obj
 0001:0007b720       ??LTaoCrypt@@YAIABVInteger@0@I@Z 0047c720 f i taocrypt:integer.obj
 0001:0007b730       ??7Integer@TaoCrypt@@QBE_NXZ 0047c730 f   taocrypt:integer.obj
 0001:0007b750       ?PositiveSubtract@TaoCrypt@@YAXAAVInteger@1@ABV21@1@Z 0047c750 f   taocrypt:integer.obj
 0001:0007b8b0       ?PositiveCompare@Integer@TaoCrypt@@ABEHABV12@@Z 0047c8b0 f   taocrypt:integer.obj
 0001:0007b8f0       ?BitCount@Integer@TaoCrypt@@QBEIXZ 0047c8f0 f   taocrypt:integer.obj
 0001:0007b930       ?ByteCount@Integer@TaoCrypt@@QBEIXZ 0047c930 f   taocrypt:integer.obj
 0001:0007b960       ?IsConvertableToLong@Integer@TaoCrypt@@QBE_NXZ 0047c960 f   taocrypt:integer.obj
 0001:0007b9a0       ?ConvertToLong@Integer@TaoCrypt@@QBEJXZ 0047c9a0 f   taocrypt:integer.obj
 0001:0007b9b0       ?Swap@Integer@TaoCrypt@@QAEXAAV12@@Z 0047c9b0 f   taocrypt:integer.obj
 0001:0007ba40       ?Divide@TaoCrypt@@YAXPAI00PBII1I@Z 0047ca40 f   taocrypt:integer.obj
 0001:0007bcf0       ?InverseMod@Integer@TaoCrypt@@QBEII@Z 0047ccf0 f   taocrypt:integer.obj
 0001:0007bd60       ?Inverse@ModularArithmetic@TaoCrypt@@UBEABVInteger@2@ABV32@@Z 0047cd60 f   taocrypt:integer.obj
 0001:0007bde0       ?reallocate@?$AlignedAllocator@I@TaoCrypt@@QAEPAIPAIII_N@Z 0047cde0 f i taocrypt:integer.obj
 0001:0007be00       ?IsZero@Integer@TaoCrypt@@QBE_NXZ 0047ce00 f i taocrypt:integer.obj
 0001:0007be10       ?NotZero@Integer@TaoCrypt@@QBE_NXZ 0047ce10 f i taocrypt:integer.obj
 0001:0007be20       ?IsPositive@Integer@TaoCrypt@@QBE_NXZ 0047ce20 f i taocrypt:integer.obj
 0001:0007be40       ?ScalarMultiply@MultiplicativeGroupT@AbstractRing@TaoCrypt@@UBE?AVInteger@3@ABV43@0@Z 0047ce40 f i taocrypt:integer.obj
 0001:0007be60       ?CascadeScalarMultiply@MultiplicativeGroupT@AbstractRing@TaoCrypt@@UBE?AVInteger@3@ABV43@000@Z 0047ce60 f i taocrypt:integer.obj
 0001:0007be90       ??1AbstractEuclideanDomain@TaoCrypt@@UAE@XZ 0047ce90 f i taocrypt:integer.obj
 0001:0007beb0       ??1EuclideanDomainOf@TaoCrypt@@UAE@XZ 0047ceb0 f i taocrypt:integer.obj
 0001:0007bee0       ??1ModularArithmetic@TaoCrypt@@UAE@XZ 0047cee0 f i taocrypt:integer.obj
 0001:0007bf20       ?CascadeExponentiate@MontgomeryRepresentation@TaoCrypt@@UBE?AVInteger@2@ABV32@000@Z 0047cf20 f i taocrypt:integer.obj
 0001:0007bf50       ?Negate@Integer@TaoCrypt@@QAEXXZ 0047cf50 f   taocrypt:integer.obj
 0001:0007bf70       ?Compare@Integer@TaoCrypt@@QBEHABV12@@Z 0047cf70 f   taocrypt:integer.obj
 0001:0007bfb0       ??1MontgomeryRepresentation@TaoCrypt@@UAE@XZ 0047cfb0 f i taocrypt:integer.obj
 0001:0007c010       ?CleanGrow@?$Block@IV?$AlignedAllocator@I@TaoCrypt@@@TaoCrypt@@QAEXI@Z 0047d010 f i taocrypt:integer.obj
 0001:0007c060       ?New@?$Block@IV?$AlignedAllocator@I@TaoCrypt@@@TaoCrypt@@QAEXI@Z 0047d060 f i taocrypt:integer.obj
 0001:0007c090       ?resize@?$Block@IV?$AlignedAllocator@I@TaoCrypt@@@TaoCrypt@@QAEXI@Z 0047d090 f i taocrypt:integer.obj
 0001:0007c0c0       ??_GInteger@TaoCrypt@@QAEPAXI@Z 0047d0c0 f i taocrypt:integer.obj
 0001:0007c0f0       ??8TaoCrypt@@YA_NABVInteger@0@0@Z 0047d0f0 f i taocrypt:integer.obj
 0001:0007c110       ??OTaoCrypt@@YA_NABVInteger@0@0@Z 0047d110 f i taocrypt:integer.obj
 0001:0007c130       ??PTaoCrypt@@YA_NABVInteger@0@0@Z 0047d130 f i taocrypt:integer.obj
 0001:0007c150       ??MTaoCrypt@@YA_NABVInteger@0@0@Z 0047d150 f i taocrypt:integer.obj
 0001:0007c170       ?SetBit@Integer@TaoCrypt@@QAEXI_N@Z 0047d170 f   taocrypt:integer.obj
 0001:0007c210       ?SetByte@Integer@TaoCrypt@@QAEXIE@Z 0047d210 f   taocrypt:integer.obj
 0001:0007c2e0       ??4Integer@TaoCrypt@@QAEAAV01@ABV01@@Z 0047d2e0 f   taocrypt:integer.obj
 0001:0007c340       ??_3Integer@TaoCrypt@@QAEAAV01@I@Z 0047d340 f   taocrypt:integer.obj
 0001:0007c450       ?PositiveAdd@TaoCrypt@@YAXAAVInteger@1@ABV21@1@Z 0047d450 f   taocrypt:integer.obj
 0001:0007c590       ?CleanNew@?$Block@IV?$AlignedAllocator@I@TaoCrypt@@@TaoCrypt@@QAEXI@Z 0047d590 f i taocrypt:integer.obj
 0001:0007c5d0       ??$tcDelete@VInteger@TaoCrypt@@@TaoCrypt@@YAXPAVInteger@0@@Z 0047d5d0 f i taocrypt:integer.obj
 0001:0007c600       ?Accumulate@MultiplicativeGroupT@AbstractRing@TaoCrypt@@UBEAAVInteger@3@AAV43@ABV43@@Z 0047d600 f i taocrypt:integer.obj
 0001:0007c630       ?Reduce@MultiplicativeGroupT@AbstractRing@TaoCrypt@@UBEAAVInteger@3@AAV43@ABV43@@Z 0047d630 f i taocrypt:integer.obj
 0001:0007c660       ?Decode@Integer@TaoCrypt@@QAEXAAVSource@2@@Z 0047d660 f   taocrypt:integer.obj
 0001:0007c730       ?Decode@Integer@TaoCrypt@@QAEXPBEIW4Signedness@12@@Z 0047d730 f   taocrypt:integer.obj
 0001:0007c890       ?CleanUp@TaoCrypt@@YAXXZ   0047d890 f   taocrypt:integer.obj
 0001:0007c8c0       ?Randomize@Integer@TaoCrypt@@QAEXAAVRandomNumberGenerator@2@I@Z 0047d8c0 f   taocrypt:integer.obj
 0001:0007c950       ??YInteger@TaoCrypt@@QAEAAV01@ABV01@@Z 0047d950 f   taocrypt:integer.obj
 0001:0007c9f0       ??ZInteger@TaoCrypt@@QAEAAV01@ABV01@@Z 0047d9f0 f   taocrypt:integer.obj
 0001:0007ca90       ?Accumulate@ModularArithmetic@TaoCrypt@@UBEAAVInteger@2@AAV32@ABV32@@Z 0047da90 f   taocrypt:integer.obj
 0001:0007cb20       ?Reduce@ModularArithmetic@TaoCrypt@@UBEAAVInteger@2@AAV32@ABV32@@Z 0047db20 f   taocrypt:integer.obj
 0001:0007cb90       ??0?$Block@IV?$AlignedAllocator@I@TaoCrypt@@@TaoCrypt@@QAE@I@Z 0047db90 f i taocrypt:integer.obj
 0001:0007cbe0       ?PositiveMultiply@TaoCrypt@@YAXAAVInteger@1@ABV21@1@Z 0047dbe0 f   taocrypt:integer.obj
 0001:0007cd80       ?Multiply@TaoCrypt@@YAXAAVInteger@1@ABV21@1@Z 0047dd80 f   taocrypt:integer.obj
 0001:0007cdc0       ??0Integer@TaoCrypt@@QAE@XZ 0047ddc0 f   taocrypt:integer.obj
 0001:0007ce30       ??0Integer@TaoCrypt@@QAE@ABV01@@Z 0047de30 f   taocrypt:integer.obj
 0001:0007cef0       ??0Integer@TaoCrypt@@QAE@J@Z 0047def0 f   taocrypt:integer.obj
 0001:0007cf70       ??0Integer@TaoCrypt@@QAE@W4Sign@01@II@Z 0047df70 f   taocrypt:integer.obj
 0001:0007cfe0       ??0Integer@TaoCrypt@@AAE@II@Z 0047dfe0 f   taocrypt:integer.obj
 0001:0007d0a0       ??0Integer@TaoCrypt@@QAE@PBEIW4Signedness@01@@Z 0047e0a0 f   taocrypt:integer.obj
 0001:0007d110       ??0Integer@TaoCrypt@@QAE@AAVSource@1@@Z 0047e110 f   taocrypt:integer.obj
 0001:0007d170       ?Zero@Integer@TaoCrypt@@SAABV12@XZ 0047e170 f   taocrypt:integer.obj
 0001:0007d1a0       ?One@Integer@TaoCrypt@@SAABV12@XZ 0047e1a0 f   taocrypt:integer.obj
 0001:0007d1d0       ?Power2@Integer@TaoCrypt@@SA?AV12@I@Z 0047e1d0 f   taocrypt:integer.obj
 0001:0007d200       ??GInteger@TaoCrypt@@QBE?AV01@XZ 0047e200 f   taocrypt:integer.obj
 0001:0007d220       ??EInteger@TaoCrypt@@QAEAAV01@XZ 0047e220 f   taocrypt:integer.obj
 0001:0007d290       ??FInteger@TaoCrypt@@QAEAAV01@XZ 0047e290 f   taocrypt:integer.obj
 0001:0007d320       ??_2Integer@TaoCrypt@@QAEAAV01@I@Z 0047e320 f   taocrypt:integer.obj
 0001:0007d390       ?MinEncodedSize@Integer@TaoCrypt@@QBEIW4Signedness@12@@Z 0047e390 f   taocrypt:integer.obj
 0001:0007d470       ?Plus@Integer@TaoCrypt@@QBE?AV12@ABV12@@Z 0047e470 f   taocrypt:integer.obj
 0001:0007d500       ?Minus@Integer@TaoCrypt@@QBE?AV12@ABV12@@Z 0047e500 f   taocrypt:integer.obj
 0001:0007d590       ?Times@Integer@TaoCrypt@@QBE?AV12@ABV12@@Z 0047e590 f   taocrypt:integer.obj
 0001:0007d5c0       ?PositiveDivide@TaoCrypt@@YAXAAVInteger@1@0ABV21@1@Z 0047e5c0 f   taocrypt:integer.obj
 0001:0007d700       ?AbsoluteValue@Integer@TaoCrypt@@QBE?AV12@XZ 0047e700 f   taocrypt:integer.obj
 0001:0007d720       ?MultiplicativeInverse@Integer@TaoCrypt@@QBE?AV12@XZ 0047e720 f   taocrypt:integer.obj
 0001:0007d760       ?ConvertOut@MontgomeryRepresentation@TaoCrypt@@UBE?AVInteger@2@ABV32@@Z 0047e760 f   taocrypt:integer.obj
 0001:0007d7e0       ??5Integer@TaoCrypt@@QBE?AV01@I@Z 0047e7e0 f i taocrypt:integer.obj
 0001:0007d830       ??6Integer@TaoCrypt@@QBE?AV01@I@Z 0047e830 f i taocrypt:integer.obj
 0001:0007d880       ?Squared@Integer@TaoCrypt@@QBE?AV12@XZ 0047e880 f i taocrypt:integer.obj
 0001:0007d8a0       ??HTaoCrypt@@YA?AVInteger@0@ABV10@0@Z 0047e8a0 f i taocrypt:integer.obj
 0001:0007d8c0       ??GTaoCrypt@@YA?AVInteger@0@ABV10@0@Z 0047e8c0 f i taocrypt:integer.obj
 0001:0007d8e0       ??DTaoCrypt@@YA?AVInteger@0@ABV10@0@Z 0047e8e0 f i taocrypt:integer.obj
 0001:0007d900       ??0AbstractEuclideanDomain@TaoCrypt@@QAE@XZ 0047e900 f i taocrypt:integer.obj
 0001:0007d920       ??0ModularArithmetic@TaoCrypt@@QAE@ABVInteger@1@@Z 0047e920 f i taocrypt:integer.obj
 0001:0007d960       ?MultiplicativeGroup@AbstractRing@TaoCrypt@@UBEABVAbstractGroup@2@XZ 0047e960 f i taocrypt:integer.obj
 0001:0007d970       ?IsMontgomeryRepresentation@ModularArithmetic@TaoCrypt@@UBE_NXZ 0047e970 f i taocrypt:integer.obj
 0001:0007d980       ?Double@ModularArithmetic@TaoCrypt@@UBEABVInteger@2@ABV32@@Z 0047e980 f i taocrypt:integer.obj
 0001:0007d990       ?Divide@ModularArithmetic@TaoCrypt@@UBEABVInteger@2@ABV32@0@Z 0047e990 f i taocrypt:integer.obj
 0001:0007d9c0       ?Equal@ModularArithmetic@TaoCrypt@@UBE_NABVInteger@2@0@Z 0047e9c0 f i taocrypt:integer.obj
 0001:0007d9e0       ??_GModularArithmetic@TaoCrypt@@UAEPAXI@Z 0047e9e0 f i taocrypt:integer.obj
 0001:0007d9e0       ??_EModularArithmetic@TaoCrypt@@UAEPAXI@Z 0047e9e0 f i taocrypt:integer.obj
 0001:0007da30       ?ConvertOut@ModularArithmetic@TaoCrypt@@UBE?AVInteger@2@ABV32@@Z 0047ea30 f i taocrypt:integer.obj
 0001:0007da50       ?Identity@ModularArithmetic@TaoCrypt@@UBEABVInteger@2@XZ 0047ea50 f i taocrypt:integer.obj
 0001:0007da60       ?MultiplicativeIdentity@ModularArithmetic@TaoCrypt@@UBEABVInteger@2@XZ 0047ea60 f i taocrypt:integer.obj
 0001:0007da70       ?Encode@Integer@TaoCrypt@@QBEIPAEIW4Signedness@12@@Z 0047ea70 f   taocrypt:integer.obj
 0001:0007db60       ?Randomize@Integer@TaoCrypt@@QAEXAAVRandomNumberGenerator@2@ABV12@1@Z 0047eb60 f   taocrypt:integer.obj
 0001:0007dbd0       ?Divide@Integer@TaoCrypt@@SAXAAV12@0ABV12@1@Z 0047ebd0 f   taocrypt:integer.obj
 0001:0007dc80       ?DivideByPowerOf2@Integer@TaoCrypt@@SAXAAV12@0ABV12@I@Z 0047ec80 f   taocrypt:integer.obj
 0001:0007ddf0       ?DividedBy@Integer@TaoCrypt@@QBE?AV12@ABV12@@Z 0047edf0 f   taocrypt:integer.obj
 0001:0007de40       ?Modulo@Integer@TaoCrypt@@QBE?AV12@ABV12@@Z 0047ee40 f   taocrypt:integer.obj
 0001:0007de90       ?Divide@Integer@TaoCrypt@@SAXAAIAAV12@ABV12@I@Z 0047ee90 f   taocrypt:integer.obj
 0001:0007dfe0       ?DividedBy@Integer@TaoCrypt@@QBE?AV12@I@Z 0047efe0 f   taocrypt:integer.obj
 0001:0007e010       ?a_exp_b_mod_c@TaoCrypt@@YA?AVInteger@1@ABV21@00@Z 0047f010 f   taocrypt:integer.obj
 0001:0007e0b0       ?Half@ModularArithmetic@TaoCrypt@@QBEABVInteger@2@ABV32@@Z 0047f0b0 f   taocrypt:integer.obj
 0001:0007e1d0       ?Add@ModularArithmetic@TaoCrypt@@UBEABVInteger@2@ABV32@0@Z 0047f1d0 f   taocrypt:integer.obj
 0001:0007e290       ?Subtract@ModularArithmetic@TaoCrypt@@UBEABVInteger@2@ABV32@0@Z 0047f290 f   taocrypt:integer.obj
 0001:0007e340       ??0MontgomeryRepresentation@TaoCrypt@@QAE@ABVInteger@1@@Z 0047f340 f   taocrypt:integer.obj
 0001:0007e3f0       ?IsMontgomeryRepresentation@MontgomeryRepresentation@TaoCrypt@@UBE_NXZ 0047f3f0 f i taocrypt:integer.obj
 0001:0007e400       ??_EMontgomeryRepresentation@TaoCrypt@@UAEPAXI@Z 0047f400 f i taocrypt:integer.obj
 0001:0007e400       ??_GMontgomeryRepresentation@TaoCrypt@@UAEPAXI@Z 0047f400 f i taocrypt:integer.obj
 0001:0007e420       ??KTaoCrypt@@YA?AVInteger@0@ABV10@0@Z 0047f420 f i taocrypt:integer.obj
 0001:0007e440       ??LTaoCrypt@@YA?AVInteger@0@ABV10@0@Z 0047f440 f i taocrypt:integer.obj
 0001:0007e460       ?ModularExponentiation@TaoCrypt@@YA?AVInteger@1@ABV21@00@Z 0047f460 f i taocrypt:integer.obj
 0001:0007e490       ??0EuclideanDomainOf@TaoCrypt@@QAE@XZ 0047f490 f i taocrypt:integer.obj
 0001:0007e4c0       ?IsUnit@EuclideanDomainOf@TaoCrypt@@UBE_NABVInteger@2@@Z 0047f4c0 f i taocrypt:integer.obj
 0001:0007e4d0       ?Equal@EuclideanDomainOf@TaoCrypt@@UBE_NABVInteger@2@0@Z 0047f4d0 f i taocrypt:integer.obj
 0001:0007e4f0       ??_GEuclideanDomainOf@TaoCrypt@@UAEPAXI@Z 0047f4f0 f i taocrypt:integer.obj
 0001:0007e4f0       ??_EEuclideanDomainOf@TaoCrypt@@UAEPAXI@Z 0047f4f0 f i taocrypt:integer.obj
 0001:0007e530       ?Accumulate@EuclideanDomainOf@TaoCrypt@@UBEAAVInteger@2@AAV32@ABV32@@Z 0047f530 f i taocrypt:integer.obj
 0001:0007e550       ?Reduce@EuclideanDomainOf@TaoCrypt@@UBEAAVInteger@2@AAV32@ABV32@@Z 0047f550 f i taocrypt:integer.obj
 0001:0007e570       ?Doubled@Integer@TaoCrypt@@QBE?AV12@XZ 0047f570 f i taocrypt:integer.obj
 0001:0007e590       ?Identity@EuclideanDomainOf@TaoCrypt@@UBEABVInteger@2@XZ 0047f590 f i taocrypt:integer.obj
 0001:0007e5a0       ?Add@EuclideanDomainOf@TaoCrypt@@UBEABVInteger@2@ABV32@0@Z 0047f5a0 f i taocrypt:integer.obj
 0001:0007e5f0       ?Inverse@EuclideanDomainOf@TaoCrypt@@UBEABVInteger@2@ABV32@@Z 0047f5f0 f i taocrypt:integer.obj
 0001:0007e630       ?Subtract@EuclideanDomainOf@TaoCrypt@@UBEABVInteger@2@ABV32@0@Z 0047f630 f i taocrypt:integer.obj
 0001:0007e680       ?Double@EuclideanDomainOf@TaoCrypt@@UBEABVInteger@2@ABV32@@Z 0047f680 f i taocrypt:integer.obj
 0001:0007e6c0       ?MultiplicativeIdentity@EuclideanDomainOf@TaoCrypt@@UBEABVInteger@2@XZ 0047f6c0 f i taocrypt:integer.obj
 0001:0007e6d0       ?Multiply@EuclideanDomainOf@TaoCrypt@@UBEABVInteger@2@ABV32@0@Z 0047f6d0 f i taocrypt:integer.obj
 0001:0007e720       ?Square@EuclideanDomainOf@TaoCrypt@@UBEABVInteger@2@ABV32@@Z 0047f720 f i taocrypt:integer.obj
 0001:0007e760       ?MultiplicativeInverse@EuclideanDomainOf@TaoCrypt@@UBEABVInteger@2@ABV32@@Z 0047f760 f i taocrypt:integer.obj
 0001:0007e7a0       ?Divide@EuclideanDomainOf@TaoCrypt@@UBEABVInteger@2@ABV32@0@Z 0047f7a0 f i taocrypt:integer.obj
 0001:0007e7f0       ?Mod@EuclideanDomainOf@TaoCrypt@@UBEABVInteger@2@ABV32@0@Z 0047f7f0 f i taocrypt:integer.obj
 0001:0007e840       ?DivisionAlgorithm@EuclideanDomainOf@TaoCrypt@@UBEXAAVInteger@2@0ABV32@1@Z 0047f840 f i taocrypt:integer.obj
 0001:0007e860       ?ConvertIn@ModularArithmetic@TaoCrypt@@UBE?AVInteger@2@ABV32@@Z 0047f860 f i taocrypt:integer.obj
 0001:0007e880       ?Multiply@ModularArithmetic@TaoCrypt@@UBEABVInteger@2@ABV32@0@Z 0047f880 f i taocrypt:integer.obj
 0001:0007e8f0       ?Square@ModularArithmetic@TaoCrypt@@UBEABVInteger@2@ABV32@@Z 0047f8f0 f i taocrypt:integer.obj
 0001:0007e960       ?ConvertIn@MontgomeryRepresentation@TaoCrypt@@UBE?AVInteger@2@ABV32@@Z 0047f960 f i taocrypt:integer.obj
 0001:0007e9d0       ?MultiplicativeIdentity@MontgomeryRepresentation@TaoCrypt@@UBEABVInteger@2@XZ 0047f9d0 f i taocrypt:integer.obj
 0001:0007ea40       ??0Integer@TaoCrypt@@QAE@AAVRandomNumberGenerator@1@ABV01@1@Z 0047fa40 f   taocrypt:integer.obj
 0001:0007eab0       ?SquareRoot@Integer@TaoCrypt@@QBE?AV12@XZ 0047fab0 f   taocrypt:integer.obj
 0001:0007ec10       ?IsSquare@Integer@TaoCrypt@@QBE_NXZ 0047fc10 f   taocrypt:integer.obj
 0001:0007ec70       ?a_times_b_mod_c@TaoCrypt@@YA?AVInteger@1@ABV21@00@Z 0047fc70 f   taocrypt:integer.obj
 0001:0007ecc0       ?Gcd@Integer@TaoCrypt@@SA?AV12@ABV12@0@Z 0047fcc0 f   taocrypt:integer.obj
 0001:0007ed40       ?InverseMod@Integer@TaoCrypt@@QBE?AV12@ABV12@@Z 0047fd40 f   taocrypt:integer.obj
 0001:0007efd0       ?CascadeExponentiate@ModularArithmetic@TaoCrypt@@UBE?AVInteger@2@ABV32@000@Z 0047ffd0 f   taocrypt:integer.obj
 0001:0007f0f0       ?SimultaneousExponentiate@ModularArithmetic@TaoCrypt@@UBEXPAVInteger@2@ABV32@PBV32@I@Z 004800f0 f   taocrypt:integer.obj
 0001:0007f220       ?CRT@TaoCrypt@@YA?AVInteger@1@ABV21@0000@Z 00480220 f   taocrypt:integer.obj
 0001:0007f2e0       ?IsUnit@ModularArithmetic@TaoCrypt@@UBE_NABVInteger@2@@Z 004802e0 f i taocrypt:integer.obj
 0001:0007f320       ?MultiplicativeInverse@ModularArithmetic@TaoCrypt@@UBEABVInteger@2@ABV32@@Z 00480320 f i taocrypt:integer.obj
 0001:0007f360       ?ModularRoot@TaoCrypt@@YA?AVInteger@1@ABV21@00000@Z 00480360 f   taocrypt:integer.obj
 0001:0007f430       ??1SHA256@TaoCrypt@@UAE@XZ 00480430 f i taocrypt:sha.obj
 0001:0007f440       ??1SHA224@TaoCrypt@@UAE@XZ 00480440 f i taocrypt:sha.obj
 0001:0007f450       ??1SHA512@TaoCrypt@@UAE@XZ 00480450 f i taocrypt:sha.obj
 0001:0007f460       ??1SHA384@TaoCrypt@@UAE@XZ 00480460 f i taocrypt:sha.obj
 0001:0007f470       ?Init@SHA@TaoCrypt@@UAEXXZ 00480470 f   taocrypt:sha.obj
 0001:0007f4a0       ?Init@SHA256@TaoCrypt@@UAEXXZ 004804a0 f   taocrypt:sha.obj
 0001:0007f4f0       ?Init@SHA224@TaoCrypt@@UAEXXZ 004804f0 f   taocrypt:sha.obj
 0001:0007f540       ?Init@SHA512@TaoCrypt@@UAEXXZ 00480540 f   taocrypt:sha.obj
 0001:0007f5c0       ?Init@SHA384@TaoCrypt@@UAEXXZ 004805c0 f   taocrypt:sha.obj
 0001:0007f640       ??0SHA@TaoCrypt@@QAE@ABV01@@Z 00480640 f   taocrypt:sha.obj
 0001:0007f6a0       ??0SHA256@TaoCrypt@@QAE@ABV01@@Z 004806a0 f   taocrypt:sha.obj
 0001:0007f6f0       ?getByteOrder@SHA256@TaoCrypt@@UBE?AW4ByteOrder@2@XZ 004806f0 f i taocrypt:sha.obj
 0001:0007f700       ?getBlockSize@SHA256@TaoCrypt@@UBEIXZ 00480700 f i taocrypt:sha.obj
 0001:0007f710       ?getDigestSize@SHA256@TaoCrypt@@UBEIXZ 00480710 f i taocrypt:sha.obj
 0001:0007f720       ?getPadSize@SHA256@TaoCrypt@@UBEIXZ 00480720 f i taocrypt:sha.obj
 0001:0007f730       ??0SHA224@TaoCrypt@@QAE@ABV01@@Z 00480730 f   taocrypt:sha.obj
 0001:0007f780       ?getByteOrder@SHA224@TaoCrypt@@UBE?AW4ByteOrder@2@XZ 00480780 f i taocrypt:sha.obj
 0001:0007f790       ?getBlockSize@SHA224@TaoCrypt@@UBEIXZ 00480790 f i taocrypt:sha.obj
 0001:0007f7a0       ?getDigestSize@SHA224@TaoCrypt@@UBEIXZ 004807a0 f i taocrypt:sha.obj
 0001:0007f7b0       ?getPadSize@SHA224@TaoCrypt@@UBEIXZ 004807b0 f i taocrypt:sha.obj
 0001:0007f7c0       ??0SHA512@TaoCrypt@@QAE@ABV01@@Z 004807c0 f   taocrypt:sha.obj
 0001:0007f810       ?getByteOrder@SHA512@TaoCrypt@@UBE?AW4ByteOrder@2@XZ 00480810 f i taocrypt:sha.obj
 0001:0007f820       ?getBlockSize@SHA512@TaoCrypt@@UBEIXZ 00480820 f i taocrypt:sha.obj
 0001:0007f830       ?getDigestSize@SHA512@TaoCrypt@@UBEIXZ 00480830 f i taocrypt:sha.obj
 0001:0007f840       ?getPadSize@SHA512@TaoCrypt@@UBEIXZ 00480840 f i taocrypt:sha.obj
 0001:0007f850       ??0SHA384@TaoCrypt@@QAE@ABV01@@Z 00480850 f   taocrypt:sha.obj
 0001:0007f8a0       ?getByteOrder@SHA384@TaoCrypt@@UBE?AW4ByteOrder@2@XZ 004808a0 f i taocrypt:sha.obj
 0001:0007f8b0       ?getBlockSize@SHA384@TaoCrypt@@UBEIXZ 004808b0 f i taocrypt:sha.obj
 0001:0007f8c0       ?getDigestSize@SHA384@TaoCrypt@@UBEIXZ 004808c0 f i taocrypt:sha.obj
 0001:0007f8d0       ?getPadSize@SHA384@TaoCrypt@@UBEIXZ 004808d0 f i taocrypt:sha.obj
 0001:0007f8e0       ?Transform@SHA@TaoCrypt@@EAEXXZ 004808e0 f   taocrypt:sha.obj
 0001:000816f0       ?Transform@SHA256@TaoCrypt@@EAEXXZ 004826f0 f   taocrypt:sha.obj
 0001:00081710       ?Transform@SHA224@TaoCrypt@@EAEXXZ 00482710 f   taocrypt:sha.obj
 0001:00081730       ?AsmTransform@SHA@TaoCrypt@@AAEXPBEI@Z 00482730 f   taocrypt:sha.obj
 0001:000826d0       ??$rotrFixed@_K@TaoCrypt@@YA_K_KI@Z 004836d0 f i taocrypt:sha.obj
 0001:00082720       ??_GSHA256@TaoCrypt@@UAEPAXI@Z 00483720 f i taocrypt:sha.obj
 0001:00082720       ??_ESHA256@TaoCrypt@@UAEPAXI@Z 00483720 f i taocrypt:sha.obj
 0001:00082740       ??_GSHA224@TaoCrypt@@UAEPAXI@Z 00483740 f i taocrypt:sha.obj
 0001:00082740       ??_ESHA224@TaoCrypt@@UAEPAXI@Z 00483740 f i taocrypt:sha.obj
 0001:00082760       ??_GSHA512@TaoCrypt@@UAEPAXI@Z 00483760 f i taocrypt:sha.obj
 0001:00082760       ??_ESHA512@TaoCrypt@@UAEPAXI@Z 00483760 f i taocrypt:sha.obj
 0001:00082780       ??_GSHA384@TaoCrypt@@UAEPAXI@Z 00483780 f i taocrypt:sha.obj
 0001:00082780       ??_ESHA384@TaoCrypt@@UAEPAXI@Z 00483780 f i taocrypt:sha.obj
 0001:000827a0       ?Swap@SHA@TaoCrypt@@QAEXAAV12@@Z 004837a0 f   taocrypt:sha.obj
 0001:00082800       ?Swap@SHA256@TaoCrypt@@QAEXAAV12@@Z 00483800 f   taocrypt:sha.obj
 0001:00082850       ?Swap@SHA224@TaoCrypt@@QAEXAAV12@@Z 00483850 f   taocrypt:sha.obj
 0001:000828a0       ?Swap@SHA512@TaoCrypt@@QAEXAAV12@@Z 004838a0 f   taocrypt:sha.obj
 0001:000828f0       ?Swap@SHA384@TaoCrypt@@QAEXAAV12@@Z 004838f0 f   taocrypt:sha.obj
 0001:00082940       ?Update@SHA@TaoCrypt@@UAEXPBEI@Z 00483940 f   taocrypt:sha.obj
 0001:00084cf0       ?Transform@SHA512@TaoCrypt@@EAEXXZ 00485cf0 f   taocrypt:sha.obj
 0001:00084d10       ?Transform@SHA384@TaoCrypt@@EAEXXZ 00485d10 f   taocrypt:sha.obj
 0001:00084d30       ??4SHA@TaoCrypt@@QAEAAV01@ABV01@@Z 00485d30 f   taocrypt:sha.obj
 0001:00084d60       ??4SHA256@TaoCrypt@@QAEAAV01@ABV01@@Z 00485d60 f   taocrypt:sha.obj
 0001:00084d90       ??4SHA224@TaoCrypt@@QAEAAV01@ABV01@@Z 00485d90 f   taocrypt:sha.obj
 0001:00084dc0       ??4SHA512@TaoCrypt@@QAEAAV01@ABV01@@Z 00485dc0 f   taocrypt:sha.obj
 0001:00084df0       ??4SHA384@TaoCrypt@@QAEAAV01@ABV01@@Z 00485df0 f   taocrypt:sha.obj
 0001:00084e20       ?Init@RIPEMD160@TaoCrypt@@UAEXXZ 00485e20 f   taocrypt:ripemd.obj
 0001:00084e50       ??0RIPEMD160@TaoCrypt@@QAE@ABV01@@Z 00485e50 f   taocrypt:ripemd.obj
 0001:00084eb0       ?Transform@RIPEMD160@TaoCrypt@@EAEXXZ 00485eb0 f   taocrypt:ripemd.obj
 0001:00086990       ?AsmTransform@RIPEMD160@TaoCrypt@@AAEXPBEI@Z 00487990 f   taocrypt:ripemd.obj
 0001:000879b0       ?Swap@RIPEMD160@TaoCrypt@@QAEXAAV12@@Z 004889b0 f   taocrypt:ripemd.obj
 0001:00087a10       ?Update@RIPEMD160@TaoCrypt@@UAEXPBEI@Z 00488a10 f   taocrypt:ripemd.obj
 0001:00087ae0       ??4RIPEMD160@TaoCrypt@@QAEAAV01@ABV01@@Z 00488ae0 f   taocrypt:ripemd.obj
 0001:00087b10       ?XorWords@TaoCrypt@@YAXPAIPBII@Z 00488b10 f i taocrypt:misc.obj
 0001:00087b40       ?xorbuf@TaoCrypt@@YAXPAEPBEI@Z 00488b40 f   taocrypt:misc.obj
 0001:00087b90       ?BytePrecision@TaoCrypt@@YAII@Z 00488b90 f   taocrypt:misc.obj
 0001:00087bc0       ?BitPrecision@TaoCrypt@@YAII@Z 00488bc0 f   taocrypt:misc.obj
 0001:00087c00       ?Crop@TaoCrypt@@YAIII@Z    00488c00 f   taocrypt:misc.obj
 0001:00087c20       ?HaveCpuId@TaoCrypt@@YA_NXZ 00488c20 f   taocrypt:misc.obj
 0001:00087ca0       ?CpuId@TaoCrypt@@YAXIPAI@Z 00488ca0 f   taocrypt:misc.obj
 0001:00087cc0       ?IsPentium@TaoCrypt@@YA_NXZ 00488cc0 f   taocrypt:misc.obj
 0001:00087de0       ?ReverseDir@TaoCrypt@@YA?AW4CipherDir@1@W421@@Z 00488de0 f i taocrypt:des.obj
 0001:00087df0       ?UnalignedGetWordNonTemplate@TaoCrypt@@YAIW4ByteOrder@1@PBEPAI@Z 00488df0 f i taocrypt:des.obj
 0001:00087e30       ?UnalignedPutWord@TaoCrypt@@YAXW4ByteOrder@1@PAEIPBE@Z 00488e30 f i taocrypt:des.obj
 0001:00087f90       ?RawProcessBlock@BasicDES@TaoCrypt@@QBEXAAI0@Z 00488f90 f   taocrypt:des.obj
 0001:000880d0       ?AsmProcess@DES_EDE3@TaoCrypt@@ABEXPBEPAEPAX@Z 004890d0 f   taocrypt:des.obj
 0001:00089700       ??0?$PutBlock@IU?$EnumToType@W4ByteOrder@TaoCrypt@@$00@TaoCrypt@@$00@TaoCrypt@@QAE@PBXPAX@Z 0048a700 f i taocrypt:des.obj
 0001:00089720       ??0?$GetBlock@IU?$EnumToType@W4ByteOrder@TaoCrypt@@$00@TaoCrypt@@$00@TaoCrypt@@QAE@PBX@Z 0048a720 f i taocrypt:des.obj
 0001:00089730       ?ToEnum@?$EnumToType@W4ByteOrder@TaoCrypt@@$00@TaoCrypt@@SA?AW4ByteOrder@2@XZ 0048a730 f i taocrypt:des.obj
 0001:00089740       ??$UnalignedGetWord@I@TaoCrypt@@YAIW4ByteOrder@0@PBEPAI@Z 0048a740 f i taocrypt:des.obj
 0001:00089780       ?SetKey@BasicDES@TaoCrypt@@QAEXPBEIW4CipherDir@2@@Z 0048a780 f   taocrypt:des.obj
 0001:00089b60       ?SetKey@DES_EDE2@TaoCrypt@@QAEXPBEIW4CipherDir@2@@Z 0048ab60 f   taocrypt:des.obj
 0001:00089ba0       ?SetKey@DES_EDE3@TaoCrypt@@QAEXPBEIW4CipherDir@2@@Z 0048aba0 f   taocrypt:des.obj
 0001:00089c10       ?Process@DES_EDE3@TaoCrypt@@UAEXPAEPBEI@Z 0048ac10 f   taocrypt:des.obj
 0001:00089d50       ?Get@?$BlockGetAndPut@IU?$EnumToType@W4ByteOrder@TaoCrypt@@$00@TaoCrypt@@$00@TaoCrypt@@SA?AV?$GetBlock@IU?$EnumToType@W4ByteOrder@TaoCrypt@@$00@TaoCrypt@@$00@2@PBX@Z 0048ad50 f i taocrypt:des.obj
 0001:00089d60       ??$ByteReverseIf@I@TaoCrypt@@YAIIW4ByteOrder@0@@Z 0048ad60 f i taocrypt:des.obj
 0001:00089d90       ??$GetWord@I@TaoCrypt@@YAI_NW4ByteOrder@0@PBE@Z 0048ad90 f i taocrypt:des.obj
 0001:00089e00       ??$PutWord@I@TaoCrypt@@YAX_NW4ByteOrder@0@PAEIPBE@Z 0048ae00 f i taocrypt:des.obj
 0001:00089ea0       ??$?RI@?$GetBlock@IU?$EnumToType@W4ByteOrder@TaoCrypt@@$00@TaoCrypt@@$00@TaoCrypt@@QAEAAV01@AAI@Z 0048aea0 f i taocrypt:des.obj
 0001:00089ed0       ??$?RI@?$PutBlock@IU?$EnumToType@W4ByteOrder@TaoCrypt@@$00@TaoCrypt@@$00@TaoCrypt@@QAEAAV01@I@Z 0048aed0 f i taocrypt:des.obj
 0001:00089f30       ?ProcessAndXorBlock@DES@TaoCrypt@@EBEXPBE0PAE@Z 0048af30 f   taocrypt:des.obj
 0001:00089fd0       ?ProcessAndXorBlock@DES_EDE2@TaoCrypt@@EBEXPBE0PAE@Z 0048afd0 f   taocrypt:des.obj
 0001:0008a0a0       ?ProcessAndXorBlock@DES_EDE3@TaoCrypt@@EBEXPBE0PAE@Z 0048b0a0 f   taocrypt:des.obj
 0001:0008a170       ?AsmEncrypt@AES@TaoCrypt@@ABEXPBEPAEPAX@Z 0048b170 f   taocrypt:aes.obj
 0001:0008a430       ?AsmDecrypt@AES@TaoCrypt@@ABEXPBEPAEPAX@Z 0048b430 f   taocrypt:aes.obj
 0001:0008a6f0       ??$IsPowerOf2@I@TaoCrypt@@YA_NI@Z 0048b6f0 f i taocrypt:aes.obj
 0001:0008a710       ??$ModPowerOf2@II@TaoCrypt@@YAIII@Z 0048b710 f i taocrypt:aes.obj
 0001:0008a720       ??$RoundDownToMultipleOf@I@TaoCrypt@@YAIII@Z 0048b720 f i taocrypt:aes.obj
 0001:0008a750       ?Process@AES@TaoCrypt@@UAEXPAEPBEI@Z 0048b750 f   taocrypt:aes.obj
 0001:0008a8f0       ??$RoundUpToMultipleOf@I@TaoCrypt@@YAIII@Z 0048b8f0 f i taocrypt:aes.obj
 0001:0008a920       ??$GetUserKey@I@TaoCrypt@@YAXW4ByteOrder@0@PAIIPBEI@Z 0048b920 f i taocrypt:aes.obj
 0001:0008a980       ?SetKey@AES@TaoCrypt@@QAEXPBEIW4CipherDir@2@@Z 0048b980 f   taocrypt:aes.obj
 0001:0008af70       ?encrypt@AES@TaoCrypt@@ABEXPBE0PAE@Z 0048bf70 f   taocrypt:aes.obj
 0001:0008b4c0       ?decrypt@AES@TaoCrypt@@ABEXPBE0PAE@Z 0048c4c0 f   taocrypt:aes.obj
 0001:0008ba20       ?ProcessAndXorBlock@AES@TaoCrypt@@EBEXPBE0PAE@Z 0048ca20 f   taocrypt:aes.obj
 0001:0008ba30       ?GenerateBlock@RandomNumberGenerator@TaoCrypt@@QAEXPAEI@Z 0048ca30 f   taocrypt:random.obj
 0001:0008ba60       ?GenerateByte@RandomNumberGenerator@TaoCrypt@@QAEEXZ 0048ca60 f   taocrypt:random.obj
 0001:0008ba80       ??0OS_Seed@TaoCrypt@@QAE@XZ 0048ca80 f   taocrypt:random.obj
 0001:0008bab0       ??1OS_Seed@TaoCrypt@@QAE@XZ 0048cab0 f   taocrypt:random.obj
 0001:0008bac0       ?GenerateSeed@OS_Seed@TaoCrypt@@QAEXPAEI@Z 0048cac0 f   taocrypt:random.obj
 0001:0008baf0       ??0RandomNumberGenerator@TaoCrypt@@QAE@XZ 0048caf0 f   taocrypt:random.obj
 0001:0008bb60       ?SetKey@ARC4@TaoCrypt@@QAEXPBEI@Z 0048cb60 f   taocrypt:arc4.obj
 0001:0008bbd0       ?MakeByte@?A0xa6332835@TaoCrypt@@YAIAAI0PAE@Z 0048cbd0 f i taocrypt:arc4.obj
 0001:0008bc20       ?AsmProcess@ARC4@TaoCrypt@@AAEXPAEPBEI@Z 0048cc20 f   taocrypt:arc4.obj
 0001:0008bcb0       ?Process@ARC4@TaoCrypt@@QAEXPAEPBEI@Z 0048ccb0 f   taocrypt:arc4.obj
 0001:0008bde0       ??0BER_Decoder@TaoCrypt@@QAE@AAVSource@1@@Z 0048cde0 f i taocrypt:dsa.obj
 0001:0008be00       ??1BER_Decoder@TaoCrypt@@UAE@XZ 0048ce00 f i taocrypt:dsa.obj
 0001:0008be10       ??_EBER_Decoder@TaoCrypt@@UAEPAXI@Z 0048ce10 f i taocrypt:dsa.obj
 0001:0008be10       ??_GBER_Decoder@TaoCrypt@@UAEPAXI@Z 0048ce10 f i taocrypt:dsa.obj
 0001:0008be30       ??0DSA_Private_Decoder@TaoCrypt@@QAE@AAVSource@1@@Z 0048ce30 f i taocrypt:dsa.obj
 0001:0008be50       ??1DSA_Private_Decoder@TaoCrypt@@UAE@XZ 0048ce50 f i taocrypt:dsa.obj
 0001:0008be60       ??0DSA_Public_Decoder@TaoCrypt@@QAE@AAVSource@1@@Z 0048ce60 f i taocrypt:dsa.obj
 0001:0008be80       ??1DSA_Public_Decoder@TaoCrypt@@UAE@XZ 0048ce80 f i taocrypt:dsa.obj
 0001:0008be90       ?Swap@DSA_PublicKey@TaoCrypt@@QAEXAAV12@@Z 0048ce90 f   taocrypt:dsa.obj
 0001:0008bed0       ?Initialize@DSA_PublicKey@TaoCrypt@@QAEXAAVSource@2@@Z 0048ced0 f   taocrypt:dsa.obj
 0001:0008bf00       ?Initialize@DSA_PublicKey@TaoCrypt@@QAEXABVInteger@2@000@Z 0048cf00 f   taocrypt:dsa.obj
 0001:0008bf40       ?GetModulus@DSA_PublicKey@TaoCrypt@@QBEABVInteger@2@XZ 0048cf40 f   taocrypt:dsa.obj
 0001:0008bf50       ?GetSubGroupOrder@DSA_PublicKey@TaoCrypt@@QBEABVInteger@2@XZ 0048cf50 f   taocrypt:dsa.obj
 0001:0008bf60       ?GetSubGroupGenerator@DSA_PublicKey@TaoCrypt@@QBEABVInteger@2@XZ 0048cf60 f   taocrypt:dsa.obj
 0001:0008bf70       ?GetPublicPart@DSA_PublicKey@TaoCrypt@@QBEABVInteger@2@XZ 0048cf70 f   taocrypt:dsa.obj
 0001:0008bf80       ?SetModulus@DSA_PublicKey@TaoCrypt@@QAEXABVInteger@2@@Z 0048cf80 f   taocrypt:dsa.obj
 0001:0008bf90       ?SetSubGroupOrder@DSA_PublicKey@TaoCrypt@@QAEXABVInteger@2@@Z 0048cf90 f   taocrypt:dsa.obj
 0001:0008bfa0       ?SetSubGroupGenerator@DSA_PublicKey@TaoCrypt@@QAEXABVInteger@2@@Z 0048cfa0 f   taocrypt:dsa.obj
 0001:0008bfb0       ?SetPublicPart@DSA_PublicKey@TaoCrypt@@QAEXABVInteger@2@@Z 0048cfb0 f   taocrypt:dsa.obj
 0001:0008bfc0       ?SignatureLength@DSA_PublicKey@TaoCrypt@@QBEIXZ 0048cfc0 f   taocrypt:dsa.obj
 0001:0008bfd0       ?Initialize@DSA_PrivateKey@TaoCrypt@@QAEXAAVSource@2@@Z 0048cfd0 f   taocrypt:dsa.obj
 0001:0008c000       ?Initialize@DSA_PrivateKey@TaoCrypt@@QAEXABVInteger@2@0000@Z 0048d000 f   taocrypt:dsa.obj
 0001:0008c030       ?GetPrivatePart@DSA_PrivateKey@TaoCrypt@@QBEABVInteger@2@XZ 0048d030 f   taocrypt:dsa.obj
 0001:0008c040       ?SetPrivatePart@DSA_PrivateKey@TaoCrypt@@QAEXABVInteger@2@@Z 0048d040 f   taocrypt:dsa.obj
 0001:0008c050       ?GetR@DSA_Signer@TaoCrypt@@QBEABVInteger@2@XZ 0048d050 f   taocrypt:dsa.obj
 0001:0008c060       ?GetS@DSA_Signer@TaoCrypt@@QBEABVInteger@2@XZ 0048d060 f   taocrypt:dsa.obj
 0001:0008c070       ?GetR@DSA_Verifier@TaoCrypt@@QBEABVInteger@2@XZ 0048d070 f   taocrypt:dsa.obj
 0001:0008c080       ?GetS@DSA_Verifier@TaoCrypt@@QBEABVInteger@2@XZ 0048d080 f   taocrypt:dsa.obj
 0001:0008c090       ??_1Integer@TaoCrypt@@QAEAAV01@ABV01@@Z 0048d090 f i taocrypt:dsa.obj
 0001:0008c0d0       ??_GDSA_Private_Decoder@TaoCrypt@@UAEPAXI@Z 0048d0d0 f i taocrypt:dsa.obj
 0001:0008c0d0       ??_EDSA_Private_Decoder@TaoCrypt@@UAEPAXI@Z 0048d0d0 f i taocrypt:dsa.obj
 0001:0008c0f0       ??_EDSA_Public_Decoder@TaoCrypt@@UAEPAXI@Z 0048d0f0 f i taocrypt:dsa.obj
 0001:0008c0f0       ??_GDSA_Public_Decoder@TaoCrypt@@UAEPAXI@Z 0048d0f0 f i taocrypt:dsa.obj
 0001:0008c110       ??0DSA_PublicKey@TaoCrypt@@QAE@ABV01@@Z 0048d110 f   taocrypt:dsa.obj
 0001:0008c150       ??4DSA_PublicKey@TaoCrypt@@QAEAAV01@ABV01@@Z 0048d150 f   taocrypt:dsa.obj
 0001:0008c1d0       ??0DSA_PublicKey@TaoCrypt@@QAE@AAVSource@1@@Z 0048d1d0 f   taocrypt:dsa.obj
 0001:0008c210       ??0DSA_PrivateKey@TaoCrypt@@QAE@AAVSource@1@@Z 0048d210 f   taocrypt:dsa.obj
 0001:0008c250       ??0DSA_Signer@TaoCrypt@@QAE@ABVDSA_PrivateKey@1@@Z 0048d250 f   taocrypt:dsa.obj
 0001:0008c270       ?Sign@DSA_Signer@TaoCrypt@@QAEIPBEPAEAAVRandomNumberGenerator@2@@Z 0048d270 f   taocrypt:dsa.obj
 0001:0008c4d0       ??0DSA_Verifier@TaoCrypt@@QAE@ABVDSA_PublicKey@1@@Z 0048d4d0 f   taocrypt:dsa.obj
 0001:0008c4f0       ?Verify@DSA_Verifier@TaoCrypt@@QAE_NPBE0@Z 0048d4f0 f   taocrypt:dsa.obj
 0001:0008c830       ??0DH_Decoder@TaoCrypt@@QAE@AAVSource@1@@Z 0048d830 f i taocrypt:dh.obj
 0001:0008c850       ??1DH_Decoder@TaoCrypt@@UAE@XZ 0048d850 f i taocrypt:dh.obj
 0001:0008c860       ?DiscreteLogWorkFactor@?A0x4bc8cc01@TaoCrypt@@YAII@Z 0048d860 f   taocrypt:dh.obj
 0001:0008c8e0       ?Initialize@DH@TaoCrypt@@QAEXAAVSource@2@@Z 0048d8e0 f   taocrypt:dh.obj
 0001:0008c910       ??$min@VInteger@TaoCrypt@@@TaoCrypt@@YAABVInteger@0@ABV10@0@Z 0048d910 f i taocrypt:dh.obj
 0001:0008c930       ??_EDH_Decoder@TaoCrypt@@UAEPAXI@Z 0048d930 f i taocrypt:dh.obj
 0001:0008c930       ??_GDH_Decoder@TaoCrypt@@UAEPAXI@Z 0048d930 f i taocrypt:dh.obj
 0001:0008c950       ?GeneratePrivate@DH@TaoCrypt@@AAEXAAVRandomNumberGenerator@2@PAE@Z 0048d950 f   taocrypt:dh.obj
 0001:0008ca30       ?GeneratePublic@DH@TaoCrypt@@AAEXPBEPAE@Z 0048da30 f   taocrypt:dh.obj
 0001:0008cab0       ?Agree@DH@TaoCrypt@@QAEXPAEPBE1I@Z 0048dab0 f   taocrypt:dh.obj
 0001:0008cb70       ??0DH@TaoCrypt@@QAE@AAVSource@1@@Z 0048db70 f   taocrypt:dh.obj
 0001:0008cba0       ?GenerateKeyPair@DH@TaoCrypt@@QAEXAAVRandomNumberGenerator@2@PAE1@Z 0048dba0 f   taocrypt:dh.obj
 0001:0008cbd0       ??0RSA_Private_Decoder@TaoCrypt@@QAE@AAVSource@1@@Z 0048dbd0 f i taocrypt:rsa.obj
 0001:0008cbf0       ??1RSA_Private_Decoder@TaoCrypt@@UAE@XZ 0048dbf0 f i taocrypt:rsa.obj
 0001:0008cc00       ??0RSA_Public_Decoder@TaoCrypt@@QAE@AAVSource@1@@Z 0048dc00 f i taocrypt:rsa.obj
 0001:0008cc20       ??1RSA_Public_Decoder@TaoCrypt@@UAE@XZ 0048dc20 f i taocrypt:rsa.obj
 0001:0008cc30       ?Initialize@RSA_PublicKey@TaoCrypt@@QAEXAAVSource@2@@Z 0048dc30 f   taocrypt:rsa.obj
 0001:0008cc60       ?Initialize@RSA_PrivateKey@TaoCrypt@@QAEXAAVSource@2@@Z 0048dc60 f   taocrypt:rsa.obj
 0001:0008cc90       ?Pad@RSA_BlockType2@TaoCrypt@@QBEXPBEIPAEIAAVRandomNumberGenerator@2@@Z 0048dc90 f   taocrypt:rsa.obj
 0001:0008cd00       ?Pad@RSA_BlockType1@TaoCrypt@@QBEXPBEIPAEIAAVRandomNumberGenerator@2@@Z 0048dd00 f   taocrypt:rsa.obj
 0001:0008cd60       ??_GRSA_Private_Decoder@TaoCrypt@@UAEPAXI@Z 0048dd60 f i taocrypt:rsa.obj
 0001:0008cd60       ??_ERSA_Private_Decoder@TaoCrypt@@UAEPAXI@Z 0048dd60 f i taocrypt:rsa.obj
 0001:0008cd80       ??_ERSA_Public_Decoder@TaoCrypt@@UAEPAXI@Z 0048dd80 f i taocrypt:rsa.obj
 0001:0008cd80       ??_GRSA_Public_Decoder@TaoCrypt@@UAEPAXI@Z 0048dd80 f i taocrypt:rsa.obj
 0001:0008cda0       ?ApplyFunction@RSA_PublicKey@TaoCrypt@@QBE?AVInteger@2@ABV32@@Z 0048dda0 f   taocrypt:rsa.obj
 0001:0008cdc0       ??0RSA_PublicKey@TaoCrypt@@QAE@AAVSource@1@@Z 0048ddc0 f   taocrypt:rsa.obj
 0001:0008cdf0       ?CalculateInverse@RSA_PrivateKey@TaoCrypt@@QBE?AVInteger@2@AAVRandomNumberGenerator@2@ABV32@@Z 0048ddf0 f   taocrypt:rsa.obj
 0001:0008cf70       ??0RSA_PrivateKey@TaoCrypt@@QAE@AAVSource@1@@Z 0048df70 f   taocrypt:rsa.obj
 0001:0008cfd0       ?UnPad@RSA_BlockType2@TaoCrypt@@QBEIPBEIPAE@Z 0048dfd0 f   taocrypt:rsa.obj
 0001:0008d050       ?UnPad@RSA_BlockType1@TaoCrypt@@QBEIPBEIPAE@Z 0048e050 f   taocrypt:rsa.obj
 0001:0008d0d0       ?SSL_Decrypt@TaoCrypt@@YAIABVRSA_PublicKey@1@PBEPAE@Z 0048e0d0 f   taocrypt:rsa.obj
 0001:0008d1c0       ??0PKCS12_Decoder@TaoCrypt@@QAE@AAVSource@1@@Z 0048e1c0 f i taocrypt:asn.obj
 0001:0008d1e0       ??1PKCS12_Decoder@TaoCrypt@@UAE@XZ 0048e1e0 f i taocrypt:asn.obj
 0001:0008d1f0       ?GetPublicKey@Signer@TaoCrypt@@QBEABVPublicKey@2@XZ 0048e1f0 f i taocrypt:asn.obj
 0001:0008d200       ?GetHash@Signer@TaoCrypt@@QBEPBEXZ 0048e200 f i taocrypt:asn.obj
 0001:0008d210       ??0DER_Encoder@TaoCrypt@@QAE@XZ 0048e210 f i taocrypt:asn.obj
 0001:0008d220       ??1DER_Encoder@TaoCrypt@@UAE@XZ 0048e220 f i taocrypt:asn.obj
 0001:0008d230       ??_GDER_Encoder@TaoCrypt@@UAEPAXI@Z 0048e230 f i taocrypt:asn.obj
 0001:0008d230       ??_EDER_Encoder@TaoCrypt@@UAEPAXI@Z 0048e230 f i taocrypt:asn.obj
 0001:0008d250       ?get_index@Source@TaoCrypt@@QBEIXZ 0048e250 f i taocrypt:asn.obj
 0001:0008d260       ?set_index@Source@TaoCrypt@@QAEXI@Z 0048e260 f i taocrypt:asn.obj
 0001:0008d270       ?advance@Source@TaoCrypt@@QAEXI@Z 0048e270 f i taocrypt:asn.obj
 0001:0008d280       ?GetError@Source@TaoCrypt@@QAE?AUError@2@XZ 0048e280 f i taocrypt:asn.obj
 0001:0008d290       ?SetModulus@RSA_PublicKey@TaoCrypt@@QAEXABVInteger@2@@Z 0048e290 f i taocrypt:asn.obj
 0001:0008d2a0       ?SetPublicExponent@RSA_PublicKey@TaoCrypt@@QAEXABVInteger@2@@Z 0048e2a0 f i taocrypt:asn.obj
 0001:0008d2b0       ?SetPrime1@RSA_PrivateKey@TaoCrypt@@QAEXABVInteger@2@@Z 0048e2b0 f i taocrypt:asn.obj
 0001:0008d2c0       ?SetPrime2@RSA_PrivateKey@TaoCrypt@@QAEXABVInteger@2@@Z 0048e2c0 f i taocrypt:asn.obj
 0001:0008d2d0       ?SetPrivateExponent@RSA_PrivateKey@TaoCrypt@@QAEXABVInteger@2@@Z 0048e2d0 f i taocrypt:asn.obj
 0001:0008d2e0       ?SetModPrime1PrivateExponent@RSA_PrivateKey@TaoCrypt@@QAEXABVInteger@2@@Z 0048e2e0 f i taocrypt:asn.obj
 0001:0008d2f0       ?SetModPrime2PrivateExponent@RSA_PrivateKey@TaoCrypt@@QAEXABVInteger@2@@Z 0048e2f0 f i taocrypt:asn.obj
 0001:0008d300       ?SetMultiplicativeInverseOfPrime2ModPrime1@RSA_PrivateKey@TaoCrypt@@QAEXABVInteger@2@@Z 0048e300 f i taocrypt:asn.obj
 0001:0008d330       ??O?A0x98dd2919@TaoCrypt@@YA_NAAUtm@@0@Z 0048e330 f   taocrypt:asn.obj
 0001:0008d3b0       ??M?A0x98dd2919@TaoCrypt@@YA_NAAUtm@@0@Z 0048e3b0 f   taocrypt:asn.obj
 0001:0008d3d0       ?btoi@?A0x98dd2919@TaoCrypt@@YAIE@Z 0048e3d0 f   taocrypt:asn.obj
 0001:0008d3e0       ?GetTime@?A0x98dd2919@TaoCrypt@@YAXAAHPBE0@Z 0048e3e0 f   taocrypt:asn.obj
 0001:0008d420       ?ValidateDate@?A0x98dd2919@TaoCrypt@@YA_NPBEEW4DateType@CertDecoder@2@@Z 0048e420 f   taocrypt:asn.obj
 0001:0008d570       ?SetLength@TaoCrypt@@YAIIPAE@Z 0048e570 f   taocrypt:asn.obj
 0001:0008d5e0       ?SetSize@PublicKey@TaoCrypt@@QAEXI@Z 0048e5e0 f   taocrypt:asn.obj
 0001:0008d600       ?SetKey@PublicKey@TaoCrypt@@QAEXPBE@Z 0048e600 f   taocrypt:asn.obj
 0001:0008d620       ?GetError@BER_Decoder@TaoCrypt@@QAE?AUError@2@XZ 0048e620 f   taocrypt:asn.obj
 0001:0008d630       ?GetInteger@BER_Decoder@TaoCrypt@@QAEAAVInteger@2@AAV32@@Z 0048e630 f   taocrypt:asn.obj
 0001:0008d660       ??1Signature_Encoder@TaoCrypt@@UAE@XZ 0048e660 f i taocrypt:asn.obj
 0001:0008d670       ?SetDigest@Signature_Encoder@TaoCrypt@@AAEIPBEIPAE@Z 0048e670 f   taocrypt:asn.obj
 0001:0008d6a0       ?SetSequence@TaoCrypt@@YAIIPAE@Z 0048e6a0 f   taocrypt:asn.obj
 0001:0008d6c0       ?EncodeDSA_Signature@TaoCrypt@@YAIABVInteger@1@0PAE@Z 0048e6c0 f   taocrypt:asn.obj
 0001:0008d7d0       ??A?$Block@EV?$AllocatorWithCleanup@E@TaoCrypt@@@TaoCrypt@@QBEABEI@Z 0048e7d0 f i taocrypt:asn.obj
 0001:0008d7e0       ??0?$auto_ptr@VHASH@TaoCrypt@@@mySTL@@QAE@PAVHASH@TaoCrypt@@@Z 0048e7e0 f i taocrypt:asn.obj
 0001:0008d7f0       ??C?$auto_ptr@VHASH@TaoCrypt@@@mySTL@@QBEPAVHASH@TaoCrypt@@XZ 0048e7f0 f i taocrypt:asn.obj
 0001:0008d800       ??$tcDelete@VHASH@TaoCrypt@@@TaoCrypt@@YAXPAVHASH@0@@Z 0048e800 f i taocrypt:asn.obj
 0001:0008d820       ??_EPKCS12_Decoder@TaoCrypt@@UAEPAXI@Z 0048e820 f i taocrypt:asn.obj
 0001:0008d820       ??_GPKCS12_Decoder@TaoCrypt@@UAEPAXI@Z 0048e820 f i taocrypt:asn.obj
 0001:0008d840       ??1PublicKey@TaoCrypt@@QAE@XZ 0048e840 f i taocrypt:asn.obj
 0001:0008d850       ?get_current@Source@TaoCrypt@@QBEPBEXZ 0048e850 f i taocrypt:asn.obj
 0001:0008d860       ?add@Source@TaoCrypt@@QAEXPBEI@Z 0048e860 f i taocrypt:asn.obj
 0001:0008d890       ?GetLength@TaoCrypt@@YAIAAVSource@1@@Z 0048e890 f   taocrypt:asn.obj
 0001:0008d8e0       ??0PublicKey@TaoCrypt@@QAE@PBEI@Z 0048e8e0 f   taocrypt:asn.obj
 0001:0008d910       ??0Signer@TaoCrypt@@QAE@PBEIPBD0@Z 0048e910 f   taocrypt:asn.obj
 0001:0008d990       ??1Signer@TaoCrypt@@QAE@XZ 0048e990 f   taocrypt:asn.obj
 0001:0008d9a0       ?GetSequence@BER_Decoder@TaoCrypt@@QAEIXZ 0048e9a0 f   taocrypt:asn.obj
 0001:0008d9e0       ?GetSet@BER_Decoder@TaoCrypt@@QAEIXZ 0048e9e0 f   taocrypt:asn.obj
 0001:0008da20       ?GetVersion@BER_Decoder@TaoCrypt@@QAEIXZ 0048ea20 f   taocrypt:asn.obj
 0001:0008da90       ?GetExplicitVersion@BER_Decoder@TaoCrypt@@QAEIXZ 0048ea90 f   taocrypt:asn.obj
 0001:0008dad0       ?Decode@RSA_Private_Decoder@TaoCrypt@@QAEXAAVRSA_PrivateKey@2@@Z 0048ead0 f   taocrypt:asn.obj
 0001:0008dc60       ?ReadHeader@RSA_Private_Decoder@TaoCrypt@@EAEXXZ 0048ec60 f   taocrypt:asn.obj
 0001:0008dc70       ?Decode@DSA_Private_Decoder@TaoCrypt@@QAEXAAVDSA_PrivateKey@2@@Z 0048ec70 f   taocrypt:asn.obj
 0001:0008dd80       ?ReadHeader@DSA_Private_Decoder@TaoCrypt@@EAEXXZ 0048ed80 f   taocrypt:asn.obj
 0001:0008dd90       ?Decode@RSA_Public_Decoder@TaoCrypt@@QAEXAAVRSA_PublicKey@2@@Z 0048ed90 f   taocrypt:asn.obj
 0001:0008de10       ?ReadHeader@RSA_Public_Decoder@TaoCrypt@@EAEXXZ 0048ee10 f   taocrypt:asn.obj
 0001:0008de20       ?Decode@DSA_Public_Decoder@TaoCrypt@@QAEXAAVDSA_PublicKey@2@@Z 0048ee20 f   taocrypt:asn.obj
 0001:0008df00       ?ReadHeader@DSA_Public_Decoder@TaoCrypt@@EAEXXZ 0048ef00 f   taocrypt:asn.obj
 0001:0008df10       ?ReadHeader@DH_Decoder@TaoCrypt@@EAEXXZ 0048ef10 f   taocrypt:asn.obj
 0001:0008df20       ?Decode@DH_Decoder@TaoCrypt@@QAEXAAVDH@2@@Z 0048ef20 f   taocrypt:asn.obj
 0001:0008dfa0       ??1CertDecoder@TaoCrypt@@UAE@XZ 0048efa0 f   taocrypt:asn.obj
 0001:0008dfd0       ?ReadHeader@CertDecoder@TaoCrypt@@EAEXXZ 0048efd0 f   taocrypt:asn.obj
 0001:0008e040       ?StoreKey@CertDecoder@TaoCrypt@@AAEXXZ 0048f040 f   taocrypt:asn.obj
 0001:0008e0b0       ?GetAlgoId@CertDecoder@TaoCrypt@@AAEIXZ 0048f0b0 f   taocrypt:asn.obj
 0001:0008e180       ?GetSignature@CertDecoder@TaoCrypt@@AAEIXZ 0048f180 f   taocrypt:asn.obj
 0001:0008e220       ?GetDigest@CertDecoder@TaoCrypt@@AAEIXZ 0048f220 f   taocrypt:asn.obj
 0001:0008e290       ?AddTag@CertDecoder@TaoCrypt@@AAEPADPADPBD1II@Z 0048f290 f   taocrypt:asn.obj
 0001:0008e2e0       ?GetName@CertDecoder@TaoCrypt@@AAEXW4NameType@12@@Z 0048f2e0 f   taocrypt:asn.obj
 0001:0008e530       ?GetDate@CertDecoder@TaoCrypt@@AAEXW4DateType@12@@Z 0048f530 f   taocrypt:asn.obj
 0001:0008e680       ?GetValidity@CertDecoder@TaoCrypt@@AAEXXZ 0048f680 f   taocrypt:asn.obj
 0001:0008e6b0       ?SetAlgoID@DER_Encoder@TaoCrypt@@QAEIW4HashType@2@PAE@Z 0048f6b0 f   taocrypt:asn.obj
 0001:0008e790       ?EncodeDSA_Signature@TaoCrypt@@YAIPBEPAE@Z 0048f790 f   taocrypt:asn.obj
 0001:0008e800       ?Decode@PKCS12_Decoder@TaoCrypt@@QAEXXZ 0048f800 f   taocrypt:asn.obj
 0001:0008e860       ?ReadHeader@PKCS12_Decoder@TaoCrypt@@EAEXXZ 0048f860 f   taocrypt:asn.obj
 0001:0008e870       ?GetPKCS_Cert@TaoCrypt@@YAHPBDAAVSource@1@@Z 0048f870 f   taocrypt:asn.obj
 0001:0008e890       ?Swap@?$Block@EV?$AllocatorWithCleanup@E@TaoCrypt@@@TaoCrypt@@QAEXAAV12@@Z 0048f890 f i taocrypt:asn.obj
 0001:0008e8b0       ?Destroy@?$auto_ptr@VHASH@TaoCrypt@@@mySTL@@AAEXXZ 0048f8b0 f i taocrypt:asn.obj
 0001:0008e8c0       ?Swap@Source@TaoCrypt@@QAEXAAV12@@Z 0048f8c0 f i taocrypt:asn.obj
 0001:0008e8f0       ??_ECertDecoder@TaoCrypt@@UAEPAXI@Z 0048f8f0 f i taocrypt:asn.obj
 0001:0008e8f0       ??_GCertDecoder@TaoCrypt@@UAEPAXI@Z 0048f8f0 f i taocrypt:asn.obj
 0001:0008e910       ??1?$auto_ptr@VHASH@TaoCrypt@@@mySTL@@QAE@XZ 0048f910 f i taocrypt:asn.obj
 0001:0008e920       ?reset@?$auto_ptr@VHASH@TaoCrypt@@@mySTL@@QAEXPAVHASH@TaoCrypt@@@Z 0048f920 f i taocrypt:asn.obj
 0001:0008e940       ?AddToEnd@PublicKey@TaoCrypt@@QAEXPBEI@Z 0048f940 f   taocrypt:asn.obj
 0001:0008e9a0       ?AddDSA@CertDecoder@TaoCrypt@@AAEXXZ 0048f9a0 f   taocrypt:asn.obj
 0001:0008ea60       ?DecodeDSA_Signature@TaoCrypt@@YAIPAEPBEI@Z 0048fa60 f   taocrypt:asn.obj
 0001:0008ec10       ?GetCert@TaoCrypt@@YAHAAVSource@1@@Z 0048fc10 f   taocrypt:asn.obj
 0001:0008ed00       ?CleanGrow@?$Block@EV?$AllocatorWithCleanup@E@TaoCrypt@@@TaoCrypt@@QAEXI@Z 0048fd00 f i taocrypt:asn.obj
 0001:0008ed40       ?grow@Source@TaoCrypt@@QAEXI@Z 0048fd40 f i taocrypt:asn.obj
 0001:0008ed80       ?GetKey@CertDecoder@TaoCrypt@@AAEXXZ 0048fd80 f   taocrypt:asn.obj
 0001:0008ee30       ??0Signature_Encoder@TaoCrypt@@QAE@PBEIW4HashType@1@AAVSource@1@@Z 0048fe30 f   taocrypt:asn.obj
 0001:0008ef40       ??_GSignature_Encoder@TaoCrypt@@UAEPAXI@Z 0048ff40 f i taocrypt:asn.obj
 0001:0008ef40       ??_ESignature_Encoder@TaoCrypt@@UAEPAXI@Z 0048ff40 f i taocrypt:asn.obj
 0001:0008ef60       ??0Source@TaoCrypt@@QAE@I@Z 0048ff60 f i taocrypt:asn.obj
 0001:0008efc0       ?DecodeToKey@CertDecoder@TaoCrypt@@QAEXXZ 0048ffc0 f   taocrypt:asn.obj
 0001:0008f000       ?ConfirmSignature@CertDecoder@TaoCrypt@@AAE_NAAVSource@2@@Z 00490000 f   taocrypt:asn.obj
 0001:0008f2f0       ?ValidateSelfSignature@CertDecoder@TaoCrypt@@AAE_NXZ 004902f0 f   taocrypt:asn.obj
 0001:0008f370       ?ValidateSignature@CertDecoder@TaoCrypt@@AAE_NPAV?$list@PAVSigner@TaoCrypt@@@mySTL@@@Z 00490370 f   taocrypt:asn.obj
 0001:0008f4b0       ?Decode@CertDecoder@TaoCrypt@@AAEXPAV?$list@PAVSigner@TaoCrypt@@@mySTL@@W4CertType@12@@Z 004904b0 f   taocrypt:asn.obj
 0001:0008f530       ??0CertDecoder@TaoCrypt@@QAE@AAVSource@1@_NPAV?$list@PAVSigner@TaoCrypt@@@mySTL@@1W4CertType@01@@Z 00490530 f   taocrypt:asn.obj
 0001:0008f590       ?GetCompareHash@CertDecoder@TaoCrypt@@AAEXPBEIPAEI@Z 00490590 f   taocrypt:asn.obj
 0001:0008f6a0       ??1FileSource@TaoCrypt@@QAE@XZ 004906a0 f   taocrypt:file.obj
 0001:0008f6b0       ?size@FileSource@TaoCrypt@@QAEI_N@Z 004906b0 f   taocrypt:file.obj
 0001:0008f720       ?size_left@FileSource@TaoCrypt@@AAEIXZ 00490720 f   taocrypt:file.obj
 0001:0008f730       ??1FileSink@TaoCrypt@@QAE@XZ 00490730 f   taocrypt:file.obj
 0001:0008f740       ?put@FileSink@TaoCrypt@@AAEXAAVSource@2@@Z 00490740 f   taocrypt:file.obj
 0001:0008f760       ??0FileSink@TaoCrypt@@QAE@PBDAAVSource@1@@Z 00490760 f   taocrypt:file.obj
 0001:0008f790       ?reset@Source@TaoCrypt@@QAEXAAV?$Block@EV?$AllocatorWithCleanup@E@TaoCrypt@@@2@@Z 00490790 f   taocrypt:file.obj
 0001:0008f7c0       ?get@FileSource@TaoCrypt@@AAEIAAVSource@2@@Z 004907c0 f   taocrypt:file.obj
 0001:0008f830       ??0FileSource@TaoCrypt@@QAE@PBDAAVSource@1@@Z 00490830 f   taocrypt:file.obj
 0001:0008f860       ?Double@AbstractGroup@TaoCrypt@@UBEABVInteger@2@ABV32@@Z 00490860 f   taocrypt:algebra.obj
 0001:0008f870       ?Accumulate@AbstractGroup@TaoCrypt@@UBEAAVInteger@2@AAV32@ABV32@@Z 00490870 f   taocrypt:algebra.obj
 0001:0008f890       ?Reduce@AbstractGroup@TaoCrypt@@UBEAAVInteger@2@AAV32@ABV32@@Z 00490890 f   taocrypt:algebra.obj
 0001:0008f8b0       ?Square@AbstractRing@TaoCrypt@@UBEABVInteger@2@ABV32@@Z 004908b0 f   taocrypt:algebra.obj
 0001:0008f8c0       ?FindNextWindow@WindowSlider@TaoCrypt@@QAEXXZ 004908c0 f i taocrypt:algebra.obj
 0001:0008f970       ?size@?$vector@VInteger@TaoCrypt@@@mySTL@@QBEIXZ 00490970 f i taocrypt:algebra.obj
 0001:0008f980       ??A?$vector@VInteger@TaoCrypt@@@mySTL@@QAEAAVInteger@TaoCrypt@@I@Z 00490980 f i taocrypt:algebra.obj
 0001:0008f990       ??A?$vector@V?$vector@VInteger@TaoCrypt@@@mySTL@@@mySTL@@QAEAAV?$vector@VInteger@TaoCrypt@@@1@I@Z 00490990 f i taocrypt:algebra.obj
 0001:0008f9a0       ??A?$vector@UWindowSlider@TaoCrypt@@@mySTL@@QAEAAUWindowSlider@TaoCrypt@@I@Z 004909a0 f i taocrypt:algebra.obj
 0001:0008f9b0       ?capacity@?$vector@UWindowSlider@TaoCrypt@@@mySTL@@QBEIXZ 004909b0 f i taocrypt:algebra.obj
 0001:0008f9d0       ?size@?$vector@UWindowSlider@TaoCrypt@@@mySTL@@QBEIXZ 004909d0 f i taocrypt:algebra.obj
 0001:0008f9f0       ??0?$vector_base@UWindowSlider@TaoCrypt@@@mySTL@@QAE@XZ 004909f0 f i taocrypt:algebra.obj
 0001:0008fa00       ??0?$vector_base@VInteger@TaoCrypt@@@mySTL@@QAE@XZ 00490a00 f i taocrypt:algebra.obj
 0001:0008fa10       ??$GetArrayMemory@VInteger@TaoCrypt@@@mySTL@@YAPAVInteger@TaoCrypt@@I@Z 00490a10 f i taocrypt:algebra.obj
 0001:0008fa20       ??$FreeArrayMemory@VInteger@TaoCrypt@@@mySTL@@YAXPAVInteger@TaoCrypt@@@Z 00490a20 f i taocrypt:algebra.obj
 0001:0008fa30       ??$GetArrayMemory@V?$vector@VInteger@TaoCrypt@@@mySTL@@@mySTL@@YAPAV?$vector@VInteger@TaoCrypt@@@0@I@Z 00490a30 f i taocrypt:algebra.obj
 0001:0008fa50       ??$FreeArrayMemory@V?$vector@VInteger@TaoCrypt@@@mySTL@@@mySTL@@YAXPAV?$vector@VInteger@TaoCrypt@@@0@@Z 00490a50 f i taocrypt:algebra.obj
 0001:0008fa60       ??$FreeArrayMemory@UWindowSlider@TaoCrypt@@@mySTL@@YAXPAUWindowSlider@TaoCrypt@@@Z 00490a60 f i taocrypt:algebra.obj
 0001:0008fa70       ??$swap@PAVInteger@TaoCrypt@@@mySTL@@YAXAAPAVInteger@TaoCrypt@@0@Z 00490a70 f i taocrypt:algebra.obj
 0001:0008fa90       ??$GetArrayMemory@UWindowSlider@TaoCrypt@@@mySTL@@YAPAUWindowSlider@TaoCrypt@@I@Z 00490a90 f i taocrypt:algebra.obj
 0001:0008fab0       ??$swap@PAUWindowSlider@TaoCrypt@@@mySTL@@YAXAAPAUWindowSlider@TaoCrypt@@0@Z 00490ab0 f i taocrypt:algebra.obj
 0001:0008fad0       ??$construct@VInteger@TaoCrypt@@V12@@mySTL@@YAXPAVInteger@TaoCrypt@@ABV12@@Z 00490ad0 f i taocrypt:algebra.obj
 0001:0008faf0       ?Subtract@AbstractGroup@TaoCrypt@@UBEABVInteger@2@ABV32@0@Z 00490af0 f   taocrypt:algebra.obj
 0001:0008fb40       ?Divide@AbstractRing@TaoCrypt@@UBEABVInteger@2@ABV32@0@Z 00490b40 f   taocrypt:algebra.obj
 0001:0008fb90       ?Mod@AbstractEuclideanDomain@TaoCrypt@@UBEABVInteger@2@ABV32@0@Z 00490b90 f   taocrypt:algebra.obj
 0001:0008fbe0       ?ScalarMultiply@AbstractGroup@TaoCrypt@@UBE?AVInteger@2@ABV32@0@Z 00490be0 f   taocrypt:algebra.obj
 0001:0008fc10       ??0WindowSlider@TaoCrypt@@QAE@ABVInteger@1@_NI@Z 00490c10 f i taocrypt:algebra.obj
 0001:0008fcc0       ??1WindowSlider@TaoCrypt@@QAE@XZ 00490cc0 f i taocrypt:algebra.obj
 0001:0008fcf0       ?Exponentiate@AbstractRing@TaoCrypt@@UBE?AVInteger@2@ABV32@0@Z 00490cf0 f   taocrypt:algebra.obj
 0001:0008fd20       ??0?$vector_base@VInteger@TaoCrypt@@@mySTL@@QAE@I@Z 00490d20 f i taocrypt:algebra.obj
 0001:0008fd50       ??1?$vector_base@VInteger@TaoCrypt@@@mySTL@@QAE@XZ 00490d50 f i taocrypt:algebra.obj
 0001:0008fd60       ??0?$vector_base@V?$vector@VInteger@TaoCrypt@@@mySTL@@@mySTL@@QAE@I@Z 00490d60 f i taocrypt:algebra.obj
 0001:0008fd90       ??1?$vector_base@V?$vector@VInteger@TaoCrypt@@@mySTL@@@mySTL@@QAE@XZ 00490d90 f i taocrypt:algebra.obj
 0001:0008fda0       ??1?$vector_base@UWindowSlider@TaoCrypt@@@mySTL@@QAE@XZ 00490da0 f i taocrypt:algebra.obj
 0001:0008fdb0       ?Swap@?$vector_base@VInteger@TaoCrypt@@@mySTL@@QAEXAAU12@@Z 00490db0 f i taocrypt:algebra.obj
 0001:0008fde0       ??0?$vector_base@UWindowSlider@TaoCrypt@@@mySTL@@QAE@I@Z 00490de0 f i taocrypt:algebra.obj
 0001:0008fe10       ?Swap@?$vector_base@UWindowSlider@TaoCrypt@@@mySTL@@QAEXAAU12@@Z 00490e10 f i taocrypt:algebra.obj
 0001:0008fe40       ??$uninit_fill_n@PAVInteger@TaoCrypt@@IV12@@mySTL@@YAPAVInteger@TaoCrypt@@PAV12@IABV12@@Z 00490e40 f i taocrypt:algebra.obj
 0001:0008fe80       ??$uninit_copy@PAVInteger@TaoCrypt@@PAV12@@mySTL@@YAPAVInteger@TaoCrypt@@PAV12@00@Z 00490e80 f i taocrypt:algebra.obj
 0001:0008fec0       ??0WindowSlider@TaoCrypt@@QAE@ABU01@@Z 00490ec0 f i taocrypt:algebra.obj
 0001:0008ff10       ??_GWindowSlider@TaoCrypt@@QAEPAXI@Z 00490f10 f i taocrypt:algebra.obj
 0001:0008ff50       ??0?$vector@VInteger@TaoCrypt@@@mySTL@@QAE@ABV01@@Z 00490f50 f i taocrypt:algebra.obj
 0001:0008ff90       ??0?$vector@VInteger@TaoCrypt@@@mySTL@@QAE@I@Z 00490f90 f i taocrypt:algebra.obj
 0001:0008fff0       ??0?$vector@UWindowSlider@TaoCrypt@@@mySTL@@QAE@XZ 00490ff0 f i taocrypt:algebra.obj
 0001:00090000       ??0?$vector@VInteger@TaoCrypt@@@mySTL@@QAE@XZ 00491000 f i taocrypt:algebra.obj
 0001:00090010       ?Swap@?$vector@VInteger@TaoCrypt@@@mySTL@@QAEXAAV12@@Z 00491010 f i taocrypt:algebra.obj
 0001:00090040       ??0?$vector@VInteger@TaoCrypt@@@mySTL@@AAE@IABV01@@Z 00491040 f i taocrypt:algebra.obj
 0001:000900b0       ?Swap@?$vector@UWindowSlider@TaoCrypt@@@mySTL@@QAEXAAV12@@Z 004910b0 f i taocrypt:algebra.obj
 0001:000900e0       ??$construct@UWindowSlider@TaoCrypt@@U12@@mySTL@@YAXPAUWindowSlider@TaoCrypt@@ABU12@@Z 004910e0 f i taocrypt:algebra.obj
 0001:00090100       ??$uninit_copy@PAUWindowSlider@TaoCrypt@@PAU12@@mySTL@@YAPAUWindowSlider@TaoCrypt@@PAU12@00@Z 00491100 f i taocrypt:algebra.obj
 0001:00090170       ??$destroy@VInteger@TaoCrypt@@@mySTL@@YAXPAVInteger@TaoCrypt@@@Z 00491170 f i taocrypt:algebra.obj
 0001:00090190       ??$construct@V?$vector@VInteger@TaoCrypt@@@mySTL@@V12@@mySTL@@YAXPAV?$vector@VInteger@TaoCrypt@@@0@ABV10@@Z 00491190 f i taocrypt:algebra.obj
 0001:000901e0       ??$destroy@UWindowSlider@TaoCrypt@@@mySTL@@YAXPAUWindowSlider@TaoCrypt@@@Z 004911e0 f i taocrypt:algebra.obj
 0001:00090210       ??0?$vector@UWindowSlider@TaoCrypt@@@mySTL@@AAE@IABV01@@Z 00491210 f i taocrypt:algebra.obj
 0001:00090290       ??$destroy@PAVInteger@TaoCrypt@@@mySTL@@YAXPAVInteger@TaoCrypt@@0@Z 00491290 f i taocrypt:algebra.obj
 0001:000902c0       ??$uninit_fill_n@PAV?$vector@VInteger@TaoCrypt@@@mySTL@@IV12@@mySTL@@YAPAV?$vector@VInteger@TaoCrypt@@@0@PAV10@IABV10@@Z 004912c0 f i taocrypt:algebra.obj
 0001:00090320       ??$destroy@PAUWindowSlider@TaoCrypt@@@mySTL@@YAXPAUWindowSlider@TaoCrypt@@0@Z 00491320 f i taocrypt:algebra.obj
 0001:00090360       ??1?$vector@VInteger@TaoCrypt@@@mySTL@@QAE@XZ 00491360 f i taocrypt:algebra.obj
 0001:00090380       ?resize@?$vector@VInteger@TaoCrypt@@@mySTL@@QAEXIABVInteger@TaoCrypt@@@Z 00491380 f i taocrypt:algebra.obj
 0001:00090420       ??0?$vector@V?$vector@VInteger@TaoCrypt@@@mySTL@@@mySTL@@QAE@I@Z 00491420 f i taocrypt:algebra.obj
 0001:00090490       ??1?$vector@UWindowSlider@TaoCrypt@@@mySTL@@QAE@XZ 00491490 f i taocrypt:algebra.obj
 0001:000904b0       ?push_back@?$vector@UWindowSlider@TaoCrypt@@@mySTL@@QAEXABUWindowSlider@TaoCrypt@@@Z 004914b0 f i taocrypt:algebra.obj
 0001:00090540       ?reserve@?$vector@UWindowSlider@TaoCrypt@@@mySTL@@QAEXI@Z 00491540 f i taocrypt:algebra.obj
 0001:000905b0       ??_G?$vector@VInteger@TaoCrypt@@@mySTL@@QAEPAXI@Z 004915b0 f i taocrypt:algebra.obj
 0001:000905e0       ?Gcd@AbstractEuclideanDomain@TaoCrypt@@UBEABVInteger@2@ABV32@0@Z 004915e0 f   taocrypt:algebra.obj
 0001:00090710       ?CascadeScalarMultiply@AbstractGroup@TaoCrypt@@UBE?AVInteger@2@ABV32@000@Z 00491710 f   taocrypt:algebra.obj
 0001:00090ba0       ?CascadeExponentiate@AbstractRing@TaoCrypt@@UBE?AVInteger@2@ABV32@000@Z 00491ba0 f   taocrypt:algebra.obj
 0001:00090bd0       ??$destroy@V?$vector@VInteger@TaoCrypt@@@mySTL@@@mySTL@@YAXPAV?$vector@VInteger@TaoCrypt@@@0@@Z 00491bd0 f i taocrypt:algebra.obj
 0001:00090bf0       ??$destroy@PAV?$vector@VInteger@TaoCrypt@@@mySTL@@@mySTL@@YAXPAV?$vector@VInteger@TaoCrypt@@@0@0@Z 00491bf0 f i taocrypt:algebra.obj
 0001:00090c30       ??1?$vector@V?$vector@VInteger@TaoCrypt@@@mySTL@@@mySTL@@QAE@XZ 00491c30 f i taocrypt:algebra.obj
 0001:00090c50       ?SimultaneousMultiply@AbstractGroup@TaoCrypt@@UBEXPAVInteger@2@ABV32@PBV32@I@Z 00491c50 f   taocrypt:algebra.obj
 0001:00090f50       ?SimultaneousExponentiate@AbstractRing@TaoCrypt@@UBEXPAVInteger@2@ABV32@PBV32@I@Z 00491f50 f   taocrypt:algebra.obj
 0001:00090f80       ?Init@MD2@TaoCrypt@@UAEXXZ 00491f80 f   taocrypt:md2.obj
 0001:00090fc0       ?Update@MD2@TaoCrypt@@UAEXPBEI@Z 00491fc0 f   taocrypt:md2.obj
 0001:00091160       ?Final@MD2@TaoCrypt@@UAEXPAE@Z 00492160 f   taocrypt:md2.obj
 0001:000911f0       ??0MD2@TaoCrypt@@QAE@XZ    004921f0 f   taocrypt:md2.obj
 0001:000912b0       ?getBlockSize@MD2@TaoCrypt@@UBEIXZ 004922b0 f i taocrypt:md2.obj
 0001:000912c0       ?getDigestSize@MD2@TaoCrypt@@UBEIXZ 004922c0 f i taocrypt:md2.obj
 0001:000912d0       ??1MD2@TaoCrypt@@UAE@XZ    004922d0 f i taocrypt:md2.obj
 0001:00091320       ??_EMD2@TaoCrypt@@UAEPAXI@Z 00492320 f i taocrypt:md2.obj
 0001:00091320       ??_GMD2@TaoCrypt@@UAEPAXI@Z 00492320 f i taocrypt:md2.obj
 0001:0009133e       _remove                    0049233e f   LIBCMT:unlink.obj
 0001:00091368       _unlink                    00492368 f   LIBCMT:unlink.obj
 0001:00091368       __unlink                   00492368 f   LIBCMT:unlink.obj
 0001:0009136d       _fdopen                    0049236d f   LIBCMT:fdopen.obj
 0001:0009136d       __fdopen                   0049236d f   LIBCMT:fdopen.obj
 0001:00091702       _putenv                    00492702 f   LIBCMT:putenv.obj
 0001:00091702       __putenv                   00492702 f   LIBCMT:putenv.obj
 0001:00091747       __putenv_s                 00492747 f   LIBCMT:putenv.obj
 0001:000917c0       _chdir                     004927c0 f   LIBCMT:chdir.obj
 0001:000917c0       __chdir                    004927c0 f   LIBCMT:chdir.obj
 0001:000918f0       __aullrem                  004928f0 f   LIBCMT:ullrem.obj
 0001:00091965       __aligned_offset_malloc    00492965 f   LIBCMT:align.obj
 0001:000919fe       __aligned_msize            004929fe f   LIBCMT:align.obj
 0001:00091a50       __aligned_free             00492a50 f   LIBCMT:align.obj
 0001:00091a65       __aligned_malloc           00492a65 f   LIBCMT:align.obj
 0001:00091a78       __aligned_offset_realloc   00492a78 f   LIBCMT:align.obj
 0001:00091be6       __aligned_offset_recalloc  00492be6 f   LIBCMT:align.obj
 0001:00091c6f       __aligned_realloc          00492c6f f   LIBCMT:align.obj
 0001:00091c86       __aligned_recalloc         00492c86 f   LIBCMT:align.obj
 0001:00091cb0       _pow                       00492cb0 f   LIBCMT:pow.obj
 0001:00091cf0       __CIpow                    00492cf0 f   LIBCMT:pow.obj
 0001:00091d2b       __CIpow_default            00492d2b f   LIBCMT:pow.obj
 0001:00091d44       __pow_default              00492d44     LIBCMT:pow.obj
 0001:00091f40       _log                       00492f40 f   LIBCMT:log.obj
 0001:00091f80       __CIlog                    00492f80 f   LIBCMT:log.obj
 0001:00091fbb       __CIlog_default            00492fbb f   LIBCMT:log.obj
 0001:00091fcf       __log_default              00492fcf     LIBCMT:log.obj
 0001:00092090       __invoke_watson_if_oneof   00493090 f i LIBCMT:wassert.obj
 0001:000920dd       __wassert                  004930dd f   LIBCMT:wassert.obj
 0001:000929d0       ___crtwsetenv              004939d0 f   LIBCMT:wsetenv.obj
 0001:00092d36       __mbctoupper_l             00493d36 f   LIBCMT:mbtoupr.obj
 0001:00092dda       __mbctoupper               00493dda f   LIBCMT:mbtoupr.obj
 0001:00092de8       __expand                   00493de8 f   LIBCMT:expand.obj
 0001:00092ef0       __CIpow_pentium4           00493ef0 f   LIBCMT:pow_pentium4.obj
 0001:00092f09       __pow_pentium4             00493f09     LIBCMT:pow_pentium4.obj
 0001:00093a61       __fFEXP                    00494a61     LIBCMT:87tran.obj
 0001:00093ac8       __rtinfpopse               00494ac8     LIBCMT:87tran.obj
 0001:00093aca       __rtinfnpopse              00494aca     LIBCMT:87tran.obj
 0001:00093ada       __fFLN                     00494ada     LIBCMT:87tran.obj
 0001:00093b8f       __rtinfpop                 00494b8f     LIBCMT:87tran.obj
 0001:00093b91       __rtinfnpop                00494b91     LIBCMT:87tran.obj
 0001:00093bae       __ffexpm1                  00494bae     LIBCMT:87tran.obj
 0001:00093c60       __trandisp1                00494c60 f   LIBCMT:87disp.obj
 0001:00093cc7       __trandisp2                00494cc7 f   LIBCMT:87disp.obj
 0001:00093d53       __rttospopde               00494d53     LIBCMT:87disp.obj
 0001:00093d58       __rttospop                 00494d58     LIBCMT:87disp.obj
 0001:00093d5a       __rtnospop                 00494d5a     LIBCMT:87disp.obj
 0001:00093d5c       __rttosnpop                00494d5c     LIBCMT:87disp.obj
 0001:00093d5d       __rtnospopde               00494d5d     LIBCMT:87disp.obj
 0001:00093d64       __rtzeropop                00494d64     LIBCMT:87disp.obj
 0001:00093d66       __rtzeronpop               00494d66     LIBCMT:87disp.obj
 0001:00093d6b       __rtonepop                 00494d6b     LIBCMT:87disp.obj
 0001:00093d6d       __rtonenpop                00494d6d     LIBCMT:87disp.obj
 0001:00093d72       __tosnan1                  00494d72     LIBCMT:87disp.obj
 0001:00093d9d       __nosnan2                  00494d9d     LIBCMT:87disp.obj
 0001:00093d9f       __tosnan2                  00494d9f     LIBCMT:87disp.obj
 0001:00093dc7       __nan2                     00494dc7     LIBCMT:87disp.obj
 0001:00093e06       __rtindfpop                00494e06     LIBCMT:87disp.obj
 0001:00093e08       __rtindfnpop               00494e08     LIBCMT:87disp.obj
 0001:00093e19       __rttosnpopde              00494e19     LIBCMT:87disp.obj
 0001:00093e23       __rtchsifneg               00494e23     LIBCMT:87disp.obj
 0001:00093e30       __startTwoArgErrorHandling 00494e30 f   LIBCMT:genexcep.obj
 0001:00093e47       __startOneArgErrorHandling 00494e47 f   LIBCMT:genexcep.obj
 0001:00093e90       __twoToTOS                 00494e90 f   LIBCMT:common.obj
 0001:00093ea5       __load_CW                  00494ea5 f   LIBCMT:common.obj
 0001:00093ebc       __convertTOStoQNaN         00494ebc f   LIBCMT:common.obj
 0001:00093ed5       __fload_withFB             00494ed5 f   LIBCMT:common.obj
 0001:00093f18       __checkTOS_withFB          00494f18 f   LIBCMT:common.obj
 0001:00093f2e       __fast_exit                00494f2e f   LIBCMT:common.obj
 0001:00093f3b       __math_exit                00494f3b f   LIBCMT:common.obj
 0001:00093f65       __check_overflow_exit      00494f65 f   LIBCMT:common.obj
 0001:00093f79       __check_range_exit         00494f79 f   LIBCMT:common.obj
 0001:0009401c       __d_inttype                0049501c f   LIBCMT:powhlp.obj
 0001:00094080       __powhlp                   00495080 f   LIBCMT:powhlp.obj
 0001:000941c0       __CIlog_pentium4           004951c0 f   LIBCMT:log_pentium4.obj
 0001:000941d8       __log_pentium4             004951d8     LIBCMT:log_pentium4.obj
 0001:00094430       __vswprintf_helper         00495430 f   LIBCMT:vswprnc.obj
 0001:00094526       __vswprintf_c              00495526 f   LIBCMT:vswprnc.obj
 0001:0009454d       __vswprintf_c_l            0049554d f   LIBCMT:vswprnc.obj
 0001:00094575       __vswprintf_s_l            00495575 f   LIBCMT:vswprnc.obj
 0001:000945fc       _vswprintf_s               004955fc f   LIBCMT:vswprnc.obj
 0001:00094617       __vsnwprintf_s_l           00495617 f   LIBCMT:vswprnc.obj
 0001:0009471e       __vsnwprintf_s             0049571e f   LIBCMT:vswprnc.obj
 0001:0009473c       __vswprintf_p              0049573c f   LIBCMT:vswprnc.obj
 0001:00094763       __vswprintf_p_l            00495763 f   LIBCMT:vswprnc.obj
 0001:0009478b       _fwprintf                  0049578b f   LIBCMT:fwprintf.obj
 0001:0009481f       __fwprintf_l               0049581f f   LIBCMT:fwprintf.obj
 0001:00094839       __fwprintf_s_l             00495839 f   LIBCMT:fwprintf.obj
 0001:00094853       _fwprintf_s                00495853 f   LIBCMT:fwprintf.obj
 0001:0009486b       __fwprintf_p_l             0049586b f   LIBCMT:fwprintf.obj
 0001:00094885       __fwprintf_p               00495885 f   LIBCMT:fwprintf.obj
 0001:0009489d       ___crtMessageBoxW          0049589d f   LIBCMT:crtmboxw.obj
 0001:00094b49       __itow_s                   00495b49 f   LIBCMT:xtows.obj
 0001:00094b73       __ltow_s                   00495b73 f   LIBCMT:xtows.obj
 0001:00094b98       __ultow_s                  00495b98 f   LIBCMT:xtows.obj
 0001:00094cae       __i64tow_s                 00495cae f   LIBCMT:xtows.obj
 0001:00094ce1       __ui64tow_s                00495ce1 f   LIBCMT:xtows.obj
 0001:00094cfe       _wcsncat_s                 00495cfe f   LIBCMT:wcsncat_s.obj
 0001:00094ddf       _wcsncpy_s                 00495ddf f   LIBCMT:wcsncpy_s.obj
 0001:00094ea8       _wcscat_s                  00495ea8 f   LIBCMT:wcscat_s.obj
 0001:00094f22       _wcscpy_s                  00495f22 f   LIBCMT:wcscpy_s.obj
 0001:00094f8e       __assert                   00495f8e f   LIBCMT:assert.obj
 0001:00095619       __wcstombs_l_helper        00496619 f   LIBCMT:wcstombs.obj
 0001:0009585f       __wcstombs_l               0049685f f   LIBCMT:wcstombs.obj
 0001:00095864       _wcstombs                  00496864 f   LIBCMT:wcstombs.obj
 0001:0009587b       __wcstombs_s_l             0049687b f   LIBCMT:wcstombs.obj
 0001:0009592c       _wcstombs_s                0049692c f   LIBCMT:wcstombs.obj
 0001:0009594a       __wcsnicoll_l              0049694a f   LIBCMT:wcsnicol.obj
 0001:00095a8b       __wcsnicoll                00496a8b f   LIBCMT:wcsnicol.obj
 0001:00095b2d       __wcsdup                   00496b2d f   LIBCMT:wcsdup.obj
 0001:00095b80       ___mbtow_environ           00496b80 f   LIBCMT:mbtowenv.obj
 0001:00095c05       __wsetenvp                 00496c05 f   LIBCMT:wstdenvp.obj
 0001:00095cdf       ___crtGetEnvironmentStringsW 00496cdf f   LIBCMT:w_env.obj
 0001:00095e40       _wcschr                    00496e40 f   LIBCMT:wcschr.obj
 0001:00095e70       _fdiv_main_routine         00496e70 f   LIBCMT:adj_fdiv.obj
 0001:00095f87       __adj_fdiv_r               00496f87 f   LIBCMT:adj_fdiv.obj
 0001:00096426       __fdivp_sti_st             00497426 f   LIBCMT:adj_fdiv.obj
 0001:00096439       __fdivrp_sti_st            00497439 f   LIBCMT:adj_fdiv.obj
 0001:0009644c       __adj_fdiv_m32             0049744c f   LIBCMT:adj_fdiv.obj
 0001:00096498       __adj_fdiv_m64             00497498 f   LIBCMT:adj_fdiv.obj
 0001:000964e4       __adj_fdiv_m16i            004974e4 f   LIBCMT:adj_fdiv.obj
 0001:00096518       __adj_fdiv_m32i            00497518 f   LIBCMT:adj_fdiv.obj
 0001:0009654c       __adj_fdivr_m32            0049754c f   LIBCMT:adj_fdiv.obj
 0001:00096598       __adj_fdivr_m64            00497598 f   LIBCMT:adj_fdiv.obj
 0001:000965e4       __adj_fdivr_m16i           004975e4 f   LIBCMT:adj_fdiv.obj
 0001:00096618       __adj_fdivr_m32i           00497618 f   LIBCMT:adj_fdiv.obj
 0001:0009664c       __safe_fdiv                0049764c f   LIBCMT:adj_fdiv.obj
 0001:00096661       __safe_fdivr               00497661 f   LIBCMT:adj_fdiv.obj
 0001:00096676       __fprem_common             00497676 f   LIBCMT:adj_fdiv.obj
 0001:0009687c       __adj_fprem                0049787c f   LIBCMT:adj_fdiv.obj
 0001:0009692e       __fprem1_common            0049792e f   LIBCMT:adj_fdiv.obj
 0001:00096b34       __adj_fprem1               00497b34 f   LIBCMT:adj_fdiv.obj
 0001:00096be9       __safe_fprem               00497be9 f   LIBCMT:adj_fdiv.obj
 0001:00096bef       __safe_fprem1              00497bef f   LIBCMT:adj_fdiv.obj
 0001:00096bf5       __adj_fpatan               00497bf5 f   LIBCMT:adj_fdiv.obj
 0001:00096bf8       __adj_fptan                00497bf8 f   LIBCMT:adj_fdiv.obj
 0001:00096bfb       __87except                 00497bfb f   LIBCMT:87except.obj
 0001:00096d90       __woutput_l                00497d90 f   LIBCMT:woutput.obj
 0001:00097739       __woutput_s_l              00498739 f   LIBCMT:woutputs.obj
 0001:00098055       __validate_param_reuseW    00499055 f   LIBCMT:woutputp.obj
 0001:00098242       __woutput_p_l              00499242 f   LIBCMT:woutputp.obj
 0001:000991a2       _vfwprintf_helper          0049a1a2 f   LIBCMT:vfwprint.obj
 0001:00099235       __vfwprintf_l              0049a235 f   LIBCMT:vfwprint.obj
 0001:00099253       __vfwprintf_s_l            0049a253 f   LIBCMT:vfwprint.obj
 0001:00099271       __vfwprintf_p_l            0049a271 f   LIBCMT:vfwprint.obj
 0001:0009928f       _vfwprintf                 0049a28f f   LIBCMT:vfwprint.obj
 0001:000992ab       _vfwprintf_s               0049a2ab f   LIBCMT:vfwprint.obj
 0001:000992c7       __vfwprintf_p              0049a2c7 f   LIBCMT:vfwprint.obj
 0001:000992e3       __mbsnbcat_s               0049a2e3 f   LIBCMT:mbsnbcat_s.obj
 0001:000992fe       __mbsnbcpy_s               0049a2fe f   LIBCMT:mbsnbcpy_s.obj
 0001:00099585       ___crtCompareStringW       0049a585 f   LIBCMT:w_cmp.obj
 0001:000995c5       __fputwc_nolock            0049a5c5 f   LIBCMT:fputwc.obj
 0001:000997a3       _fputwc                    0049a7a3 f   LIBCMT:fputwc.obj
 0001:0009981b       _putwc                     0049a81b f   LIBCMT:fputwc.obj
 0001:00099a17       _wcstol                    0049aa17 f   LIBCMT:wcstol.obj
 0001:00099a40       __wcstol_l                 0049aa40 f   LIBCMT:wcstol.obj
 0001:00099a5b       _wcstoul                   0049aa5b f   LIBCMT:wcstol.obj
 0001:00099a85       __wcstoul_l                0049aa85 f   LIBCMT:wcstol.obj
 0001:00099aa0       __mbsnbcat_s_l             0049aaa0 f   LIBCMT:mbsnbcat_s_l.obj
 0001:00099d32       __mbsnbcpy_s_l             0049ad32 f   LIBCMT:mbsnbcpy_s_l.obj
 0001:00099f3f       __flswbuf                  0049af3f f   LIBCMT:_flswbuf.obj
 0001:0009a0af       __wchartodigit             0049b0af f   LIBCMT:wchtodig.obj
 0001:0009a231       _strncat_s                 0049b231 f   LIBCMT:strncat_s.obj
 0001:0009a2f4       _GetModuleFileNameW@12     0049b2f4 f   kernel32:KERNEL32.dll
 0001:0009a2fa       _SetEnvironmentVariableW@8 0049b2fa f   kernel32:KERNEL32.dll
 0001:0009a300       _LoadLibraryW@4            0049b300 f   kernel32:KERNEL32.dll
 0001:0009a306       _CryptAcquireContextA@20   0049b306 f   advapi32:ADVAPI32.dll
 0001:0009a30c       _CryptReleaseContext@8     0049b30c f   advapi32:ADVAPI32.dll
 0001:0009a312       _CryptGenRandom@12         0049b312 f   advapi32:ADVAPI32.dll
 0002:00000000       ___xc_a                    004c0000     LIBCMT:crt0init.obj
 0002:00000210       ___xc_z                    004c0210     LIBCMT:crt0init.obj
 0002:00000314       ___xi_a                    004c0314     LIBCMT:crt0init.obj
 0002:00000634       ___xi_z                    004c0634     LIBCMT:crt0init.obj
 0002:00000738       ___xl_a                    004c0738     LIBCMT:tlssup.obj
 0002:0000073c       ___xl_z                    004c073c     LIBCMT:tlssup.obj
 0002:00000740       ___xp_a                    004c0740     LIBCMT:crt0init.obj
 0002:00000a4c       ___xp_z                    004c0a4c     LIBCMT:crt0init.obj
 0002:00000b50       ___xt_a                    004c0b50     LIBCMT:crt0init.obj
 0002:00000c54       ___xt_z                    004c0c54     LIBCMT:crt0init.obj
 0002:00000d7c       ??_C@_0P@GHFPNOJB@bad?5allocation?$AA@ 004c0d7c     buffer.obj
 0002:00000d90       ?BUFFER_INITIAL_SIZE@Buffer@@0IB 004c0d90     buffer.obj
 0002:00000d94       ?MAX_BUFFER_SIZE@Buffer@@0IB 004c0d94     buffer.obj
 0002:00000da0       __real@3ff8000000000000    004c0da0     buffer.obj
 0002:00000db0       __real@41f0000000000000    004c0db0     buffer.obj
 0002:00000dc0       ??_7Command@@6B@           004c0dc0     command.obj
 0002:00000ddc       ??_C@_05HDBKIDE@state?$AA@ 004c0ddc     commands.obj
 0002:00000de4       ??_C@_0O@MIFOIHFB@instance_name?$AA@ 004c0de4     commands.obj
 0002:00000df8       ??_7Instance_cmd@@6B@      004c0df8     commands.obj
 0002:00000e08       ??_7Abstract_instance_cmd@@6B@ 004c0e08     commands.obj
 0002:00000e20       ??_7Show_instance_status@@6B@ 004c0e20     commands.obj
 0002:00000e34       ??_C@_0BC@OPJMMHIK@mysqld_compatible?$AA@ 004c0e34     commands.obj
 0002:00000e4c       ??_C@_0P@LNKEPANE@version_number?$AA@ 004c0e4c     commands.obj
 0002:00000e60       ??_C@_07CPCPJPKL@version?$AA@ 004c0e60     commands.obj
 0002:00000e6c       ??_C@_02KAJCLHKP@no?$AA@   004c0e6c     commands.obj
 0002:00000e70       ??_C@_03ICICOMAL@yes?$AA@  004c0e70     commands.obj
 0002:00000e74       ??_C@_07CIFAGBMG@unknown?$AA@ 004c0e74     commands.obj
 0002:00000e84       ??_7Show_instance_options@@6B@ 004c0e84     commands.obj
 0002:00000e98       ??_C@_05MFEJDJP@value?$AA@ 004c0e98     commands.obj
 0002:00000ea0       ??_C@_0M@PNCLCLFB@option_name?$AA@ 004c0ea0     commands.obj
 0002:00000eae       ??_C@_00CNPNBAHC@?$AA@     004c0eae     commands.obj
 0002:00000eb4       ??_7Start_instance@@6B@    004c0eb4     commands.obj
 0002:00000ec8       ??_C@_0BB@EIFMIEBH@Instance?5started?$AA@ 004c0ec8     commands.obj
 0002:00000ee0       ??_7Stop_instance@@6B@     004c0ee0     commands.obj
 0002:00000ef8       ??_7Create_instance@@6B@   004c0ef8     commands.obj
 0002:00000f08       ??_7Drop_instance@@6B@     004c0f08     commands.obj
 0002:00000f14       ??_C@_0BB@JCFKCMFI@Instance?5dropped?$AA@ 004c0f14     commands.obj
 0002:00000f28       ??_C@_0EP@PLHCCCFH@Can?5not?5remove?5instance?5?8?$CFs?8?5fro@ 004c0f28     commands.obj
 0002:00000f8c       ??_7Show_instance_log@@6B@ 004c0f8c     commands.obj
 0002:00000fa0       ??_C@_03GGEOLGBL@Log?$AA@  004c0fa0     commands.obj
 0002:00000fa8       ??_7Show_instance_log_files@@6B@ 004c0fa8     commands.obj
 0002:00000fbc       ??_C@_09JPMHFEOD@File?5size?$AA@ 004c0fbc     commands.obj
 0002:00000fc8       ??_C@_04HMIIHGGM@Path?$AA@ 004c0fc8     commands.obj
 0002:00000fd0       ??_C@_07IFPLGDBI@Logfile?$AA@ 004c0fd0     commands.obj
 0002:00000fdc       ??_C@_01GBGANLPD@0?$AA@    004c0fdc     commands.obj
 0002:00000fe0       ??_C@_08FLCOKHCB@SLOW?5LOG?$AA@ 004c0fe0     commands.obj
 0002:00000fec       ??_C@_0M@CKKADIMG@GENERAL?5LOG?$AA@ 004c0fec     commands.obj
 0002:00000ffc       ??_C@_09ILJLBPE@ERROR?5LOG?$AA@ 004c0ffc     commands.obj
 0002:0000100c       ??_7Abstract_option_cmd@@6B@ 004c100c     commands.obj
 0002:00001020       ??_C@_0EL@PIIKGIKP@Can?5not?5modify?5option?5?$CI?$CFs?$CJ?5in?5de@ 004c1020     commands.obj
 0002:00001080       ??_C@_0FI@JJBPOGGF@IM?9option?5?$CI?$CFs?$CJ?5can?5not?5be?5used?5i@ 004c1080     commands.obj
 0002:000010f0       ??_7Thread@@6B@            004c10f0     guardian.obj
 0002:00001100       ??_7Guardian@@6B@          004c1100     guardian.obj
 0002:00001110       ??_C@_0EC@CLDPELEC@Guardian?3?5can?5not?5start?5?8?$CFs?8?4?5Ab@ 004c1110     guardian.obj
 0002:00001160       ??_C@_0BN@IMGFCJPE@Guardian?3?5restarting?5?8?$CFs?8?4?4?4?$AA@ 004c1160     guardian.obj
 0002:00001184       ??_C@_0BL@EJNFPJD@Guardian?3?5starting?5?8?$CFs?8?4?4?4?$AA@ 004c1184     guardian.obj
 0002:000011a4       ??_C@_0DB@OHKMODAF@Guardian?3?5?8?$CFs?8?5is?5running?0?5set?5s@ 004c11a4     guardian.obj
 0002:000011e0       ??_C@_0DD@DICFGDLN@Guardian?3?5waiting?5for?5?8?$CFs?8?5to?5st@ 004c11e0     guardian.obj
 0002:00001220       ??_C@_0CH@GBMAPFMH@Guardian?3?5pretend?5that?5?8?$CFs?8?5is?5k@ 004c1220     guardian.obj
 0002:00001250       ??_C@_0CO@NHFJHJAE@Guardian?3?5?8?$CFs?8?5hasn?8t?5stopped?5wi@ 004c1250     guardian.obj
 0002:00001288       ??_C@_0BI@LPKFLOPI@Guardian?3?5?8?$CFs?8?5stopped?4?$AA@ 004c1288     guardian.obj
 0002:000012a4       ??_C@_0BE@FBJMCIE@Guardian?3?5finished?4?$AA@ 004c12a4     guardian.obj
 0002:000012bc       ??_C@_0BD@PIJKIOJO@Guardian?3?5stopped?4?$AA@ 004c12bc     guardian.obj
 0002:000012d4       ??_C@_0CH@FBNFGIEG@Guardian?3?5all?5guarded?5mysqlds?5st@ 004c12d4     guardian.obj
 0002:00001304       ??_C@_0BD@BAONPCAI@Guardian?3?5started?4?$AA@ 004c1304     guardian.obj
 0002:0000131c       ??_C@_06IJHCJAKM@mysqld?$AA@ 004c131c     instance.obj
 0002:00001324       ?DFLT_INSTANCE_NAME@Instance@@2Ust_mysql_lex_string@@B 004c1324     instance.obj
 0002:00001330       ??_C@_02KOPDJAMB@?$CC?5?$AA@ 004c1330     instance.obj
 0002:00001334       ??_C@_01BJJEKLCA@?$CC?$AA@ 004c1334     instance.obj
 0002:00001338       ??_C@_0M@LPAKIOHO@ExitProcess?$AA@ 004c1338     instance.obj
 0002:00001348       ??_C@_08HPEMMIEC@Kernel32?$AA@ 004c1348     instance.obj
 0002:00001358       ??_7Instance_monitor@@6B@  004c1358     instance.obj
 0002:00001364       ??_C@_08FJBHPJOK@stopping?$AA@ 004c1364     instance.obj
 0002:00001370       ??_C@_09ILHOEMPA@abandoned?$AA@ 004c1370     instance.obj
 0002:0000137c       ??_C@_07HDILHIKI@crashed?$AA@ 004c137c     instance.obj
 0002:00001388       ??_C@_06ODACHPEO@failed?$AA@ 004c1388     instance.obj
 0002:00001390       ??_C@_06GNLMCJKK@online?$AA@ 004c1390     instance.obj
 0002:00001398       ??_C@_08LBGAIFHM@starting?$AA@ 004c1398     instance.obj
 0002:000013a4       ??_C@_0M@CKKENOIB@not?5started?$AA@ 004c13a4     instance.obj
 0002:000013b4       ??_C@_07OFPCFMBE@offline?$AA@ 004c13b4     instance.obj
 0002:000013c0       ??_C@_0BN@LLJOCMEH@Instance?5?8?$CFs?8?3?5destroying?4?4?4?$AA@ 004c13c0     instance.obj
 0002:000013e4       ??_C@_0CM@DPCAKKPD@Instance?5?8?$CFs?8?3?5was?5able?5to?5log?5i@ 004c13e4     instance.obj
 0002:00001418       ??_C@_09IPAEKDAI@localhost?$AA@ 004c1418     instance.obj
 0002:00001424       ??_C@_0BB@GHJAIMGF@check_connection?$AA@ 004c1424     instance.obj
 0002:00001438       ??_C@_0BH@JBEJIMON@MySQL_Instance_Manager?$AA@ 004c1438     instance.obj
 0002:00001454       ??_C@_0BH@KOCPJDOG@Access?5denied?5for?5user?$AA@ 004c1454     instance.obj
 0002:00001470       ??_C@_0BH@BODLLCCJ@Instance?5?8?$CFs?8?3?5killed?4?$AA@ 004c1470     instance.obj
 0002:0000148c       ??_C@_0BO@NFBHCDDC@Instance?5?8?$CFs?8?3?5kill?$CI?$CJ?5failed?4?$AA@ 004c148c     instance.obj
 0002:000014b0       ??_C@_0CD@JCNDMOGD@Instance?5?8?$CFs?8?3?5sending?5?$CFd?5to?5?$CFd?4@ 004c14b0     instance.obj
 0002:000014dc       ??_C@_0DC@GDKOGIBB@Instance?5?8?$CFs?8?3?5no?5pid?5file?5to?5se@ 004c14dc     instance.obj
 0002:00001518       ??_C@_0CI@JALABLCD@Instance?5?8?$CFs?8?3?5can?5not?5unlink?5pi@ 004c1518     instance.obj
 0002:00001548       ??_C@_0ED@MIOJFHEA@Instance?5?8?$CFs?8?3?5waiting?5for?5mysql@ 004c1548     instance.obj
 0002:00001598       ??_C@_0CC@GLHGGNBE@Instance?5?8?$CFs?8?3?5Monitor?3?5finished@ 004c1598     instance.obj
 0002:000015c0       ??_C@_0CI@BFKLPFHJ@Instance?5?8?$CFs?8?3?5Monitor?3?5mysqld?5s@ 004c15c0     instance.obj
 0002:000015f0       ??_C@_0DG@CDAEBOCG@Instance?5?8?$CFs?8?3?5Monitor?3?5waiting?5@ 004c15f0     instance.obj
 0002:00001630       ??_C@_0CL@GDLMAENG@Instance?5?8?$CFs?8?3?5Monitor?3?5starting@ 004c1630     instance.obj
 0002:00001664       ??_C@_0CB@BEEEIFJP@Instance?5?8?$CFs?8?3?5Monitor?3?5started?4@ 004c1664     instance.obj
 0002:0000168c       ??_C@_0DH@FCHALOJO@Instance?5?8?$CFs?8?3?5can?5not?5create?5in@ 004c168c     instance.obj
 0002:000016d0       ??_C@_0DG@MAGOENIF@Instance?5?8?$CFs?8?3?5can?5not?5kill?5mysq@ 004c16d0     instance.obj
 0002:00001710       ??_C@_0CH@BOIKBMHP@Instance?5?8?$CFs?8?3?5mysqld?5has?5been?5k@ 004c1710     instance.obj
 0002:00001740       ??_C@_0CA@KEBKADIL@Instance?8?$CFs?8?3?5killing?5mysqld?4?4?4?$AA@ 004c1740     instance.obj
 0002:00001768       ??_C@_0ED@EDMKKIGO@Instance?5?8?$CFs?8?3?5mysqld?5failed?5to?5@ 004c1768     instance.obj
 0002:000017b8       ??_C@_0CK@DAICMCAL@Instance?5?8?$CFs?8?3?5mysqld?5stopped?5gr@ 004c17b8     instance.obj
 0002:000017ec       ??_C@_0CC@LKFDENEP@Instance?5?8?$CFs?8?3?5stopping?5mysqld?4?4@ 004c17ec     instance.obj
 0002:00001814       ??_C@_0O@BAHIDACC@misconfigured?$AA@ 004c1814     instance.obj
 0002:00001824       ??_C@_0CI@LIHMLOA@Can?5not?5register?5instance?5?$CIname?3@ 004c1824     instance_map.obj
 0002:00001854       ??_C@_0DK@JKJGICIL@Can?5not?5complete?5initialization?5@ 004c1854     instance_map.obj
 0002:0000189c       ??_C@_0DC@CFEOAIDM@Warning?3?5instance?5name?5?8?$CFs?8?5is?5m@ 004c189c     instance_map.obj
 0002:000018d8       ??_C@_0FE@IILGJPJC@IM?9option?5?$CI?$CFs?$CJ?5can?5not?5be?5used?5i@ 004c18d8     instance_map.obj
 0002:0000193c       ??_C@_0CK@EBEJNCOF@Can?5not?5initialize?5instance?5?$CInam@ 004c193c     instance_map.obj
 0002:00001970       ??_C@_0CI@NKEBMEMH@Can?5not?5allocate?5instance?5?$CIname?3@ 004c1970     instance_map.obj
 0002:000019a0       ??_C@_0CO@MDKJDFNJ@Can?5not?5write?5to?5configuration?5f@ 004c19a0     instance_map.obj
 0002:000019d8       ??_C@_01NEMOKFLO@?$DN?$AA@ 004c19d8     instance_map.obj
 0002:000019dc       ??_C@_01LBDDMOBJ@?$FN?$AA@ 004c19dc     instance_map.obj
 0002:000019e0       ??_C@_01OHGJGJJP@?$FL?$AA@ 004c19e0     instance_map.obj
 0002:000019e4       ??_C@_02PCIJFNDE@?$AN?6?$AA@ 004c19e4     instance_map.obj
 0002:000019e8       ??_C@_0CK@ENFIMMHO@Can?5not?5open?5configuration?5file?5@ 004c19e8     instance_map.obj
 0002:00001a1c       ??_C@_0CI@OFOLHJNB@Configuration?5file?5?$CI?$CFs?$CJ?5does?5not@ 004c1a1c     instance_map.obj
 0002:00001a50       ??_C@_0JL@ENGJPKOG@Warning?3?5configuration?5of?5mysqld@ 004c1a50     instance_map.obj
 0002:00001b0c       ??_C@_0DC@EOJCNNLG@mysqld?5instance?5?8?$CFs?8?5has?5been?5ad@ 004c1b0c     instance_map.obj
 0002:00001b48       ??_C@_0DB@ODOAOEAB@Can?5not?5add?5default?5instance?5to?5@ 004c1b48     instance_map.obj
 0002:00001b84       ??_C@_0CB@FAMGEAGB@Can?5not?5create?5default?5instance?4@ 004c1b84     instance_map.obj
 0002:00001bac       ??_C@_0CG@MMPIFPAN@Falling?5back?5to?5compiled?9in?5defa@ 004c1bac     instance_map.obj
 0002:00001bdc       ??_C@_0BD@BMHFPFCK@?9?9defaults?9file?$DN?$CFs?$AA@ 004c1bdc     instance_map.obj
 0002:00001bf4       ??_C@_0N@MBMMAPDF@mysqlmanager?$AA@ 004c1bf4     instance_map.obj
 0002:00001c04       ??_C@_0L@PNJKAIKE@nonguarded?$AA@ 004c1c04     instance_options.obj
 0002:00001c14       ??_C@_0M@IKAFELGN@mysqld?9path?$AA@ 004c1c14     instance_options.obj
 0002:00001c24       ??_C@_0P@DLJJMICC@shutdown?9delay?$AA@ 004c1c24     instance_options.obj
 0002:00001c38       ??_C@_0CA@PNOFEODE@?5?9?9no?9defaults?5?9?9verbose?5?9?9help?$AA@ 004c1c38     instance_options.obj
 0002:00001c60       ??_C@_0DC@HCHGLGMH@Failed?5to?5get?5version?5of?5?8?$CFs?8?3?5u@ 004c1c60     instance_options.obj
 0002:00001c9c       ??_C@_03GDMIGCCC@Ver?$AA@  004c1c9c     instance_options.obj
 0002:00001ca0       ??_C@_0CO@ILMIHJFJ@Failed?5to?5get?5version?5of?5?8?$CFs?8?3?5o@ 004c1ca0     instance_options.obj
 0002:00001cd8       ??_C@_0BJ@HDFDNOPO@?5?9?9no?9defaults?5?9?9version?$AA@ 004c1cd8     instance_options.obj
 0002:00001cf8       ??_C@_09DGMGBAEA@?$FLOPTIONS?$FN?$AA@ 004c1cf8     instance_options.obj
 0002:00001d04       ??_C@_0DE@MNFMADFI@Failed?5to?5get?5real?5path?5of?5?8?$CFs?8?3@ 004c1d04     instance_options.obj
 0002:00001d44       ??_C@_07CKBCDPF@Usage?3?5?$AA@ 004c1d44     instance_options.obj
 0002:00001d50       ??_C@_0DA@BCPJGHBA@Failed?5to?5get?5real?5path?5of?5?8?$CFs?8?3@ 004c1d50     instance_options.obj
 0002:00001d8c       ??_C@_0BG@FCNLNJKD@?5?9?9no?9defaults?5?9?9help?$AA@ 004c1d8c     instance_options.obj
 0002:00001da8       ??_C@_05OLGEOJNI@mysql?$AA@ 004c1da8     instance_options.obj
 0002:00001db0       ??_C@_09HGKCAJKI@?9?9datadir?$AA@ 004c1db0     instance_options.obj
 0002:00001dbc       ??_C@_09OFFDPMNL@?9slow?4log?$AA@ 004c1dbc     instance_options.obj
 0002:00001dc8       ??_C@_0BD@OPICEAGD@?9?9log?9slow?9queries?$AA@ 004c1dc8     instance_options.obj
 0002:00001de0       ??_C@_04FPOLKAEB@?4log?$AA@ 004c1de0     instance_options.obj
 0002:00001de8       ??_C@_05NEJJJKMH@?9?9log?$AA@ 004c1de8     instance_options.obj
 0002:00001df0       ??_C@_04BKIDJPM@?4err?$AA@ 004c1df0     instance_options.obj
 0002:00001df8       ??_C@_0M@DHGGKIBL@?9?9log?9error?$AA@ 004c1df8     instance_options.obj
 0002:00001e08       ??_C@_01KMDKNFGN@?1?$AA@   004c1e08     instance_options.obj
 0002:00001e0c       ??_C@_02IKAHHCAI@?$CFi?$AA@ 004c1e0c     instance_options.obj
 0002:00001e10       ??_C@_08OLCBHKMI@pid?9file?$AA@ 004c1e10     instance_options.obj
 0002:00001e1c       ??_C@_07DJBHFDCD@datadir?$AA@ 004c1e1c     instance_options.obj
 0002:00001e28       ??_C@_04LPGMAPLE@port?$AA@ 004c1e28     instance_options.obj
 0002:00001e30       ??_C@_06HBELJPBO@socket?$AA@ 004c1e30     instance_options.obj
 0002:00001e38       ??_C@_09PGAHDFGH@argv?3?5?$CFs?6?$AA@ 004c1e38     instance_options.obj
 0002:00001e44       ??_C@_0CD@NLOANHMJ@printing?5out?5an?5instance?5?$CFs?5argv@ 004c1e44     instance_options.obj
 0002:00001e70       ??_C@_02BAABKJLB@?9?9?$AA@ 004c1e70     instance_options.obj
 0002:00001e74       ??_C@_01JOAMLHOP@?9?$AA@   004c1e74     instance_options.obj
 0002:00001e78       ??_C@_04GKIEGHBH@?4pid?$AA@ 004c1e78     instance_options.obj
 0002:00001e80       ??_C@_0O@LNAGOGFC@?9?9no?9defaults?$AA@ 004c1e80     instance_options.obj
 0002:00001e90       ?LISTEN_BACK_LOG_SIZE@Listener@@0HB 004c1e90     listener.obj
 0002:00001e98       ??_7Listener@@6B@          004c1e98     listener.obj
 0002:00001ea4       ??_C@_0DL@FELBGCJL@Listener?3?5accepting?5connections?5@ 004c1ea4     listener.obj
 0002:00001eec       ??_C@_0CI@EFCGJAL@Listener?3?5listen?$CIip?5socket?$CJ?5fail@ 004c1eec     listener.obj
 0002:00001f1c       ??_C@_0CG@DAMMONNM@Listener?3?5bind?$CIip?5socket?$CJ?5failed@ 004c1f1c     listener.obj
 0002:00001f4c       ??_C@_0CG@KCNJHJFG@Listener?3?5socket?$CIAF_INET?$CJ?5failed@ 004c1f4c     listener.obj
 0002:00001f7c       ??_C@_0CM@GIBNOMBE@Listener?3?5can?5not?5start?5connecti@ 004c1f7c     listener.obj
 0002:00001fb0       ??_C@_0BE@EKNLPMLD@Listener?3?5finished?4?$AA@ 004c1fb0     listener.obj
 0002:00001fc8       ??_C@_0CJ@GKEKOOEG@Listener?3?5shutdown?5requested?0?5ex@ 004c1fc8     listener.obj
 0002:00001ffc       ??_C@_0BP@HLLAMEBI@Listener?3?5select?$CI?$CJ?5failed?3?5?$CFs?4?$AA@ 004c1ffc     listener.obj
 0002:00002024       ??_C@_0DF@HKOKJDHM@Listener?3?5failed?5to?5initialize?4?5@ 004c2024     listener.obj
 0002:00002064       ??_C@_0BD@NCBJHKL@Listener?3?5started?4?$AA@ 004c2064     listener.obj
 0002:0000207c       ??_C@_05JMJKDBEJ@?$CFs?$CFs?6?$AA@ 004c207c     log.obj
 0002:00002084       ??_C@_0CO@EMDKHBOI@log?$CI?$CJ?3?5message?5is?5too?5big?0?5my_ma@ 004c2084     log.obj
 0002:000020bc       ??_C@_0CP@LMPLHIIL@?$FL?$CFd?1?$CFlu?$FN?5?$FL?$CF02d?1?$CF02d?1?$CF02d?5?$CF02d?3?$CF0@ 004c20bc     log.obj
 0002:000020f4       ??_C@_05MBDEGLCK@ERROR?$AA@ 004c20f4     log.obj
 0002:000020fc       ??_C@_04BEADLPGM@INFO?$AA@ 004c20fc     log.obj
 0002:00002104       ??_C@_01EEMJAFIK@?6?$AA@   004c2104     log.obj
 0002:00002108       ??_C@_04PFAOODAA@?$CFs?3?5?$AA@ 004c2108     log.obj
 0002:00002114       ??_7ThreadModelChecker@?A0xaa3af1e8@@6B@ 004c2114     manager.obj
 0002:00002120       ??_C@_0N@PANILCOJ@Manager?3?5?$CFs?4?$AA@ 004c2120     manager.obj
 0002:00002130       ??_C@_0FL@OFDAGJKP@Warning?3?5password?5file?5does?5not?5@ 004c2130     manager.obj
 0002:000021a0       ??_C@_0DG@DJAIBBOJ@Manager?3?5can?5not?5initialize?5user@ 004c21a0     manager.obj
 0002:000021e0       ??_C@_0BK@PKMPDDGP@Manager?3?5sigwait?$CI?$CJ?5failed?$AA@ 004c21e0     manager.obj
 0002:00002200       ??_C@_0BD@BKGNGCAN@Manager?3?5finished?4?$AA@ 004c2200     manager.obj
 0002:00002218       ??_C@_0BO@MKKBBAKA@Manager?3?5got?5shutdown?5signal?4?$AA@ 004c2218     manager.obj
 0002:0000223c       ??_C@_0BC@LOMOBFNL@Manager?3?5started?4?$AA@ 004c223c     manager.obj
 0002:00002254       ??_C@_0CI@KODGBOEG@Manager?3?5can?5not?5start?5Listener?5@ 004c2254     manager.obj
 0002:00002284       ??_C@_0CM@OPLHEMPM@Manager?3?5can?5not?5init?5instances?5@ 004c2284     manager.obj
 0002:000022b8       ??_C@_0CI@GKNKKAIM@Manager?3?5can?5not?5start?5Guardian?5@ 004c22b8     manager.obj
 0002:000022e8       ??_C@_0CA@EMIOCEBB@Manager?3?5pid?5file?5?$CI?$CFs?$CJ?5created?4?$AA@ 004c22e8     manager.obj
 0002:00002310       ??_C@_0DK@KJHDPGIO@Manager?3?5can?5not?5initialize?5inst@ 004c2310     manager.obj
 0002:00002358       ??_C@_0BJ@DLDDEGPM@Manager?3?5initializing?4?4?4?$AA@ 004c2358     manager.obj
 0002:00002378       ??_C@_0CC@IOEEFNGH@Configuration?5file?5does?5not?5exis@ 004c2378     messages.obj
 0002:000023a0       ??_C@_0HF@JDADLGEN@Instance?5Manager?9specific?5option@ 004c23a0     messages.obj
 0002:0000242c       ??_C@_0DK@EOPGDEKG@At?5least?5one?5instance?5is?5active?4@ 004c242c     messages.obj
 0002:00002474       ??_C@_0DA@NKPLOLCO@The?5instance?5is?5active?4?5Stop?5the@ 004c2474     messages.obj
 0002:000024b0       ??_C@_0BJ@PGDOFGBC@Malformed?5instance?5name?4?$AA@ 004c24b0     messages.obj
 0002:000024d0       ??_C@_0CL@HILCLIIH@Instance?5is?5misconfigured?4?5Canno@ 004c24d0     messages.obj
 0002:00002504       ??_C@_0BI@FMHOLMKL@Instance?5already?5exists?$AA@ 004c2504     messages.obj
 0002:00002520       ??_C@_0DJ@PMBEDDFP@Cannot?5drop?5an?5active?5instance?4?5@ 004c2520     messages.obj
 0002:00002564       ??_C@_0DH@OLEIDFFJ@Cannot?5open?5the?5option?5file?5to?5e@ 004c2564     messages.obj
 0002:000025a8       ??_C@_0FE@PBJNMGMK@Cannot?5guess?5the?5log?5filename?4?5T@ 004c25a8     messages.obj
 0002:0000260c       ??_C@_0BF@CCAMAPAA@Cannot?5open?5log?5file?$AA@ 004c260c     messages.obj
 0002:00002628       ??_C@_0CF@HGFDHMPH@The?5instance?5has?5no?5such?5log?5ena@ 004c2628     messages.obj
 0002:00002654       ??_C@_0CK@BDCIGLMK@Cannot?5read?5requested?5part?5of?5th@ 004c2654     messages.obj
 0002:00002688       ??_C@_0BF@BOFNNLAC@Cannot?5stop?5instance?$AA@ 004c2688     messages.obj
 0002:000026a4       ??_C@_0CF@EPBEMJMO@Cannot?5read?5negative?5number?5of?5b@ 004c26a4     messages.obj
 0002:000026d0       ??_C@_0FJ@FAEFAGFE@Cannot?5start?5instance?4?5Possible?5@ 004c26d0     messages.obj
 0002:0000273c       ??_C@_0CA@OIEOKEDL@The?5instance?5is?5already?5started?$AA@ 004c273c     messages.obj
 0002:00002768       ??_C@_0HD@GGDAMBEA@Cannot?5stop?5instance?4?5Perhaps?5th@ 004c2768     messages.obj
 0002:000027f4       ??_C@_0BG@PFHNHGMA@Unknown?5instance?5name?$AA@ 004c27f4     messages.obj
 0002:00002810       ??_C@_0GF@CPHLBCPM@Client?5does?5not?5support?5authenti@ 004c2810     messages.obj
 0002:00002890       ??_C@_0IP@BELLFNGA@You?5have?5an?5error?5in?5your?5comman@ 004c2890     messages.obj
 0002:0000293c       ??_C@_0BA@MPOJHAMO@Unknown?5command?$AA@ 004c293c     messages.obj
 0002:00002950       ??_C@_0CK@DOCEONGH@Access?5denied?4?5Bad?5username?1pass@ 004c2950     messages.obj
 0002:00002988       ??_C@_0LH@OBGNHNPK@Out?5of?5memory?$DL?5?5Check?5if?5mysqld?5@ 004c2988     messages.obj
 0002:00002a64       ??_C@_0O@DIOIANKF@Bad?5handshake?$AA@ 004c2a64     messages.obj
 0002:00002a78       ??_7Mysql_connection@@6B@  004c2a78     mysql_connection.obj
 0002:00002a84       ??_C@_0CH@OOGLBEGM@Connection?5?$CFlu?3?5received?5QUIT?5co@ 004c2a84     mysql_connection.obj
 0002:00002ab4       ??_C@_0DH@OALJBMIN@Connection?5?$CFlu?3?5can?5not?5parse?5qu@ 004c2ab4     mysql_connection.obj
 0002:00002af8       ??_C@_0DD@KJLKCFKC@Connection?5?$CFlu?3?5can?5not?5execute?5@ 004c2af8     mysql_connection.obj
 0002:00002b38       ??_C@_0CM@PGHKHOAF@Connection?5?$CFlu?3?5query?5executed?5s@ 004c2b38     mysql_connection.obj
 0002:00002b6c       ??_C@_0CL@FBNOCNOF@Connection?5?$CFlu?3?5query?5parsed?5suc@ 004c2b6c     mysql_connection.obj
 0002:00002ba0       ??_C@_0CO@JFCMKLJ@Connection?5?$CFlu?3?5received?5QUERY?5c@ 004c2ba0     mysql_connection.obj
 0002:00002bd8       ??_C@_0CH@BOFFKBHO@Connection?5?$CFlu?3?5received?5PING?5co@ 004c2bd8     mysql_connection.obj
 0002:00002c08       ??_C@_0DD@BEOBPCHN@Connection?5?$CFlu?3?5received?5unsuppo@ 004c2c08     mysql_connection.obj
 0002:00002c48       ??_C@_0DM@LEFAKPBA@Connection?5?$CFlu?3?5received?5packet?5@ 004c2c48     mysql_connection.obj
 0002:00002c90       ??_C@_0DG@MHMJEMMF@Connection?5?$CFlu?3?5the?5user?5was?5aut@ 004c2c90     mysql_connection.obj
 0002:00002cd0       ??_C@_0CO@GLLPLBF@Connection?5?$CFlu?3?5failed?5to?5author@ 004c2cd0     mysql_connection.obj
 0002:00002d08       ??_C@_0BK@JPCGKMIE@Connection?5?$CFlu?3?5accepted?4?$AA@ 004c2d08     mysql_connection.obj
 0002:00002d28       ??_C@_0CG@IGHBHBKI@Connection?5?$CFlu?3?5can?5not?5init?5han@ 004c2d28     mysql_connection.obj
 0002:00002d58       ??_C@_0O@NICLPIJL@IM?3?5finished?4?$AA@ 004c2d58     mysqlmanager.obj
 0002:00002d68       ??_C@_0N@CPKLCEGH@IM?3?5started?4?$AA@ 004c2d68     mysqlmanager.obj
 0002:00002d78       ??_C@_0EC@PKPNDGNL@?6WARNING?3?5This?5program?5is?5deprec@ 004c2d78     mysqlmanager.obj
 0002:00002dc8       ??_C@_07JPLKDPHP@manager?$AA@ 004c2dc8     options.obj
 0002:00002dd8       ??_C@_0EP@PDDIBNOH@The?5number?5of?5seconds?5IM?5waits?5f@ 004c2dd8     options.obj
 0002:00002e38       ??_C@_0N@IKNOIIJE@wait?9timeout?$AA@ 004c2e38     options.obj
 0002:00002e48       ??_C@_0CF@PMNNCCFJ@Output?5version?5information?5and?5e@ 004c2e48     options.obj
 0002:00002e74       ??_C@_0CG@JBFFICBH@Username?5to?5update?5the?5password?5@ 004c2e74     options.obj
 0002:00002ea4       ??_C@_08ODGEKKOL@username?$AA@ 004c2ea4     options.obj
 0002:00002eb0       ??_C@_0CJ@IONBCKIB@Run?5the?5application?5in?5stand?5alo@ 004c2eb0     options.obj
 0002:00002ee4       ??_C@_0L@FLHGMILF@standalone?$AA@ 004c2ee4     options.obj
 0002:00002ef4       ??_C@_0BH@DMOGDMLA@Remove?5system?5service?4?$AA@ 004c2ef4     options.obj
 0002:00002f10       ??_C@_06LEMKAMD@remove?$AA@ 004c2f10     options.obj
 0002:00002f18       ??_C@_0CE@NDMNFMGO@Port?5number?5to?5use?5for?5connectio@ 004c2f18     options.obj
 0002:00002f44       ??_C@_0BB@DGOMPFMC@Pid?5file?5to?5use?4?$AA@ 004c2f44     options.obj
 0002:00002f58       ??_C@_0DE@HMCHLBBP@Look?5for?5Instance?5Manager?5users?5@ 004c2f58     options.obj
 0002:00002f98       ??_C@_0O@JHLAPOPF@password?9file?$AA@ 004c2f98     options.obj
 0002:00002fa8       ??_C@_0CG@HEHNPAHK@Password?5to?5update?5the?5password?5@ 004c2fa8     options.obj
 0002:00002fd8       ??_C@_08NLHBPEGP@password?$AA@ 004c2fd8     options.obj
 0002:00002fe8       ??_C@_0EB@EPMGEMEG@Print?5out?5a?5user?5entry?5as?5a?5line@ 004c2fe8     options.obj
 0002:00003038       ??_C@_0BE@JBMHOAKG@print?9password?9line?$AA@ 004c3038     options.obj
 0002:00003050       ??_C@_0DJ@HPGBHOCK@Start?5Instance?5Manager?5in?5mysqld@ 004c3050     options.obj
 0002:00003094       ??_C@_0BH@BDEONKFN@mysqld?9safe?9compatible?$AA@ 004c3094     options.obj
 0002:000030b0       ??_C@_0CK@FMEHMJFO@Interval?5to?5monitor?5instances?5in@ 004c30b0     options.obj
 0002:000030e4       ??_C@_0BE@INENLLN@monitoring?9interval?$AA@ 004c30e4     options.obj
 0002:000030fc       ??_C@_0CG@GMJENMHO@Print?5out?5a?5list?5of?5registered?5u@ 004c30fc     options.obj
 0002:0000312c       ??_C@_0L@BGBIMKCH@list?9users?$AA@ 004c312c     options.obj
 0002:0000313c       ??_C@_0BL@KHPAFIOP@Install?5as?5system?5service?4?$AA@ 004c313c     options.obj
 0002:0000315c       ??_C@_07EALBDFH@install?$AA@ 004c315c     options.obj
 0002:00003168       ??_C@_0CJ@PAHCHFBH@Edit?5existing?5user?5in?5the?5passwo@ 004c3168     options.obj
 0002:0000319c       ??_C@_09FNCIKDCH@edit?9user?$AA@ 004c319c     options.obj
 0002:000031a8       ??_C@_0CL@GCDDJALK@Drop?5existing?5user?5from?5the?5pass@ 004c31a8     options.obj
 0002:000031dc       ??_C@_09FPBANOHG@drop?9user?$AA@ 004c31dc     options.obj
 0002:000031e8       ??_C@_0CH@LIAINEMB@Where?5to?5look?5for?5MySQL?5Server?5b@ 004c31e8     options.obj
 0002:00003218       ??_C@_0BE@HCHLGHAI@default?9mysqld?9path?$AA@ 004c3218     options.obj
 0002:00003230       ??_C@_0BJ@OGOGONKD@Clean?5the?5password?5file?4?$AA@ 004c3230     options.obj
 0002:00003250       ??_C@_0BE@NIEMCJHH@clean?9password?9file?$AA@ 004c3250     options.obj
 0002:00003268       ??_C@_0CJ@LHJCNMMI@Check?5the?5password?5file?5for?5cons@ 004c3268     options.obj
 0002:0000329c       ??_C@_0BE@JPEBGJEE@check?9password?9file?$AA@ 004c329c     options.obj
 0002:000032b4       ??_C@_0CE@LKPLDHBK@Bind?5address?5to?5use?5for?5connecti@ 004c32b4     options.obj
 0002:000032e0       ??_C@_0N@KPFNDBAM@bind?9address?$AA@ 004c32e0     options.obj
 0002:000032f0       ??_C@_0CB@PCBIIIIC@Add?5a?5user?5to?5the?5password?5file?4@ 004c32f0     options.obj
 0002:00003318       ??_C@_08NJCJNMJL@add?9user?$AA@ 004c3318     options.obj
 0002:00003324       ??_C@_0BM@BKPKLHCC@Display?5this?5help?5and?5exit?4?$AA@ 004c3324     options.obj
 0002:00003348       ??_C@_04PCJFHION@help?$AA@ 004c3348     options.obj
 0002:00003350       ??_C@_0L@MFNJLFIO@?4angel?4pid?$AA@ 004c3350     options.obj
 0002:00003368       ??_7User_management_cmd@@6B@ 004c3368     options.obj
 0002:00003378       ??_7Print_password_line_cmd@@6B@ 004c3378     options.obj
 0002:00003388       ??_7Add_user_cmd@@6B@      004c3388     options.obj
 0002:00003398       ??_7Drop_user_cmd@@6B@     004c3398     options.obj
 0002:000033a8       ??_7Edit_user_cmd@@6B@     004c33a8     options.obj
 0002:000033b8       ??_7Clean_db_cmd@@6B@      004c33b8     options.obj
 0002:000033c8       ??_7Check_db_cmd@@6B@      004c33c8     options.obj
 0002:000033d8       ??_7List_users_cmd@@6B@    004c33d8     options.obj
 0002:000033e4       ??_C@_0BI@DFCIJINN@?$CFs?5Ver?5?$CFs?5for?5?$CFs?5on?5?$CFs?6?$AA@ 004c33e4     options.obj
 0002:00003400       ??_C@_05NLDAPMKH@Win32?$AA@ 004c3400     options.obj
 0002:00003408       ??_C@_04OFDIICAA@ia32?$AA@ 004c3408     options.obj
 0002:00003410       ??_C@_0BHO@MDEOLIO@?6The?5following?5options?5may?5be?5gi@ 004c3410     options.obj
 0002:000035dc       ??_C@_0BG@GNEAPHGE@Usage?3?5?$CFs?5?$FLOPTIONS?$FN?5?6?$AA@ 004c35dc     options.obj
 0002:000035f8       ??_C@_0NA@MIEGINGK@Copyright?5?$CIC?$CJ?52003?92007?5MySQL?5AB@ 004c35f8     options.obj
 0002:000036f8       ??_C@_0EJ@JCDHKOH@Error?3?5only?5one?5password?9managem@ 004c36f8     options.obj
 0002:00003750       ??_C@_07MODGBJDN@?4passwd?$AA@ 004c3750     options.obj
 0002:0000375c       ??_C@_06GKHGEOIF@my?4ini?$AA@ 004c375c     options.obj
 0002:00003768       ??_C@_0GO@DAKIGMAO@?9?9username?5and?1or?5?9?9password?5opt@ 004c3768     options.obj
 0002:000037ec       ??_C@_0BM@PFCLOIKI@Loading?5config?5file?5?8?$CFs?8?4?4?4?$AA@ 004c37ec     options.obj
 0002:00003810       ??_C@_0DB@FPDBENAF@Internal?5error?3?5could?5not?5setup?5@ 004c3810     options.obj
 0002:00003850       ??_C@_0GN@NBIDIJLJ@The?5?9?9defaults?9extra?9file?5and?5?9?9@ 004c3850     options.obj
 0002:000038d4       ??_C@_0BH@HNKMCPPG@?9?9defaults?9extra?9file?$DN?$AA@ 004c38d4     options.obj
 0002:000038f0       ??_C@_0BB@LDHKPEKC@?9?9defaults?9file?$DN?$AA@ 004c38f0     options.obj
 0002:00003904       ??_C@_05IEIDFGAH@UNSET?$AA@ 004c3904     parse.obj
 0002:0000390c       ??_C@_04JGPCMMEF@SHOW?$AA@ 004c390c     parse.obj
 0002:00003914       ??_C@_04MDHMLCKF@STOP?$AA@ 004c3914     parse.obj
 0002:0000391c       ??_C@_06DNKMJCIK@STATUS?$AA@ 004c391c     parse.obj
 0002:00003924       ??_C@_05JLPDBANI@START?$AA@ 004c3924     parse.obj
 0002:0000392c       ??_C@_04BJJAFLBC@SLOW?$AA@ 004c392c     parse.obj
 0002:00003934       ??_C@_03KPIFFHNE@SET?$AA@  004c3934     parse.obj
 0002:00003938       ??_C@_07KDKMIPIP@OPTIONS?$AA@ 004c3938     parse.obj
 0002:00003944       ??_C@_03MLIHNEFJ@LOG?$AA@  004c3944     parse.obj
 0002:00003948       ??_C@_09CJBINDHJ@INSTANCES?$AA@ 004c3948     parse.obj
 0002:00003954       ??_C@_08DDHIOBDH@INSTANCE?$AA@ 004c3954     parse.obj
 0002:00003960       ??_C@_07EGGHCNEO@GENERAL?$AA@ 004c3960     parse.obj
 0002:0000396c       ??_C@_05KALGKIBB@FLUSH?$AA@ 004c396c     parse.obj
 0002:00003974       ??_C@_05PENKCLCM@FILES?$AA@ 004c3974     parse.obj
 0002:0000397c       ??_C@_04DENHKGOL@DROP?$AA@ 004c397c     parse.obj
 0002:00003984       ??_C@_06DDGDDNE@CREATE?$AA@ 004c3984     parse.obj
 0002:00003990       ??_7Show_instances@@6B@    004c3990     parse.obj
 0002:000039a0       ??_7Flush_instances@@6B@   004c39a0     parse.obj
 0002:000039b0       ??_7Set_option@@6B@        004c39b0     parse.obj
 0002:000039c8       ??_7Unset_option@@6B@      004c39c8     parse.obj
 0002:000039e0       ??_7Syntax_error@@6B@      004c39e0     parse.obj
 0002:000039f0       ??_7Mysqld_output_parser@?A0x1beba216@@6B@ 004c39f0     parse_output.obj
 0002:00003a08       ??_7Mysqld_output_parser_win@?A0x1beba216@@6B@ 004c3a08     parse_output.obj
 0002:00003a1c       ??_C@_08BPAFEFGI@1?40?9beta?$AA@ 004c3a1c     priv.obj
 0002:00003a28       ?mysqlmanager_version@@3Ust_mysql_lex_string@@B 004c3a28     priv.obj
 0002:00003a30       ?protocol_version@@3EB     004c3a30     priv.obj
 0002:00003a34       ??_C@_0CP@GKJEFFOA@Can?5not?5write?5to?5pid?5file?5?8?$CFs?8?3?5@ 004c3a34     priv.obj
 0002:00003a6c       ??_C@_03PMGGPEJJ@?$CFd?6?$AA@ 004c3a6c     priv.obj
 0002:00003a70       ??_C@_0CN@OBBKEMCL@Can?5not?5create?5pid?5file?5?8?$CFs?8?3?5?$CFs@ 004c3a70     priv.obj
 0002:00003aa8       ??_C@_0CL@FCAPHNPO@Thread_registry?3?5unregistered?5th@ 004c3aa8     thread_registry.obj
 0002:00003adc       ??_C@_0DE@NDBPDJDJ@Invalid?5format?5?$CIunmatched?5quote?$CJ@ 004c3adc     user_map.obj
 0002:00003b1c       ??_C@_0BC@PDKJIDJA@Loaded?5user?5?8?$CFs?8?4?$AA@ 004c3b1c     user_map.obj
 0002:00003b34       ??_C@_0DL@FOHBFFCN@Password?5is?5too?5long?5?$CI?$CFd?$CJ?4?5Max?5l@ 004c3b34     user_map.obj
 0002:00003b7c       ??_C@_0DN@HGKBKDMF@User?5name?5is?5too?5long?5?$CI?$CFd?$CJ?4?5Max?5@ 004c3b7c     user_map.obj
 0002:00003bc8       ??_C@_0DB@NMPOEILG@Invalid?5format?5?$CIno?5delimiter?$CJ?5of@ 004c3bc8     user_map.obj
 0002:00003c04       ??_C@_0BN@PGLFBLJB@password?5file?5?$CI?$CFs?$CJ?5corrupted?$AA@ 004c3c04     user_map.obj
 0002:00003c28       ??_C@_0CP@LBNDNLDH@out?5of?5memory?5while?5parsing?5pass@ 004c3c28     user_map.obj
 0002:00003c60       ??_C@_0CL@CBOHIHHK@The?5password?5database?5loaded?5suc@ 004c3c60     user_map.obj
 0002:00003c94       ??_C@_0CB@MHJJCEGM@Loading?5the?5password?5database?4?4?4@ 004c3c94     user_map.obj
 0002:00003cbc       ??_C@_0CE@OIJOPBDA@can?5not?5open?5password?5file?5?$CI?$CFs?$CJ?3@ 004c3cbc     user_map.obj
 0002:00003ce8       ??_C@_0CC@PHMCNMNC@password?5file?5?$CI?$CFs?$CJ?5does?5not?5exis@ 004c3ce8     user_map.obj
 0002:00003d10       ??_C@_0CI@MBNGKPCN@can?5not?5write?5to?5password?5file?5?$CI@ 004c3d10     user_map.obj
 0002:00003d40       ??_C@_06KCIFIIHN@?$CFs?3?$CFs?6?$AA@ 004c3d40     user_map.obj
 0002:00003d48       ??_C@_0DA@NPDFEMBE@can?5not?5open?5password?5file?5?$CI?$CFs?$CJ?5@ 004c3d48     user_map.obj
 0002:00003d88       ??_7IMService@@6B@         004c3d88     IMService.obj
 0002:00003da8       ??_C@_0N@NFIKJEB@MySqlManager?$AA@ 004c3da8     IMService.obj
 0002:00003db8       ??_C@_0O@ONNFOFNE@MySQL?5Manager?$AA@ 004c3db8     IMService.obj
 0002:00003dc8       ??_C@_0IM@NOFGBDBN@The?5service?5should?5be?5started?5by@ 004c3dc8     IMService.obj
 0002:00003e70       ??_C@_0BO@BDBDHFNP@Service?5failed?5to?5initialize?4?$AA@ 004c3e70     IMService.obj
 0002:00003e94       ??_C@_0CJ@CNAPJDDL@Initializing?5Instance?5Manager?5se@ 004c3e94     IMService.obj
 0002:00003ec8       ??_C@_0BK@IFOJIBEI@Service?5failed?5to?5remove?4?$AA@ 004c3ec8     IMService.obj
 0002:00003ee8       ??_C@_0BO@HJJCINL@Service?5removed?5successfully?4?$AA@ 004c3ee8     IMService.obj
 0002:00003f0c       ??_C@_0BK@LBIFJAII@Service?5is?5not?5installed?4?$AA@ 004c3f0c     IMService.obj
 0002:00003f2c       ??_C@_0BL@ICFMKBII@Service?5failed?5to?5install?4?$AA@ 004c3f2c     IMService.obj
 0002:00003f4c       ??_C@_0CA@BECIKCAO@Service?5installed?5successfully?4?$AA@ 004c3f4c     IMService.obj
 0002:00003f74       ??_C@_0BO@BEOPPBDB@Service?5is?5already?5installed?4?$AA@ 004c3f74     IMService.obj
 0002:00003f9c       ??_7WindowsService@@6B@    004c3f9c     WindowsService.obj
 0002:00003fbc       ??_C@_0BE@GPLHKCHK@ReportStatus?5failed?$AA@ 004c3fbc     WindowsService.obj
 0002:00003fd4       ??_C@_0BC@DEAECJAP@Enter?5user?5name?3?5?$AA@ 004c3fd4     user_management_commands.obj
 0002:00003fec       ??_C@_0DB@KILDAHGC@Error?3?5user?5name?5must?5not?5exceed@ 004c3fec     user_management_commands.obj
 0002:00004028       ??_C@_0CE@BEAEOAEN@Error?3?5user?5name?5can?5not?5be?5empt@ 004c4028     user_management_commands.obj
 0002:00004054       ??_C@_0CN@HDLKOHLA@Error?3?5unable?5to?5read?5user?5name?5@ 004c4054     user_management_commands.obj
 0002:0000408c       ??_C@_0CA@GOLBANMM@Error?3?5passwords?5do?5not?5match?4?6?$AA@ 004c408c     user_management_commands.obj
 0002:000040b4       ??_C@_0BD@NKGLHMFK@Re?9type?5password?3?5?$AA@ 004c40b4     user_management_commands.obj
 0002:000040cc       ??_C@_0BB@LAEJCAEB@Enter?5password?3?5?$AA@ 004c40cc     user_management_commands.obj
 0002:000040e0       ??_C@_0M@KGJPEMDD@Error?3?5?$CFs?4?6?$AA@ 004c40e0     user_management_commands.obj
 0002:000040f0       ??_C@_0CF@OMFDBANG@Error?3?5can?5not?5initialize?5user?5m@ 004c40f0     user_management_commands.obj
 0002:0000411c       ??_C@_0BP@NJIBNPLM@Creating?5record?5for?5new?5user?4?6?$AA@ 004c411c     user_management_commands.obj
 0002:00004144       ??_C@_0CC@DLAOCCBA@Error?3?5user?5?8?$CFs?8?5already?5exists?4@ 004c4144     user_management_commands.obj
 0002:0000416c       ??_C@_0CC@OEEDCFII@Error?3?5user?5?8?$CFs?8?5does?5not?5exist?4@ 004c416c     user_management_commands.obj
 0002:00004194       ??_C@_03OFAPEBGM@?$CFs?6?$AA@ 004c4194     user_management_commands.obj
 0002:00004198       __real@41cfffffff800000    004c4198     password.obj
 0002:000041a4       ??_C@_0L@KDJOJLDL@?$CF08lx?$CF08lx?$AA@ 004c41a4     password.obj
 0002:000041b8       __real@4050000000000000    004c41b8     password.obj
 0002:000041c8       __real@403f000000000000    004c41c8     password.obj
 0002:000041d8       __real@4040800000000000    004c41d8     password.obj
 0002:000041e8       __real@4057800000000000    004c41e8     password.obj
 0002:000041f4       ??_C@_05EKPPILBK@XA102?$AA@ 004c41f4     sql_state.obj
 0002:000041fc       ??_C@_05COJDEOBO@XA106?$AA@ 004c41fc     sql_state.obj
 0002:00004204       ??_C@_05HMFDNFIP@25001?$AA@ 004c4204     sql_state.obj
 0002:0000420c       ??_C@_05BPLBLCNG@22008?$AA@ 004c420c     sql_state.obj
 0002:00004214       ??_C@_05FEENFEFL@XAE08?$AA@ 004c4214     sql_state.obj
 0002:0000421c       ??_C@_05MOHDAJJP@22001?$AA@ 004c421c     sql_state.obj
 0002:00004224       ??_C@_05HIMJOJJI@XA100?$AA@ 004c4224     sql_state.obj
 0002:0000422c       ??_C@_05LHLJINJA@XAE03?$AA@ 004c422c     sql_state.obj
 0002:00004234       ??_C@_05ENFGGFBK@XAE09?$AA@ 004c4234     sql_state.obj
 0002:0000423c       ??_C@_05NDNFEIJE@XAE07?$AA@ 004c423c     sql_state.obj
 0002:00004244       ??_C@_05OBODCKBG@XAE05?$AA@ 004c4244     sql_state.obj
 0002:0000424c       ??_C@_05PIPIBLFH@XAE04?$AA@ 004c424c     sql_state.obj
 0002:00004254       ??_C@_05OEJMDAGL@22012?$AA@ 004c4254     sql_state.obj
 0002:0000425c       ??_C@_05KNKIGLLO@20000?$AA@ 004c425c     sql_state.obj
 0002:00004264       ??_C@_05JKKAJJNF@02000?$AA@ 004c4264     sql_state.obj
 0002:0000426c       ??_C@_05FICIMNHO@24000?$AA@ 004c426c     sql_state.obj
 0002:00004274       ??_C@_05KGENIKJE@2F005?$AA@ 004c4274     sql_state.obj
 0002:0000427c       ??_C@_05EFNJJNGI@70100?$AA@ 004c427c     sql_state.obj
 0002:00004284       ??_C@_05CENCADMK@0A000?$AA@ 004c4284     sql_state.obj
 0002:0000428c       ??_C@_05PABHCNBC@2F003?$AA@ 004c428c     sql_state.obj
 0002:00004294       ??_C@_05JICJKOBJ@22007?$AA@ 004c4294     sql_state.obj
 0002:0000429c       ??_C@_05PMEFGLBN@22003?$AA@ 004c429c     sql_state.obj
 0002:000042a4       ??_C@_05NNAAODAF@01000?$AA@ 004c42a4     sql_state.obj
 0002:000042ac       ??_C@_05JAMIECAO@21000?$AA@ 004c42ac     sql_state.obj
 0002:000042b4       ??_C@_05GCOKLJOC@40001?$AA@ 004c42b4     sql_state.obj
 0002:000042bc       ??_C@_05GFEIOEMO@25000?$AA@ 004c42bc     sql_state.obj
 0002:000042c4       ??_C@_05LDAEPNNK@22004?$AA@ 004c42c4     sql_state.obj
 0002:000042cc       ??_C@_05BLFGILJL@42S12?$AA@ 004c42cc     sql_state.obj
 0002:000042d4       ??_C@_05IFAOCAIO@s1009?$AA@ 004c42d4     sql_state.obj
 0002:000042dc       ??_C@_05DCDNGGAB@42S21?$AA@ 004c42dc     sql_state.obj
 0002:000042e4       ??_C@_05KAEACLKC@21S01?$AA@ 004c42e4     sql_state.obj
 0002:000042ec       ??_C@_05ICKCCFLI@S1009?$AA@ 004c42ec     sql_state.obj
 0002:000042f4       ??_C@_05FPLCABKN@S0022?$AA@ 004c42f4     sql_state.obj
 0002:000042fc       ??_C@_05BJBADFMC@42S22?$AA@ 004c42fc     sql_state.obj
 0002:00004304       ??_C@_05BKJEOBKM@42S02?$AA@ 004c4304     sql_state.obj
 0002:0000430c       ??_C@_05DBLJLCGP@42S01?$AA@ 004c430c     sql_state.obj
 0002:00004314       ??_C@_05GKKGPOBE@3D000?$AA@ 004c4314     sql_state.obj
 0002:0000431c       ??_C@_05JNNICAHP@28000?$AA@ 004c431c     sql_state.obj
 0002:00004324       ??_C@_05BDBNLMD@42000?$AA@ 004c4324     sql_state.obj
 0002:0000432c       ??_C@_05OAJIOINI@08S01?$AA@ 004c432c     sql_state.obj
 0002:00004334       ??_C@_05LEHMEEHA@08004?$AA@ 004c4334     sql_state.obj
 0002:0000433c       ??_C@_05EKHLKPLA@S1001?$AA@ 004c433c     sql_state.obj
 0002:00004344       ??_C@_05IKCIGBGE@HY001?$AA@ 004c4344     sql_state.obj
 0002:0000434c       ??_C@_05OKAIBBGO@23000?$AA@ 004c434c     sql_state.obj
 0002:00004354       ??_C@_05JDDDFACF@HY000?$AA@ 004c4354     sql_state.obj
 0002:0000435c       ??_C@_06HPIPGHLH@MEMORY?$AA@ 004c435c     client.obj
 0002:00004364       ??_C@_04GGAEFGO@PIPE?$AA@  004c4364     client.obj
 0002:0000436c       ??_C@_06HFGAEBMM@SOCKET?$AA@ 004c436c     client.obj
 0002:00004374       ??_C@_03FCLDNGNL@TCP?$AA@  004c4374     client.obj
 0002:00004378       ??_C@_07FOPBDDAL@options?$AA@ 004c4378     client.obj
 0002:00004384       ??_C@_0BH@BONNBGIA@report?9data?9truncation?$AA@ 004c4384     client.obj
 0002:000043a0       ??_C@_0M@PMDPKFDA@secure?9auth?$AA@ 004c43a0     client.obj
 0002:000043b0       ??_C@_0O@IGPGCENI@multi?9queries?$AA@ 004c43b0     client.obj
 0002:000043c0       ??_C@_0BB@ECMBLIEH@multi?9statements?$AA@ 004c43c0     client.obj
 0002:000043d4       ??_C@_0O@CCDCLLBG@multi?9results?$AA@ 004c43d4     client.obj
 0002:000043e4       ??_C@_0BI@FOKNPLJP@shared?9memory?9base?9name?$AA@ 004c43e4     client.obj
 0002:00004400       ??_C@_08FCFPNNHF@protocol?$AA@ 004c4400     client.obj
 0002:0000440c       ??_C@_0BD@OFGLABCB@max?9allowed?9packet?$AA@ 004c440c     client.obj
 0002:00004424       ??_C@_0L@PHBCGEDL@ssl?9cipher?$AA@ 004c4424     client.obj
 0002:00004434       ??_C@_0BB@HNHJLDBF@repl?9parse?9query?$AA@ 004c4434     client.obj
 0002:00004448       ??_C@_0BJ@JAEAFHJM@enable?9reads?9from?9master?$AA@ 004c4448     client.obj
 0002:00004468       ??_C@_0BC@BKIPLOIH@replication?9probe?$AA@ 004c4468     client.obj
 0002:00004480       ??_C@_0BF@DNHMICAO@disable?9local?9infile?$AA@ 004c4480     client.obj
 0002:0000449c       ??_C@_0N@DEPIEDDP@local?9infile?$AA@ 004c449c     client.obj
 0002:000044ac       ??_C@_0BA@PKFDCPCI@connect?9timeout?$AA@ 004c44ac     client.obj
 0002:000044c0       ??_C@_0BE@PKKGFOHM@interactive?9timeout?$AA@ 004c44c0     client.obj
 0002:000044d8       ??_C@_0BG@BMMCDGOA@default?9character?9set?$AA@ 004c44d8     client.obj
 0002:000044f4       ??_C@_0BD@HPLEKGGN@character?9sets?9dir?$AA@ 004c44f4     client.obj
 0002:0000450c       ??_C@_0L@MLIAJKEA@ssl?9capath?$AA@ 004c450c     client.obj
 0002:0000451c       ??_C@_06KEIFHGI@ssl?9ca?$AA@ 004c451c     client.obj
 0002:00004524       ??_C@_08MLGPLICL@ssl?9cert?$AA@ 004c4524     client.obj
 0002:00004530       ??_C@_07HPCDODLB@ssl?9key?$AA@ 004c4530     client.obj
 0002:0000453c       ??_C@_0BC@CPNNNMD@return?9found?9rows?$AA@ 004c453c     client.obj
 0002:00004554       ??_C@_05GFCDIDHO@debug?$AA@ 004c4554     client.obj
 0002:0000455c       ??_C@_08PBOCEOLL@database?$AA@ 004c455c     client.obj
 0002:00004568       ??_C@_04OODOLJMA@host?$AA@ 004c4568     client.obj
 0002:00004570       ??_C@_0N@CJBLNCLF@init?9command?$AA@ 004c4570     client.obj
 0002:00004580       ??_C@_04CCHAHKJA@user?$AA@ 004c4580     client.obj
 0002:00004588       ??_C@_07DDHNKDGP@timeout?$AA@ 004c4588     client.obj
 0002:00004594       ??_C@_04MKFKKHBG@pipe?$AA@ 004c4594     client.obj
 0002:0000459c       ??_C@_08EJNPIMGB@compress?$AA@ 004c459c     client.obj
 0002:000045a8       ??_C@_05MJALLADF@08001?$AA@ 004c45a8     client.obj
 0002:000045b0       ??_C@_05OAGAMKLF@00000?$AA@ 004c45b0     client.obj
 0002:000045b8       ??_C@_02HDBGODGB@?2?2?$AA@ 004c45b8     client.obj
 0002:000045bc       ??_C@_06CKMLAALA@?2pipe?2?$AA@ 004c45bc     client.obj
 0002:000045c4       ??_C@_01LFCBOECM@?4?$AA@   004c45c4     client.obj
 0002:000045c8       ??_C@_0L@MKBJOBHN@Windows_NT?$AA@ 004c45c8     client.obj
 0002:000045d8       ??_C@_02OKOOOCIH@OS?$AA@   004c45d8     client.obj
 0002:000045dc       ??_C@_0CA@ONJAFPFC@Unknown?5option?5to?5protocol?3?5?$CFs?6?$AA@ 004c45dc     client.obj
 0002:00004604       ??_C@_06DGDLPBAN@client?$AA@ 004c4604     client.obj
 0002:0000460c       ??_C@_04ODABKPJA@?1CN?$DN?$AA@ 004c460c     client.obj
 0002:00004614       ??_C@_0CP@EINHLMKL@COLLATION?5?$CFs?5is?5not?5valid?5for?5CH@ 004c4614     client.obj
 0002:0000464c       ??_C@_0BC@BNNCKLMG@latin1_swedish_ci?$AA@ 004c464c     client.obj
 0002:00004664       ??_C@_06CDEFMFPB@latin1?$AA@ 004c4664     client.obj
 0002:0000466c       ??_C@_0N@HAKKOMP@SET?5NAMES?5?$CFs?$AA@ 004c466c     client.obj
 0002:0000467c       ??_C@_0CD@CIHNPOGB@sending?5authentication?5informati@ 004c467c     client.obj
 0002:000046a8       ??_C@_0BJ@EDEHFNCE@Setting?5intital?5database?$AA@ 004c46a8     client.obj
 0002:000046c8       ??_C@_0BN@NHONKCFH@sending?5password?5information?$AA@ 004c46c8     client.obj
 0002:000046ec       ??_C@_0CC@FOKDGKNL@reading?5final?5connect?5informatio@ 004c46ec     client.obj
 0002:00004714       ??_C@_0BN@IKPBBPKC@reading?5authorization?5packet?$AA@ 004c4714     client.obj
 0002:00004738       ??_C@_0CJ@OKBDLPBM@sending?5connection?5information?5t@ 004c4738     client.obj
 0002:0000476c       ??_C@_0CF@JIJHEKCB@reading?5initial?5communication?5pa@ 004c476c     client.obj
 0002:00004798       ??_C@_0CJ@GFOPAJCF@waiting?5for?5initial?5communicatio@ 004c4798     client.obj
 0002:000047cc       ??_C@_05OBDDCBJC@MySQL?$AA@ 004c47cc     client.obj
 0002:000047d4       ??_C@_02LOEMLMCB@my?$AA@   004c47d4     client.obj
 0002:000047d8       ??_C@_01NBENCBCI@?$CK?$AA@ 004c47d8     get_password.obj
 0002:000047dc       ??_C@_03OLJLMEOE@?$AI?5?$AI?$AA@ 004c47dc     get_password.obj
 0002:000047e0       ??_C@_0KP@MJIINCCO@The?5number?5of?5columns?5in?5the?5res@ 004c47e0     errmsg.obj
 0002:000048b4       ??_C@_0DO@EFIILPCK@Statement?5closed?5indirectly?5beca@ 004c48b4     errmsg.obj
 0002:00004900       ??_C@_0DK@NDNCLJNI@Lost?5connection?5to?5MySQL?5server?5@ 004c4900     errmsg.obj
 0002:00004948       ??_C@_0CE@HBOGEKGA@This?5feature?5is?5not?5implemented?5@ 004c4948     errmsg.obj
 0002:00004978       ??_C@_0FB@FBBFBAHN@Attempt?5to?5read?5a?5row?5while?5ther@ 004c4978     errmsg.obj
 0002:000049dc       ??_C@_0CI@HALOFLAE@Prepared?5statement?5contains?5no?5m@ 004c49dc     errmsg.obj
 0002:00004a0c       ??_C@_0CP@CONJDJBD@Attempt?5to?5read?5column?5without?5p@ 004c4a0c     errmsg.obj
 0002:00004a44       ??_C@_0DG@NCJJHECB@Row?5retrieval?5was?5canceled?5by?5my@ 004c4a44     errmsg.obj
 0002:00004a88       ??_C@_0GH@LCEGFGKM@Connection?5using?5old?5?$CIpre?94?41?41?$CJ@ 004c4a88     errmsg.obj
 0002:00004b04       ??_C@_0BK@JMIMHFDF@Invalid?5connection?5handle?$AA@ 004c4b04     errmsg.obj
 0002:00004b24       ??_C@_0BK@GLFMEDLO@Wrong?5or?5unknown?5protocol?$AA@ 004c4b24     errmsg.obj
 0002:00004b48       ??_C@_0EE@IPCCLOKB@Can?8t?5open?5shared?5memory?$DL?5cannot@ 004c4b48     errmsg.obj
 0002:00004b9c       ??_C@_0DG@KGBHPOJD@Can?8t?5open?5shared?5memory?$DL?5no?5ans@ 004c4b9c     errmsg.obj
 0002:00004be0       ??_C@_0EB@MDFKCBGN@Can?8t?5open?5shared?5memory?$DL?5client@ 004c4be0     errmsg.obj
 0002:00004c30       ??_C@_0EN@FCGLLCJK@Can?8t?5open?5shared?5memory?$DL?5client@ 004c4c30     errmsg.obj
 0002:00004c90       ??_C@_0EH@LNAOKCEE@Can?8t?5open?5shared?5memory?$DL?5client@ 004c4c90     errmsg.obj
 0002:00004ce8       ??_C@_0EN@PMIKFHIB@Can?8t?5open?5shared?5memory?$DL?5server@ 004c4ce8     errmsg.obj
 0002:00004d48       ??_C@_0EH@KCLOIILK@Can?8t?5open?5shared?5memory?$DL?5server@ 004c4d48     errmsg.obj
 0002:00004da0       ??_C@_0EF@KIGDFHBB@Can?8t?5open?5shared?5memory?$DL?5no?5ans@ 004c4da0     errmsg.obj
 0002:00004df8       ??_C@_0EG@BEPMLGLN@Can?8t?5open?5shared?5memory?$DL?5client@ 004c4df8     errmsg.obj
 0002:00004e4c       ??_C@_0BH@OHMIMHCN@Shared?5memory?3?5?$CF?9?4100s?$AA@ 004c4e4c     errmsg.obj
 0002:00004e68       ??_C@_0DD@HBOCKDGH@Using?5unsupported?5buffer?5type?3?5?$CF@ 004c4e68     errmsg.obj
 0002:00004ea8       ??_C@_0EK@GGAINION@Can?8t?5send?5long?5data?5for?5non?9str@ 004c4ea8     errmsg.obj
 0002:00004f00       ??_C@_0BJ@LEKCEENG@Invalid?5parameter?5number?$AA@ 004c4f00     errmsg.obj
 0002:00004f20       ??_C@_0CF@OAFCOHEP@No?5parameters?5exist?5in?5the?5state@ 004c4f20     errmsg.obj
 0002:00004f4c       ??_C@_0P@KJHDOAKM@Data?5truncated?$AA@ 004c4f4c     errmsg.obj
 0002:00004f60       ??_C@_0DG@PGNJOEPP@No?5data?5supplied?5for?5parameters?5@ 004c4f60     errmsg.obj
 0002:00004fa0       ??_C@_0BH@OCBFPEOC@Statement?5not?5prepared?$AA@ 004c4fa0     errmsg.obj
 0002:00004fbc       ??_C@_0BM@EEGCMMPG@Invalid?5use?5of?5null?5pointer?$AA@ 004c4fbc     errmsg.obj
 0002:00004fe0       ??_C@_0FE@HLHPGJMI@This?5client?5library?5is?5licensed?5@ 004c4fe0     errmsg.obj
 0002:00005044       ??_C@_0BB@DAKKIOKN@Malformed?5packet?$AA@ 004c5044     errmsg.obj
 0002:00005058       ??_C@_0BF@GNKPEKCC@SSL?5connection?5error?$AA@ 004c5058     errmsg.obj
 0002:00005074       ??_C@_0BM@DBHHCLGE@Error?5connecting?5to?5master?3?$AA@ 004c5074     errmsg.obj
 0002:00005098       ??_C@_0BL@NMFPGPDF@Error?5connecting?5to?5slave?3?$AA@ 004c5098     errmsg.obj
 0002:000050b8       ??_C@_0BL@BDOEBOAG@Error?5on?5SHOW?5SLAVE?5HOSTS?3?$AA@ 004c50b8     errmsg.obj
 0002:000050d8       ??_C@_0BM@KEKCHGPI@Error?5on?5SHOW?5SLAVE?5STATUS?3?$AA@ 004c50d8     errmsg.obj
 0002:000050fc       ??_C@_0BA@JILIEPGI@Embedded?5server?$AA@ 004c50fc     errmsg.obj
 0002:00005110       ??_C@_0DC@PLGHDHHE@Got?5packet?5bigger?5than?5?8max_allo@ 004c5110     errmsg.obj
 0002:0000514c       ??_C@_0DG@MMIKLOLE@Can?8t?5initialize?5character?5set?5?$CF@ 004c514c     errmsg.obj
 0002:00005190       ??_C@_0EC@JBHOMNCI@Can?8t?5set?5state?5of?5named?5pipe?5to@ 004c5190     errmsg.obj
 0002:000051e0       ??_C@_0DK@DGFLNGLM@Can?8t?5open?5named?5pipe?5to?5host?3?5?$CF@ 004c51e0     errmsg.obj
 0002:00005228       ??_C@_0DO@MCIKAJJD@Can?8t?5wait?5for?5named?5pipe?5to?5hos@ 004c5228     errmsg.obj
 0002:00005274       ??_C@_0BD@MONBAMLI@Named?5pipe?3?5?$CF?9?432s?$AA@ 004c5274     errmsg.obj
 0002:0000528c       ??_C@_0DF@GGAOFKDM@Commands?5out?5of?5sync?$DL?5you?5can?8t?5@ 004c528c     errmsg.obj
 0002:000052cc       ??_C@_0CN@MCPHLMHK@Lost?5connection?5to?5MySQL?5server?5@ 004c52cc     errmsg.obj
 0002:00005304       ??_C@_0BK@OPFAEJOB@Error?5in?5server?5handshake?$AA@ 004c5304     errmsg.obj
 0002:00005324       ??_C@_0BD@JHCOEEJ@?$CF?9?4100s?5via?5TCP?1IP?$AA@ 004c5324     errmsg.obj
 0002:0000533c       ??_C@_0BK@OAJGGGIC@Localhost?5via?5UNIX?5socket?$AA@ 004c533c     errmsg.obj
 0002:0000535c       ??_C@_0BA@OBGODAJN@Wrong?5host?5info?$AA@ 004c535c     errmsg.obj
 0002:00005370       ??_C@_0BP@LPGLBKOF@MySQL?5client?5ran?5out?5of?5memory?$AA@ 004c5370     errmsg.obj
 0002:00005398       ??_C@_0DM@BHKAADIN@Protocol?5mismatch?$DL?5server?5versio@ 004c5398     errmsg.obj
 0002:000053e0       ??_C@_0BL@GGNHAOJF@MySQL?5server?5has?5gone?5away?$AA@ 004c53e0     errmsg.obj
 0002:00005400       ??_C@_0CJ@MGNDPAC@Unknown?5MySQL?5server?5host?5?8?$CF?9?410@ 004c5400     errmsg.obj
 0002:00005434       ??_C@_0CA@NNJEMGCD@Can?8t?5create?5TCP?1IP?5socket?5?$CI?$CFd?$CJ?$AA@ 004c5434     errmsg.obj
 0002:0000545c       ??_C@_0DA@DGOLCCI@Can?8t?5connect?5to?5MySQL?5server?5on@ 004c545c     errmsg.obj
 0002:00005498       ??_C@_0EC@FCNCJBBO@Can?8t?5connect?5to?5local?5MySQL?5ser@ 004c5498     errmsg.obj
 0002:000054e8       ??_C@_0BO@EGFBLII@Can?8t?5create?5UNIX?5socket?5?$CI?$CFd?$CJ?$AA@ 004c54e8     errmsg.obj
 0002:0000550c       ??_C@_0BE@OOMFAHBF@Unknown?5MySQL?5error?$AA@ 004c550c     errmsg.obj
 0002:00005524       ??_C@_04LHHHFLPP@utf8?$AA@ 004c5524     mysys:charset.obj
 0002:0000552c       ??_C@_04JKLLLNMI@ucs2?$AA@ 004c552c     mysys:charset.obj
 0002:00005534       ??_C@_09NKDKDEJM@charsets?1?$AA@ 004c5534     mysys:charset.obj
 0002:00005540       ??_C@_0CJ@GPDDGFPJ@c?3?1Program?5Files?1MySQL?1MySQL?5Ser@ 004c5540     mysys:charset.obj
 0002:0000556c       ??_C@_05KGKMKOAF@share?$AA@ 004c556c     mysys:charset.obj
 0002:00005574       ??_C@_09NJBIMGLE@Index?4xml?$AA@ 004c5574     mysys:charset.obj
 0002:00005580       ??_C@_01OGPIMHDM@?$DP?$AA@ 004c5580     mysys:charset.obj
 0002:00005584       ??_C@_04GAOAGNCM@?4xml?$AA@ 004c5584     mysys:charset.obj
 0002:0000558c       ??_C@_05HPPBHLPE@cp932?$AA@ 004c558c     mysys:charset.obj
 0002:00005594       ??_C@_02GFBACKGC@cp?$AA@   004c5594     mysys:charset.obj
 0002:00005598       ??_C@_04KOCLJNO@LPT9?$AA@  004c5598     mysys:my_access.obj
 0002:000055a0       ??_C@_04BDPJIIJP@LPT8?$AA@ 004c55a0     mysys:my_access.obj
 0002:000055a8       ??_C@_04JEGBJEFA@LPT7?$AA@ 004c55a8     mysys:my_access.obj
 0002:000055b0       ??_C@_04INHKKFBB@LPT6?$AA@ 004c55b0     mysys:my_access.obj
 0002:000055b8       ??_C@_04KGFHPGNC@LPT5?$AA@ 004c55b8     mysys:my_access.obj
 0002:000055c0       ??_C@_04LPEMMHJD@LPT4?$AA@ 004c55c0     mysys:my_access.obj
 0002:000055c8       ??_C@_04PAANFBFE@LPT3?$AA@ 004c55c8     mysys:my_access.obj
 0002:000055d0       ??_C@_04OJBGGABF@LPT2?$AA@ 004c55d0     mysys:my_access.obj
 0002:000055d8       ??_C@_04MCDLDDNG@LPT1?$AA@ 004c55d8     mysys:my_access.obj
 0002:000055e0       ??_C@_04JDDPPBDJ@COM9?$AA@ 004c55e0     mysys:my_access.obj
 0002:000055e8       ??_C@_04IKCEMAHI@COM8?$AA@ 004c55e8     mysys:my_access.obj
 0002:000055f0       ??_C@_04NLMNMLH@COM7?$AA@  004c55f0     mysys:my_access.obj
 0002:000055f8       ??_C@_04BEKHONPG@COM6?$AA@ 004c55f8     mysys:my_access.obj
 0002:00005600       ??_C@_04DPIKLODF@COM5?$AA@ 004c5600     mysys:my_access.obj
 0002:00005608       ??_C@_04CGJBIPHE@COM4?$AA@ 004c5608     mysys:my_access.obj
 0002:00005610       ??_C@_04GJNABJLD@COM3?$AA@ 004c5610     mysys:my_access.obj
 0002:00005618       ??_C@_04HAMLCIPC@COM2?$AA@ 004c5618     mysys:my_access.obj
 0002:00005620       ??_C@_04FLOGHLDB@COM1?$AA@ 004c5620     mysys:my_access.obj
 0002:00005628       ??_C@_03JDMLODLP@NUL?$AA@  004c5628     mysys:my_access.obj
 0002:0000562c       ??_C@_03OFAGCELM@AUX?$AA@  004c562c     mysys:my_access.obj
 0002:00005630       ??_C@_03BEHELHBE@PRN?$AA@  004c5630     mysys:my_access.obj
 0002:00005634       ??_C@_03ECCGHPEG@CON?$AA@  004c5634     mysys:my_access.obj
 0002:00005638       ??_C@_06LBMPDOLO@CLOCK$?$AA@ 004c5638     mysys:my_access.obj
 0002:00005640       ??_C@_04BPFBOLGB@?4cnf?$AA@ 004c5640     mysys:default.obj
 0002:00005648       ??_C@_04PHHEBHMK@?4ini?$AA@ 004c5648     mysys:default.obj
 0002:00005664       ??_C@_0BJ@KIKAGLAC@?9?9defaults?9group?9suffix?$DN?$AA@ 004c5664     mysys:default.obj
 0002:00005680       ??_C@_0DM@LOBIDFGL@error?3?5Wrong?5?8?$CB?$CFs?8?5directive?5in?5@ 004c5680     mysys:default.obj
 0002:000056bc       ??_C@_09FJGNFLHN@?2System32?$AA@ 004c56bc     mysys:default.obj
 0002:000056c8       ??_C@_0N@MDJJJHMB@kernel32?4dll?$AA@ 004c56c8     mysys:default.obj
 0002:000056d8       ??_C@_0BL@CAKPALPI@GetSystemWindowsDirectoryA?$AA@ 004c56d8     mysys:default.obj
 0002:000056f4       ??_C@_0L@DODNGCIN@MYSQL_HOME?$AA@ 004c56f4     mysys:default.obj
 0002:00005700       ??_C@_03GMPKIPBL@C?3?1?$AA@ 004c5700     mysys:default.obj
 0002:00005708       ??_C@_0EM@DMHOPFHM@error?3?5Found?5option?5without?5prec@ 004c5708     mysys:default.obj
 0002:00005754       ??_C@_0DN@MBLPBICC@error?3?5Wrong?5group?5definition?5in@ 004c5754     mysys:default.obj
 0002:00005798       ??_C@_0GG@GBLJMDFL@Warning?3?5skipping?5?8?$CFs?8?5directive@ 004c5798     mysys:default.obj
 0002:00005800       ??_C@_01CLKCMJKC@?5?$AA@   004c5800     mysys:default.obj
 0002:00005804       ??_C@_0DF@OKDAKIKM@Internal?5error?5initializing?5defa@ 004c5804     mysys:default.obj
 0002:00005840       ??_C@_0EH@NKGMIPDP@?6Default?5options?5are?5read?5from?5t@ 004c5840     mysys:default.obj
 0002:00005888       ??_C@_0BFH@LPFPCOIJ@?6The?5following?5options?5may?5be?5gi@ 004c5888     mysys:default.obj
 0002:000059e0       ??_C@_0BP@MNBILDMG@The?5following?5groups?5are?5read?3?$AA@ 004c59e0     mysys:default.obj
 0002:00005a00       ??_C@_0DD@BMIFLCG@Fatal?5error?5in?5defaults?5handling@ 004c5a00     mysys:default.obj
 0002:00005a34       ??_C@_0CL@DPGKONAJ@Could?5not?5open?5required?5defaults@ 004c5a34     mysys:default.obj
 0002:00005a60       ??_C@_0BD@GMCINPDE@MYSQL_GROUP_SUFFIX?$AA@ 004c5a60     mysys:default.obj
 0002:00005a74       ??_C@_03IKGEINEE@?$CFs?5?$AA@ 004c5a74     mysys:default.obj
 0002:00005a78       ??_C@_0DK@MHCNAEBD@?$CFs?5would?5have?5been?5started?5with?5@ 004c5a78     mysys:default.obj
 0002:00005ab4       ??_C@_0BB@BKNLJB@?9?9print?9defaults?$AA@ 004c5ab4     mysys:default.obj
 0002:00005ac8       ??_C@_08LMJEPNLL@defaults?$AA@ 004c5ac8     mysys:default.obj
 0002:00005ad4       ??_C@_02DJGKEECL@?4?4?$AA@ 004c5ad4     mysys:mf_loadpath.obj
 0002:00005ad8       ??_C@_07CCIHIKOK@no_name?$AA@ 004c5ad8     mysys:my_thr_init.obj
 0002:00005ae0       ??_C@_0CE@CLEEBIJB@Can?8t?5initialize?5threads?3?5error?5@ 004c5ae0     mysys:my_thr_init.obj
 0002:00005b04       ??_C@_0BL@LPICHLF@01230120022455012623010202?$AA@ 004c5b04     mysys:my_static.obj
 0002:00005b20       ??_C@_0BA@KPMGBOMG@?$CFs?4?$CF08X?4deleted?$AA@ 004c5b20     mysys:my_delete.obj
 0002:00005b30       ??_C@_0P@NEKPODBM@SOFTWARE?2MySQL?$AA@ 004c5b30     mysys:my_init.obj
 0002:00005b40       ??_C@_0L@LKJCDLMN@HAVE_TCPIP?$AA@ 004c5b40     mysys:my_init.obj
 0002:00005b4c       ??_C@_0DF@KNCKAEOE@SYSTEM?2CurrentControlSet?2Service@ 004c5b4c     mysys:my_init.obj
 0002:00005b84       ??_C@_0DG@NPLBFMIJ@SYSTEM?2CurrentControlSet?2Service@ 004c5b84     mysys:my_init.obj
 0002:00005bbc       ??_C@_0DD@IKBMIFKO@SYSTEM?2CurrentControlSet?2Service@ 004c5bbc     mysys:my_init.obj
 0002:00005bf0       ??_C@_09KHPDOLMK@UMASK_DIR?$AA@ 004c5bf0     mysys:my_init.obj
 0002:00005bfc       ??_C@_05OMMCGCJP@UMASK?$AA@ 004c5bfc     mysys:my_init.obj
 0002:00005c04       ??_C@_04GHGFPGNC@HOME?$AA@ 004c5c04     mysys:my_init.obj
 0002:00005c0c       ??_C@_05HBBNPFP@loose?$AA@ 004c5c0c     mysys:my_getopt.obj
 0002:00005c14       ??_C@_07MEIENILC@maximum?$AA@ 004c5c14     mysys:my_getopt.obj
 0002:00005c1c       ??_C@_06OFNJOBDK@enable?$AA@ 004c5c1c     mysys:my_getopt.obj
 0002:00005c24       ??_C@_07DBNODEFN@disable?$AA@ 004c5c24     mysys:my_getopt.obj
 0002:00005c2c       ??_C@_04DLBGLKG@skip?$AA@  004c5c2c     mysys:my_getopt.obj
 0002:00005c4c       ??_C@_02DKCKIIND@?$CFs?$AA@ 004c5c4c     mysys:my_getopt.obj
 0002:00005c50       ??_C@_06EILBFPFN@Info?3?5?$AA@ 004c5c50     mysys:my_getopt.obj
 0002:00005c58       ??_C@_09CKCJCCOK@Warning?3?5?$AA@ 004c5c58     mysys:my_getopt.obj
 0002:00005c64       ??_C@_0DJ@LCKGBNKC@Unknown?5suffix?5?8?$CFc?8?5used?5for?5var@ 004c5c64     mysys:my_getopt.obj
 0002:00005ca0       ??_C@_0BO@MNLPLDPE@Incorrect?5integer?5value?3?5?8?$CFs?8?$AA@ 004c5ca0     mysys:my_getopt.obj
 0002:00005cc0       ??_C@_0CM@CINNIGFM@option?5?8?$CFs?8?3?5signed?5value?5?$CFs?5adj@ 004c5cc0     mysys:my_getopt.obj
 0002:00005cec       ??_C@_0CO@JEKLPIGP@option?5?8?$CFs?8?3?5unsigned?5value?5?$CFs?5a@ 004c5cec     mysys:my_getopt.obj
 0002:00005d20       __real@0000000000000000    004c5d20     mysys:my_getopt.obj
 0002:00005d28       ??_C@_0DC@CLHAAIAH@?$CFs?3?5ERROR?3?5Invalid?5decimal?5value@ 004c5d28     mysys:my_getopt.obj
 0002:00005d5c       ??_C@_0L@PIHEMIFO@?$CFs?$DNname?$CFs?5?$AA@ 004c5d5c     mysys:my_getopt.obj
 0002:00005d68       ??_C@_07JMJBGKBC@?$CFs?$DN?$CD?$CFs?5?$AA@ 004c5d68     mysys:my_getopt.obj
 0002:00005d70       ??_C@_04GIEADKIK@?9?9?$CFs?$AA@ 004c5d70     mysys:my_getopt.obj
 0002:00005d78       ??_C@_07NACDLBD@?5?5?9?$CFc?$CFs?$AA@ 004c5d78     mysys:my_getopt.obj
 0002:00005d80       ??_C@_02KNHHEEKP@?5?5?$AA@ 004c5d80     mysys:my_getopt.obj
 0002:00005d84       ??_C@_02KEGNLNML@?0?5?$AA@ 004c5d84     mysys:my_getopt.obj
 0002:00005d88       ??_C@_0M@EPOBBBBF@?$CIDisabled?$CJ?6?$AA@ 004c5d88     mysys:my_getopt.obj
 0002:00005d94       ??_C@_03POCAEKMA@?$CFg?6?$AA@ 004c5d94     mysys:my_getopt.obj
 0002:00005d98       ??_C@_04OJNJKCBM@?$CFlu?6?$AA@ 004c5d98     mysys:my_getopt.obj
 0002:00005da0       ??_C@_04PEDNGLFL@?$CFld?6?$AA@ 004c5da0     mysys:my_getopt.obj
 0002:00005da8       ??_C@_05MAJJAKPI@FALSE?$AA@ 004c5da8     mysys:my_getopt.obj
 0002:00005db0       ??_C@_04HCDDPBNL@TRUE?$AA@ 004c5db0     mysys:my_getopt.obj
 0002:00005db8       ??_C@_03CGNBMCEI@?$CFs?0?$AA@ 004c5db8     mysys:my_getopt.obj
 0002:00005dbc       ??_C@_0BD@IAAJELIC@?$CINo?5default?5value?$CJ?$AA@ 004c5dbc     mysys:my_getopt.obj
 0002:00005dd0       ??_C@_0EB@DLNDDEIC@?9?9?9?9?9?9?9?9?9?9?9?9?9?9?9?9?9?9?9?9?9?9?9?9?9?9?9?9?9?9?9?9@ 004c5dd0     mysys:my_getopt.obj
 0002:00005e18       ??_C@_0EB@MLHGNKOO@and?5boolean?5options?5?$HLFALSE?$HMTRUE?$HN@ 004c5e18     mysys:my_getopt.obj
 0002:00005e5c       ??_C@_0CE@PGFPJDHK@?6Variables?5?$CI?9?9variable?9name?$DNvalu@ 004c5e5c     mysys:my_getopt.obj
 0002:00005e80       ??_C@_0CH@FPNHAJDD@?$CFs?3?5option?5?8?9?9?$CFs?8?5requires?5an?5ar@ 004c5e80     mysys:my_getopt.obj
 0002:00005ea8       ??_C@_0CK@KELFDMIH@?$CFs?3?5option?5?8?9?9?$CFs?8?5cannot?5take?5an@ 004c5ea8     mysys:my_getopt.obj
 0002:00005ed4       ??_C@_0CI@IFAFNNJB@?$CFs?3?5option?5?8?$CFs?8?5cannot?5take?5an?5a@ 004c5ed4     mysys:my_getopt.obj
 0002:00005efc       ??_C@_0CF@LIKIEIBC@?$CFs?3?5ambiguous?5option?5?8?9?9?$CFs?8?5?$CI?$CFs?0@ 004c5efc     mysys:my_getopt.obj
 0002:00005f24       ??_C@_0CH@NLLNKKKI@?$CFs?3?5variable?5prefix?5?8?$CFs?8?5is?5not?5@ 004c5f24     mysys:my_getopt.obj
 0002:00005f4c       ??_C@_0CJ@FNGIKGPP@?$CFs?3?5ambiguous?5option?5?8?9?9?$CFs?9?$CFs?8?5?$CI@ 004c5f4c     mysys:my_getopt.obj
 0002:00005f78       ??_C@_0CF@MFEIKBHA@?$CFs?3?5Option?5?8?9O?8?5requires?5an?5argu@ 004c5f78     mysys:my_getopt.obj
 0002:00005fa0       ??_C@_0BJ@PLKIKLOO@?$CFs?3?5unknown?5option?5?8?9?$CFc?8?$AA@ 004c5fa0     mysys:my_getopt.obj
 0002:00005fbc       ??_C@_0CL@CIFFNEPP@?$CFs?3?5Error?5while?5setting?5value?5?8?$CF@ 004c5fbc     mysys:my_getopt.obj
 0002:00005fe8       ??_C@_0CG@OPCNLHEP@?$CFs?3?5option?5?8?9?$CFc?8?5requires?5an?5arg@ 004c5fe8     mysys:my_getopt.obj
 0002:00006010       ??_C@_0CP@OAGPFOL@?$CFs?3?5ERROR?3?5Option?5?8?9?$CFc?8?5used?0?5bu@ 004c6010     mysys:my_getopt.obj
 0002:00006040       ??_C@_0DF@NCABEMAI@?$CFs?3?5ignoring?5option?5?8?9?9?$CFs?8?5due?5t@ 004c6040     mysys:my_getopt.obj
 0002:00006078       ??_C@_05LAPONLG@false?$AA@ 004c6078     mysys:my_getopt.obj
 0002:00006080       ??_C@_04LOAJBDKD@true?$AA@ 004c6080     mysys:my_getopt.obj
 0002:00006088       ??_C@_0CL@BLOGDLDC@?$CFs?3?5?$CFs?3?5Option?5?8?$CFs?8?5used?0?5but?5is@ 004c6088     mysys:my_getopt.obj
 0002:000060b4       ??_C@_07KCOHIFOP@WARNING?$AA@ 004c60b4     mysys:my_getopt.obj
 0002:000060bc       ??_C@_0BK@HIDGBPPN@?$CFs?3?5unknown?5option?5?8?9?9?$CFs?8?$AA@ 004c60bc     mysys:my_getopt.obj
 0002:000060d8       ??_C@_0BK@JFALHNEE@?$CFs?3?5unknown?5variable?5?8?$CFs?8?$AA@ 004c60d8     mysys:my_getopt.obj
 0002:000060f4       ??_C@_01HIHLOKLC@1?$AA@    004c60f4     mysys:my_getopt.obj
 0002:000060f8       ??_C@_0DB@OBCAMIPA@?$CFs?3?5Option?5?8?9?9set?9variable?8?5requ@ 004c60f8     mysys:my_getopt.obj
 0002:00006130       ??_C@_0EO@EBDGGIGH@?$CFs?3?5Option?5?8?9?9set?9variable?8?5is?5d@ 004c6130     mysys:my_getopt.obj
 0002:00006180       ??_C@_0O@LAIDGFMB@?9set?9variable?$AA@ 004c6180     mysys:my_getopt.obj
 0002:00006190       ??_C@_0EC@ICAHOJIG@?$CFs?3?5Option?5?8?9O?8?5is?5deprecated?4?5U@ 004c6190     mysys:my_getopt.obj
 0002:000061d4       ??_C@_0BB@BIKLJNJD@Unknown?5error?5?$CFd?$AA@ 004c61d4     mysys:my_error.obj
 0002:000061e8       _sha_const_key             004c61e8     mysys:sha1.obj
 0002:00006210       ??_C@_05FGCMFDGF@?0?8?$CFs?8?$AA@ 004c6210     mysys:typelib.obj
 0002:00006218       ??_C@_0BH@HMCJGOJH@Alternatives?5are?3?5?8?$CFs?8?$AA@ 004c6218     mysys:typelib.obj
 0002:00006230       ??_C@_0BK@GLIPEDIK@Unknown?5option?5to?5?$CFs?3?5?$CFs?6?$AA@ 004c6230     mysys:typelib.obj
 0002:0000624c       ??_C@_0BH@NDCEODGI@No?5option?5given?5to?5?$CFs?6?$AA@ 004c624c     mysys:typelib.obj
 0002:00006264       ??_C@_01KICIPPFI@?2?$AA@   004c6264     mysys:my_getwd.obj
 0002:00006268       ??_C@_08KKHFAPMN@UNOPENED?$AA@ 004c6268     mysys:my_div.obj
 0002:00006274       ??_C@_07NFANNNEC@UNKNOWN?$AA@ 004c6274     mysys:my_div.obj
 0002:0000627c       ??_C@_0CG@HMFJBFKL@Can?8t?5seek?5in?5file?5?8?$CFs?8?5?$CIErrcode@ 004c627c     mysys:errors.obj
 0002:000062a4       ??_C@_0DI@JALLKPON@Can?8t?5change?5permissions?5of?5the?5@ 004c62a4     mysys:errors.obj
 0002:000062dc       ??_C@_0DG@LHNCLHDC@Can?8t?5change?5ownership?5of?5the?5fi@ 004c62dc     mysys:errors.obj
 0002:00006314       ??_C@_0CG@OCCIMCJO@File?5?8?$CFs?8?5?$CIfileno?3?5?$CFd?$CJ?5was?5not?5c@ 004c6314     mysys:errors.obj
 0002:0000633c       ??_C@_0CC@POIIBGBO@File?5?8?$CFs?8?5not?5found?5?$CIErrcode?3?5?$CFd@ 004c633c     mysys:errors.obj
 0002:00006360       ??_C@_0FB@HBKGDBGI@Collation?5?8?$CFs?8?5is?5not?5a?5compiled@ 004c6360     mysys:errors.obj
 0002:000063b4       ??_C@_0CL@IPPKDKJC@Can?8t?5sync?5file?5?8?$CFs?8?5to?5disk?5?$CIEr@ 004c63b4     mysys:errors.obj
 0002:000063e0       ??_C@_0CH@DMNLJIAN@Error?5on?5realpath?$CI?$CJ?5on?5?8?$CFs?8?5?$CIErr@ 004c63e0     mysys:errors.obj
 0002:00006408       ??_C@_0DG@MPBGHFJG@Can?8t?5create?5symlink?5?8?$CFs?8?5pointi@ 004c6408     mysys:errors.obj
 0002:00006440       ??_C@_0CN@FDDHNKAL@Can?8t?5read?5value?5for?5symlink?5?8?$CFs@ 004c6440     mysys:errors.obj
 0002:00006470       ??_C@_0DG@HFJCEGGP@Out?5of?5resources?5when?5opening?5fi@ 004c6470     mysys:errors.obj
 0002:000064a8       ??_C@_0FJ@LJEFGFHC@Character?5set?5?8?$CFs?8?5is?5not?5a?5comp@ 004c64a8     mysys:errors.obj
 0002:00006504       ??_C@_0CK@KAOBDLLK@Can?8t?5create?5directory?5?8?$CFs?8?5?$CIErr@ 004c6504     mysys:errors.obj
 0002:00006530       ??_C@_0JL@NKJOFGOC@Disk?5is?5full?5writing?5?8?$CFs?8?5?$CIErrco@ 004c6530     mysys:errors.obj
 0002:000065cc       ??_C@_0CP@OFJOGNNM@Warning?3?5?$CFd?5files?5and?5?$CFd?5streams@ 004c65cc     mysys:errors.obj
 0002:000065fc       ??_C@_0BL@KPAFHPFA@Warning?3?5?8?$CFs?8?5had?5?$CFd?5links?$AA@ 004c65fc     mysys:errors.obj
 0002:00006618       ??_C@_0CH@HKPCIIFI@Can?8t?5change?5dir?5to?5?8?$CFs?8?5?$CIErrcod@ 004c6618     mysys:errors.obj
 0002:00006640       ??_C@_0CJ@HHIGEGH@Can?8t?5get?5working?5dirctory?5?$CIErrc@ 004c6640     mysys:errors.obj
 0002:0000666c       ??_C@_0CM@IDOLEFDO@Can?8t?5open?5stream?5from?5handle?5?$CIE@ 004c666c     mysys:errors.obj
 0002:00006698       ??_C@_0CI@JHPDBJAP@Can?8t?5change?5size?5of?5file?5?$CIErrco@ 004c6698     mysys:errors.obj
 0002:000066c0       ??_C@_0CF@EBINEGNH@Can?8t?5get?5stat?5of?5?8?$CFs?8?5?$CIErrcode?3@ 004c66c0     mysys:errors.obj
 0002:000066e8       ??_C@_0CF@DKKFLCIK@Can?8t?5read?5dir?5of?5?8?$CFs?8?5?$CIErrcode?3@ 004c66e8     mysys:errors.obj
 0002:00006710       ??_C@_0CA@NMCGOICJ@Can?8t?5unlock?5file?5?$CIErrcode?3?5?$CFd?$CJ?$AA@ 004c6710     mysys:errors.obj
 0002:00006730       ??_C@_0BO@FABCFMMA@Can?8t?5lock?5file?5?$CIErrcode?3?5?$CFd?$CJ?$AA@ 004c6730     mysys:errors.obj
 0002:00006750       ??_C@_0DK@OPEJLFLC@Unexpected?5eof?5found?5when?5readin@ 004c6750     mysys:errors.obj
 0002:0000678c       ??_C@_0CO@NDIKPEAP@Error?5on?5rename?5of?5?8?$CFs?8?5to?5?8?$CFs?8?5@ 004c678c     mysys:errors.obj
 0002:000067bc       ??_C@_0CG@LPKMPJNP@Error?5on?5delete?5of?5?8?$CFs?8?5?$CIErrcode@ 004c67bc     mysys:errors.obj
 0002:000067e4       ??_C@_0CA@NLHLMAKD@Out?5of?5memory?5?$CINeeded?5?$CFu?5bytes?$CJ?$AA@ 004c67e4     mysys:errors.obj
 0002:00006804       ??_C@_0CF@BEDBELLH@Error?5on?5close?5of?5?8?$CFs?8?5?$CIErrcode?3@ 004c6804     mysys:errors.obj
 0002:0000682c       ??_C@_0CG@CGPFOMKP@Error?5writing?5file?5?8?$CFs?8?5?$CIErrcode@ 004c682c     mysys:errors.obj
 0002:00006854       ??_C@_0CG@NONCHHAM@Error?5reading?5file?5?8?$CFs?8?5?$CIErrcode@ 004c6854     mysys:errors.obj
 0002:0000687c       ??_C@_0CO@OHAAEPNE@Can?8t?5create?1write?5to?5file?5?8?$CFs?8?5@ 004c687c     mysys:errors.obj
 0002:000068ac       ??_C@_0CP@BPNOAMDC@Retry?5in?5?$CFd?5secs?4?5Message?5reprin@ 004c68ac     mysys:errors.obj
 0002:000068dc       ??_C@_04LFNFNAMA@?4sym?$AA@ 004c68dc     mysys:mf_pack.obj
 0002:000068e4       ??_C@_02LMMGGCAJ@?3?5?$AA@ 004c68e4     mysys:my_messnc.obj
 0002:000068ec       ??_C@_0L@BBMDDOEP@latin1_bin?$AA@ 004c68ec     strings:ctype-latin1.obj
 0002:000068f8       ??_C@_0BC@JEMPBIB@latin1_german2_ci?$AA@ 004c68f8     strings:ctype-latin1.obj
 0002:0000690c       ??_C@_06OJHGLDPL@?$CInull?$CJ?$AA@ 004c690c     strings:my_vsnprintf.obj
 0002:00006914       ??_C@_06FNFBAEBE@binary?$AA@ 004c6914     strings:ctype-bin.obj
 0002:0000691c       ??_C@_0CD@LKLOKDOO@charsets?1charset?1collation?1rules@ 004c691c     strings:ctype.obj
 0002:00006940       ??_C@_0CD@PFPPDFCJ@charsets?1charset?1collation?1rules@ 004c6940     strings:ctype.obj
 0002:00006964       ??_C@_0CD@NONCGGOK@charsets?1charset?1collation?1rules@ 004c6964     strings:ctype.obj
 0002:00006988       ??_C@_0CH@EHCCKNPN@charsets?1charset?1collation?1rules@ 004c6988     strings:ctype.obj
 0002:000069b0       ??_C@_0BP@MDNMPBHP@charsets?1charset?1collation?1map?$AA@ 004c69b0     strings:ctype.obj
 0002:000069d0       ??_C@_0CA@HCJLGNLH@charsets?1charset?1collation?1flag?$AA@ 004c69d0     strings:ctype.obj
 0002:000069f0       ??_C@_0CB@IEPLPKEB@charsets?1charset?1collation?1order@ 004c69f0     strings:ctype.obj
 0002:00006a14       ??_C@_0BO@PKAEPDFI@charsets?1charset?1collation?1id?$AA@ 004c6a14     strings:ctype.obj
 0002:00006a34       ??_C@_0CA@ILKNGFEN@charsets?1charset?1collation?1name?$AA@ 004c6a34     strings:ctype.obj
 0002:00006a54       ??_C@_0BL@JFMDNPGN@charsets?1charset?1collation?$AA@ 004c6a54     strings:ctype.obj
 0002:00006a70       ??_C@_0BN@PEPOLNOE@charsets?1charset?1unicode?1map?$AA@ 004c6a70     strings:ctype.obj
 0002:00006a90       ??_C@_0BJ@KHPKNFM@charsets?1charset?1unicode?$AA@ 004c6a90     strings:ctype.obj
 0002:00006aac       ??_C@_0BL@ELLNOHCD@charsets?1charset?1lower?1map?$AA@ 004c6aac     strings:ctype.obj
 0002:00006ac8       ??_C@_0BH@HBDHNKIJ@charsets?1charset?1lower?$AA@ 004c6ac8     strings:ctype.obj
 0002:00006ae0       ??_C@_0BL@OJLKMJLI@charsets?1charset?1upper?1map?$AA@ 004c6ae0     strings:ctype.obj
 0002:00006afc       ??_C@_0BH@CKIJLBDA@charsets?1charset?1upper?$AA@ 004c6afc     strings:ctype.obj
 0002:00006b14       ??_C@_0BL@KKJMPDHK@charsets?1charset?1ctype?1map?$AA@ 004c6b14     strings:ctype.obj
 0002:00006b30       ??_C@_0BH@GIOAFMPB@charsets?1charset?1ctype?$AA@ 004c6b30     strings:ctype.obj
 0002:00006b48       ??_C@_0BH@CENNAKLG@charsets?1charset?1alias?$AA@ 004c6b48     strings:ctype.obj
 0002:00006b60       ??_C@_0BN@LLOCCHFI@charsets?1charset?1description?$AA@ 004c6b60     strings:ctype.obj
 0002:00006b80       ??_C@_0BI@ICKMEODO@charsets?1charset?1family?$AA@ 004c6b80     strings:ctype.obj
 0002:00006b98       ??_C@_0BG@LDPKBCKB@charsets?1charset?1name?$AA@ 004c6b98     strings:ctype.obj
 0002:00006bb0       ??_C@_0BL@LNCPEELC@charsets?1charset?1binary?9id?$AA@ 004c6bb0     strings:ctype.obj
 0002:00006bcc       ??_C@_0BM@NDJFGPHG@charsets?1charset?1primary?9id?$AA@ 004c6bcc     strings:ctype.obj
 0002:00006be8       ??_C@_0BB@MPLJNAOI@charsets?1charset?$AA@ 004c6be8     strings:ctype.obj
 0002:00006bfc       ??_C@_0BA@NFCJBDGG@charsets?1max?9id?$AA@ 004c6bfc     strings:ctype.obj
 0002:00006c0c       ??_C@_08PBFNHBDC@charsets?$AA@ 004c6c0c     strings:ctype.obj
 0002:00006c18       ??_C@_0N@JABJMIAL@xml?1encoding?$AA@ 004c6c18     strings:ctype.obj
 0002:00006c28       ??_C@_0M@BOENADBE@xml?1version?$AA@ 004c6c28     strings:ctype.obj
 0002:00006c34       ??_C@_03PJHHNEEI@xml?$AA@  004c6c34     strings:ctype.obj
 0002:00006c38       ??_C@_04HHCDBDLF@?5?7?$AN?6?$AA@ 004c6c38     strings:ctype.obj
 0002:00006c40       ??_C@_06NOJLBGIH@?5?$CFs?5?$CFs?$AA@ 004c6c40     strings:ctype.obj
 0002:00006c48       ??_C@_03DKMEACPB@?$DM?$DM?$DM?$AA@ 004c6c48     strings:ctype.obj
 0002:00006c4c       ??_C@_02FODMEDOG@?$DM?$DM?$AA@ 004c6c4c     strings:ctype.obj
 0002:00006c50       ??_C@_01MNNFJEPP@?$DM?$AA@ 004c6c50     strings:ctype.obj
 0002:00006c54       ??_C@_01HNPIGOCE@?$CG?$AA@ 004c6c54     strings:ctype.obj
 0002:00006c58       ??_C@_08DOMPDOCM@compiled?$AA@ 004c6c58     strings:ctype.obj
 0002:00006c64       ??_C@_07CJDBHDIN@primary?$AA@ 004c6c64     strings:ctype.obj
 0002:00006c6c       ??_C@_0BC@FAACCCJD@utf8_hungarian_ci?$AA@ 004c6c6c     strings:ctype-uca.obj
 0002:00006c80       ??_C@_0BC@MMMDBEJH@utf8_esperanto_ci?$AA@ 004c6c80     strings:ctype-uca.obj
 0002:00006c94       ??_C@_0BA@POPDBMKL@utf8_persian_ci?$AA@ 004c6c94     strings:ctype-uca.obj
 0002:00006ca4       ??_C@_0O@JCIJCIKH@utf8_roman_ci?$AA@ 004c6ca4     strings:ctype-uca.obj
 0002:00006cb4       ??_C@_0BB@DMDMGDOP@utf8_spanish2_ci?$AA@ 004c6cb4     strings:ctype-uca.obj
 0002:00006cc8       ??_C@_0P@NIJBPDBH@utf8_slovak_ci?$AA@ 004c6cc8     strings:ctype-uca.obj
 0002:00006cd8       ??_C@_0BD@MHPAIICH@utf8_lithuanian_ci?$AA@ 004c6cd8     strings:ctype-uca.obj
 0002:00006cec       ??_C@_0P@LICOLLCI@utf8_danish_ci?$AA@ 004c6cec     strings:ctype-uca.obj
 0002:00006cfc       ??_C@_0O@OMAOFLBG@utf8_czech_ci?$AA@ 004c6cfc     strings:ctype-uca.obj
 0002:00006d0c       ??_C@_0BA@HIEJCGP@utf8_turkish_ci?$AA@ 004c6d0c     strings:ctype-uca.obj
 0002:00006d1c       ??_C@_0BA@DLMLGKMF@utf8_swedish_ci?$AA@ 004c6d1c     strings:ctype-uca.obj
 0002:00006d2c       ??_C@_0BA@BFDLDMHI@utf8_spanish_ci?$AA@ 004c6d2c     strings:ctype-uca.obj
 0002:00006d3c       ??_C@_0BB@IDIAKKIG@utf8_estonian_ci?$AA@ 004c6d3c     strings:ctype-uca.obj
 0002:00006d50       ??_C@_0P@BMIMEGFF@utf8_polish_ci?$AA@ 004c6d50     strings:ctype-uca.obj
 0002:00006d60       ??_C@_0BC@ONGHKMPJ@utf8_slovenian_ci?$AA@ 004c6d60     strings:ctype-uca.obj
 0002:00006d74       ??_C@_0BB@EMJFIJEJ@utf8_romanian_ci?$AA@ 004c6d74     strings:ctype-uca.obj
 0002:00006d88       ??_C@_0BA@GIAOJNDD@utf8_latvian_ci?$AA@ 004c6d88     strings:ctype-uca.obj
 0002:00006d98       ??_C@_0BC@OLHAMMMB@utf8_icelandic_ci?$AA@ 004c6d98     strings:ctype-uca.obj
 0002:00006dac       ??_C@_0BA@GBKHDDAB@utf8_unicode_ci?$AA@ 004c6dac     strings:ctype-uca.obj
 0002:00006dbc       ??_C@_0BC@JMLAFJDL@ucs2_hungarian_ci?$AA@ 004c6dbc     strings:ctype-uca.obj
 0002:00006dd0       ??_C@_0BC@HBGPDP@ucs2_esperanto_ci?$AA@ 004c6dd0     strings:ctype-uca.obj
 0002:00006de4       ??_C@_0BA@PJNOLINJ@ucs2_persian_ci?$AA@ 004c6de4     strings:ctype-uca.obj
 0002:00006df4       ??_C@_0O@CNOJEKEN@ucs2_roman_ci?$AA@ 004c6df4     strings:ctype-uca.obj
 0002:00006e04       ??_C@_0BB@ICDAFOFL@ucs2_spanish2_ci?$AA@ 004c6e04     strings:ctype-uca.obj
 0002:00006e18       ??_C@_0P@JIPBJIBD@ucs2_slovak_ci?$AA@ 004c6e18     strings:ctype-uca.obj
 0002:00006e28       ??_C@_0BD@BPDBBBIG@ucs2_lithuanian_ci?$AA@ 004c6e28     strings:ctype-uca.obj
 0002:00006e3c       ??_C@_0P@PIEONACM@ucs2_danish_ci?$AA@ 004c6e3c     strings:ctype-uca.obj
 0002:00006e4c       ??_C@_0O@FDGODJPM@ucs2_czech_ci?$AA@ 004c6e4c     strings:ctype-uca.obj
 0002:00006e5c       ??_C@_0BA@KJDGBN@ucs2_turkish_ci?$AA@ 004c6e5c     strings:ctype-uca.obj
 0002:00006e6c       ??_C@_0BA@DMOGMOLH@ucs2_swedish_ci?$AA@ 004c6e6c     strings:ctype-uca.obj
 0002:00006e7c       ??_C@_0BA@BCBGJIAK@ucs2_spanish_ci?$AA@ 004c6e7c     strings:ctype-uca.obj
 0002:00006e8c       ??_C@_0BB@DNIMJHDC@ucs2_estonian_ci?$AA@ 004c6e8c     strings:ctype-uca.obj
 0002:00006ea0       ??_C@_0P@FMOMCNFB@ucs2_polish_ci?$AA@ 004c6ea0     strings:ctype-uca.obj
 0002:00006eb0       ??_C@_0BC@CBNFNHFB@ucs2_slovenian_ci?$AA@ 004c6eb0     strings:ctype-uca.obj
 0002:00006ec4       ??_C@_0BB@PCJJLEPN@ucs2_romanian_ci?$AA@ 004c6ec4     strings:ctype-uca.obj
 0002:00006ed8       ??_C@_0BA@GPCDDJEB@ucs2_latvian_ci?$AA@ 004c6ed8     strings:ctype-uca.obj
 0002:00006ee8       ??_C@_0BC@CHMCLHGJ@ucs2_icelandic_ci?$AA@ 004c6ee8     strings:ctype-uca.obj
 0002:00006efc       ??_C@_0BA@GGIKJHHD@ucs2_unicode_ci?$AA@ 004c6efc     strings:ctype-uca.obj
 0002:00007bc8       ??_C@_0L@JHIJEIOB@?$CFs?5at?5?8?$CFs?8?$AA@ 004c7bc8     strings:ctype-uca.obj
 0002:00007bd4       ??_C@_0L@BNFOJFGF@?$CG?5expected?$AA@ 004c7bd4     strings:ctype-uca.obj
 0002:00007be0       ??_C@_0BA@CIAPGHM@?$CG?5or?5?$DM?5expected?$AA@ 004c7be0     strings:ctype-uca.obj
 0002:00007bf0       ??_C@_0BE@OMJLCPFJ@Should?5never?5happen?$AA@ 004c7bf0     strings:ctype-uca.obj
 0002:00007c04       ??_C@_0P@MGHCGHFF@Too?5many?5rules?$AA@ 004c7c04     strings:ctype-uca.obj
 0002:00007c14       ??_C@_0BD@DBLGAKEN@character?5expected?$AA@ 004c7c14     strings:ctype-uca.obj
 0002:00007c28       ??_C@_0BC@FMLIFBCF@Unknown?5character?$AA@ 004c7c28     strings:ctype-uca.obj
 0002:00007c3c       ??_C@_09LKJGLAE@cp932_bin?$AA@ 004c7c3c     strings:ctype-cp932.obj
 0002:00007c48       ??_C@_0BC@CHMDDICP@cp932_japanese_ci?$AA@ 004c7c48     strings:ctype-cp932.obj
 0002:00007c60       _log_10                    004c7c60     strings:strtod.obj
 0002:00008608       __real@7fefffffffffffff    004c8608     strings:strtod.obj
 0002:00008610       __real@3ffcc359e067a348    004c8610     strings:strtod.obj
 0002:00008618       __real@4024000000000000    004c8618     strings:strtod.obj
 0002:00008620       __real@3ff0000000000000    004c8620     strings:strtod.obj
 0002:00008628       ??_C@_0BB@LGBJIEIE@cp1250_polish_ci?$AA@ 004c8628     strings:ctype-extra.obj
 0002:0000863c       ??_C@_0BC@DDCCPNHL@latin1_spanish_ci?$AA@ 004c863c     strings:ctype-extra.obj
 0002:00008650       ??_C@_0M@DIHPIFMI@geostd8_bin?$AA@ 004c8650     strings:ctype-extra.obj
 0002:0000865c       ??_C@_0BD@IFKPCMBG@geostd8_general_ci?$AA@ 004c865c     strings:ctype-extra.obj
 0002:00008670       ??_C@_07GCLBCFCK@geostd8?$AA@ 004c8670     strings:ctype-extra.obj
 0002:00008678       ??_C@_08CBKIAJIL@swe7_bin?$AA@ 004c8678     strings:ctype-extra.obj
 0002:00008684       ??_C@_09KENDFOKA@cp852_bin?$AA@ 004c8684     strings:ctype-extra.obj
 0002:00008690       ??_C@_09OJBLPPKL@cp850_bin?$AA@ 004c8690     strings:ctype-extra.obj
 0002:0000869c       ??_C@_0L@MHJKNNFC@latin7_bin?$AA@ 004c869c     strings:ctype-extra.obj
 0002:000086a8       ??_C@_0L@IKFCHMFJ@latin5_bin?$AA@ 004c86a8     strings:ctype-extra.obj
 0002:000086b4       ??_C@_0L@JHFHEMOB@latin2_bin?$AA@ 004c86b4     strings:ctype-extra.obj
 0002:000086c0       ??_C@_09COHLDLLI@koi8u_bin?$AA@ 004c86c0     strings:ctype-extra.obj
 0002:000086cc       ??_C@_09DDHOALAA@koi8r_bin?$AA@ 004c86cc     strings:ctype-extra.obj
 0002:000086d8       ??_C@_0M@NJOCNGMA@keybcs2_bin?$AA@ 004c86d8     strings:ctype-extra.obj
 0002:000086e4       ??_C@_07KIGBPGH@hp8_bin?$AA@ 004c86e4     strings:ctype-extra.obj
 0002:000086ec       ??_C@_0L@INPMEGLK@hebrew_bin?$AA@ 004c86ec     strings:ctype-extra.obj
 0002:000086f8       ??_C@_09EFLJIAMD@greek_bin?$AA@ 004c86f8     strings:ctype-extra.obj
 0002:00008704       ??_C@_08EFBBJHIK@dec8_bin?$AA@ 004c8704     strings:ctype-extra.obj
 0002:00008710       ??_C@_09OKKAGCL@cp866_bin?$AA@ 004c8710     strings:ctype-extra.obj
 0002:0000871c       ??_C@_0L@OKMJAEHC@cp1256_bin?$AA@ 004c871c     strings:ctype-extra.obj
 0002:00008728       ??_C@_0L@DMJAOHGP@cp1250_bin?$AA@ 004c8728     strings:ctype-extra.obj
 0002:00008734       ??_C@_09BDNLCGDP@ascii_bin?$AA@ 004c8734     strings:ctype-extra.obj
 0002:00008740       ??_C@_0N@KGPIBLHK@armscii8_bin?$AA@ 004c8740     strings:ctype-extra.obj
 0002:00008750       ??_C@_0BC@BKAKKOKG@cp1257_general_ci?$AA@ 004c8750     strings:ctype-extra.obj
 0002:00008764       ??_C@_0L@CBJFNHNH@cp1257_bin?$AA@ 004c8764     strings:ctype-extra.obj
 0002:00008770       ??_C@_0BC@MHJMHHCD@cp1256_general_ci?$AA@ 004c8770     strings:ctype-extra.obj
 0002:00008784       ??_C@_06LODAGMCK@cp1256?$AA@ 004c8784     strings:ctype-extra.obj
 0002:0000878c       ??_C@_0N@HBDGIFNG@macroman_bin?$AA@ 004c878c     strings:ctype-extra.obj
 0002:0000879c       ??_C@_0BC@KMCILKA@cp1251_general_cs?$AA@ 004c879c     strings:ctype-extra.obj
 0002:000087b0       ??_C@_0BC@LKOPHBHL@cp1251_general_ci?$AA@ 004c87b0     strings:ctype-extra.obj
 0002:000087c4       ??_C@_0L@PHMMDEMK@cp1251_bin?$AA@ 004c87c4     strings:ctype-extra.obj
 0002:000087d0       ??_C@_0BC@DDOEKG@latin1_general_cs?$AA@ 004c87d0     strings:ctype-extra.obj
 0002:000087e4       ??_C@_0BC@LABOBOHN@latin1_general_ci?$AA@ 004c87e4     strings:ctype-extra.obj
 0002:000087f8       ??_C@_0BD@LKINKBJP@cp1250_croatian_ci?$AA@ 004c87f8     strings:ctype-extra.obj
 0002:0000880c       ??_C@_09FIGDDDHD@macce_bin?$AA@ 004c880c     strings:ctype-extra.obj
 0002:00008818       ??_C@_0BC@KANGDLHL@latin7_general_cs?$AA@ 004c8818     strings:ctype-extra.obj
 0002:0000882c       ??_C@_0BC@BAPLMBKA@latin7_general_ci?$AA@ 004c882c     strings:ctype-extra.obj
 0002:00008840       ??_C@_0BB@HEOOOPD@cp852_general_ci?$AA@ 004c8840     strings:ctype-extra.obj
 0002:00008854       ??_C@_05MDMAGACD@cp852?$AA@ 004c8854     strings:ctype-extra.obj
 0002:0000885c       ??_C@_0BE@BLBOGAK@macroman_general_ci?$AA@ 004c885c     strings:ctype-extra.obj
 0002:00008870       ??_C@_08DEGKPPEJ@macroman?$AA@ 004c8870     strings:ctype-extra.obj
 0002:0000887c       ??_C@_0BB@PFHIEKKE@macce_general_ci?$AA@ 004c887c     strings:ctype-extra.obj
 0002:00008890       ??_C@_05CFINKOFD@macce?$AA@ 004c8890     strings:ctype-extra.obj
 0002:00008898       ??_C@_0BD@HLAPNNNE@keybcs2_general_ci?$AA@ 004c8898     strings:ctype-extra.obj
 0002:000088ac       ??_C@_07JDFJFNII@keybcs2?$AA@ 004c88ac     strings:ctype-extra.obj
 0002:000088b4       ??_C@_0BB@LLJGKBLO@cp866_general_ci?$AA@ 004c88b4     strings:ctype-extra.obj
 0002:000088c8       ??_C@_05KFOKBLHO@cp866?$AA@ 004c88c8     strings:ctype-extra.obj
 0002:000088d0       ??_C@_0BE@ELHAPPLJ@armscii8_general_ci?$AA@ 004c88d0     strings:ctype-extra.obj
 0002:000088e4       ??_C@_08BDGJEDFB@armscii8?$AA@ 004c88e4     strings:ctype-extra.obj
 0002:000088f0       ??_C@_0BC@OBCEDJPK@latin5_turkish_ci?$AA@ 004c88f0     strings:ctype-extra.obj
 0002:00008904       ??_C@_06EHCJAAPF@latin5?$AA@ 004c8904     strings:ctype-extra.obj
 0002:0000890c       ??_C@_0BF@MPPNICJ@cp1257_lithuanian_ci?$AA@ 004c890c     strings:ctype-extra.obj
 0002:00008924       ??_C@_06KHCLFNGL@cp1257?$AA@ 004c8924     strings:ctype-extra.obj
 0002:0000892c       ??_C@_0BD@LCIKDBGI@latin2_croatian_ci?$AA@ 004c892c     strings:ctype-extra.obj
 0002:00008940       ??_C@_0BC@GHHJKIPO@cp1250_general_ci?$AA@ 004c8940     strings:ctype-extra.obj
 0002:00008954       ??_C@_06OIGKMLKM@cp1250?$AA@ 004c8954     strings:ctype-extra.obj
 0002:0000895c       ??_C@_0BB@CIGFIMGF@greek_general_ci?$AA@ 004c895c     strings:ctype-extra.obj
 0002:00008970       ??_C@_05BMDDGOIH@greek?$AA@ 004c8970     strings:ctype-extra.obj
 0002:00008978       ??_C@_0BE@DDCHCMKA@cp1251_ukrainian_ci?$AA@ 004c8978     strings:ctype-extra.obj
 0002:0000898c       ??_C@_0BB@MJPFCALL@koi8u_general_ci?$AA@ 004c898c     strings:ctype-extra.obj
 0002:000089a0       ??_C@_05JHCMAEL@koi8u?$AA@ 004c89a0     strings:ctype-extra.obj
 0002:000089a8       ??_C@_0BE@IGDBMPBG@latin2_hungarian_ci?$AA@ 004c89a8     strings:ctype-extra.obj
 0002:000089bc       ??_C@_0BD@FCEAFDJA@latin7_estonian_cs?$AA@ 004c89bc     strings:ctype-extra.obj
 0002:000089d0       ??_C@_06HFBPGCHH@latin7?$AA@ 004c89d0     strings:ctype-extra.obj
 0002:000089d8       ??_C@_0BC@LFMOPFOE@hebrew_general_ci?$AA@ 004c89d8     strings:ctype-extra.obj
 0002:000089ec       ??_C@_06IOFFBGCK@hebrew?$AA@ 004c89ec     strings:ctype-extra.obj
 0002:000089f4       ??_C@_0BB@HINPBEBI@latin1_danish_ci?$AA@ 004c89f4     strings:ctype-extra.obj
 0002:00008a08       ??_C@_0BE@HOCIKLDG@cp1251_bulgarian_ci?$AA@ 004c8a08     strings:ctype-extra.obj
 0002:00008a1c       ??_C@_06PBHBPKON@cp1251?$AA@ 004c8a1c     strings:ctype-extra.obj
 0002:00008a24       ??_C@_0BB@EJGKFKGI@ascii_general_ci?$AA@ 004c8a24     strings:ctype-extra.obj
 0002:00008a38       ??_C@_05OJENGABA@ascii?$AA@ 004c8a38     strings:ctype-extra.obj
 0002:00008a40       ??_C@_0BA@CCDGJJLG@swe7_swedish_ci?$AA@ 004c8a40     strings:ctype-extra.obj
 0002:00008a50       ??_C@_04KPFMKDCH@swe7?$AA@ 004c8a50     strings:ctype-extra.obj
 0002:00008a58       ??_C@_0BC@NNEHCLD@latin2_general_ci?$AA@ 004c8a58     strings:ctype-extra.obj
 0002:00008a6c       ??_C@_06IGIJGDC@latin2?$AA@ 004c8a6c     strings:ctype-extra.obj
 0002:00008a74       ??_C@_0BB@LEIGCGOD@koi8r_general_ci?$AA@ 004c8a74     strings:ctype-extra.obj
 0002:00008a88       ??_C@_05EGDDFGIM@koi8r?$AA@ 004c8a88     strings:ctype-extra.obj
 0002:00008a90       ??_C@_0P@FKJAJKJA@hp8_english_ci?$AA@ 004c8a90     strings:ctype-extra.obj
 0002:00008aa0       ??_C@_03GDEHCLKE@hp8?$AA@  004c8aa0     strings:ctype-extra.obj
 0002:00008aa4       ??_C@_0BC@EOOMILFB@latin1_german1_ci?$AA@ 004c8aa4     strings:ctype-extra.obj
 0002:00008ab8       ??_C@_0BB@GHBCFLLI@cp850_general_ci?$AA@ 004c8ab8     strings:ctype-extra.obj
 0002:00008acc       ??_C@_05PBPGACKB@cp850?$AA@ 004c8acc     strings:ctype-extra.obj
 0002:00008ad4       ??_C@_0BA@KLOOPAA@dec8_swedish_ci?$AA@ 004c8ad4     strings:ctype-extra.obj
 0002:00008ae4       ??_C@_04EJJBHNM@dec8?$AA@  004c8ae4     strings:ctype-extra.obj
 0002:00008aec       ??_C@_08BABJIOEM@filename?$AA@ 004c8aec     strings:ctype-utf8.obj
 0002:00008af8       ??_C@_08BMIDNPKK@utf8_bin?$AA@ 004c8af8     strings:ctype-utf8.obj
 0002:00008b04       ??_C@_0BA@JGAHNPHO@utf8_general_ci?$AA@ 004c8b04     strings:ctype-utf8.obj
 0002:00008b14       ??_C@_0BB@JCEFLFJE@0123456789abcdef?$AA@ 004c8b14     strings:ctype-utf8.obj
 0002:00008b28       ??_C@_08OGGFHGPF@ujis_bin?$AA@ 004c8b28     strings:ctype-ujis.obj
 0002:00008b34       ??_C@_0BB@KEGFAMFE@ujis_japanese_ci?$AA@ 004c8b34     strings:ctype-ujis.obj
 0002:00008b48       ??_C@_04BPGAKKKA@ujis?$AA@ 004c8b48     strings:ctype-ujis.obj
 0002:00008b50       ??_C@_08POIAHHJH@ucs2_bin?$AA@ 004c8b50     strings:ctype-ucs2.obj
 0002:00008b5c       ??_C@_0BA@JBCKHLAM@ucs2_general_ci?$AA@ 004c8b5c     strings:ctype-ucs2.obj
 0002:00008b6c       ??_C@_0L@NBGPIHPA@tis620_bin?$AA@ 004c8b6c     strings:ctype-tis620.obj
 0002:00008b78       ??_C@_0P@GFLKKABK@tis620_thai_ci?$AA@ 004c8b78     strings:ctype-tis620.obj
 0002:00008b88       ??_C@_06MGNELAEE@tis620?$AA@ 004c8b88     strings:ctype-tis620.obj
 0002:00008b90       ??_C@_08JFHPAPHP@sjis_bin?$AA@ 004c8b90     strings:ctype-sjis.obj
 0002:00008b9c       ??_C@_0BB@DFBLLFM@sjis_japanese_ci?$AA@ 004c8b9c     strings:ctype-sjis.obj
 0002:00008bb0       ??_C@_04JACAFPAA@sjis?$AA@ 004c8bb0     strings:ctype-sjis.obj
 0002:00008bb8       ??_C@_07KJPNPKHF@gbk_bin?$AA@ 004c8bb8     strings:ctype-gbk.obj
 0002:00008bc0       ??_C@_0P@GNPIDCFN@gbk_chinese_ci?$AA@ 004c8bc0     strings:ctype-gbk.obj
 0002:00008bd0       ??_C@_03LFBAECHL@gbk?$AA@  004c8bd0     strings:ctype-gbk.obj
 0002:00008bd4       ??_C@_0L@ODLCHMHL@gb2312_bin?$AA@ 004c8bd4     strings:ctype-gb2312.obj
 0002:00008be0       ??_C@_0BC@NLCEMJAE@gb2312_chinese_ci?$AA@ 004c8be0     strings:ctype-gb2312.obj
 0002:00008bf4       ??_C@_06JIBIJLME@gb2312?$AA@ 004c8bf4     strings:ctype-gb2312.obj
 0002:00008bfc       ??_C@_09JHKEBMLO@euckr_bin?$AA@ 004c8bfc     strings:ctype-euc_kr.obj
 0002:00008c08       ??_C@_0BA@EKHKJCHH@euckr_korean_ci?$AA@ 004c8c08     strings:ctype-euc_kr.obj
 0002:00008c18       ??_C@_05FHCOMIFC@euckr?$AA@ 004c8c18     strings:ctype-euc_kr.obj
 0002:00008c20       ??_C@_0M@BEKAHKLO@eucjpms_bin?$AA@ 004c8c20     strings:ctype-eucjpms.obj
 0002:00008c2c       ??_C@_0BE@GEODDEKB@eucjpms_japanese_ci?$AA@ 004c8c2c     strings:ctype-eucjpms.obj
 0002:00008c40       ??_C@_07MOEGLBAH@eucjpms?$AA@ 004c8c40     strings:ctype-eucjpms.obj
 0002:00008c48       ??_C@_0BA@IOACFKLD@latin2_czech_cs?$AA@ 004c8c48     strings:ctype-czech.obj
 0002:00008c58       ??_C@_04PJNGGADL@?$AF?6?$BC?$BC?$AA@ 004c8c58     strings:ctype-czech.obj
 0002:00008c60       ??_C@_01GFHCPBMG@C?$AA@    004c8c60     strings:ctype-czech.obj
 0002:00008c64       ??_C@_04NALNINKB@?$AF?6?$BB?$BB?$AA@ 004c8c64     strings:ctype-czech.obj
 0002:00008c6c       ??_C@_01PAPGNFGE@c?$AA@    004c8c6c     strings:ctype-czech.obj
 0002:00008c70       ??_C@_04DCMIHFOD@?$AM?$BJ11?$AA@ 004c8c70     strings:ctype-czech.obj
 0002:00008c78       ??_C@_02EKMCNAHJ@CH?$AA@   004c8c78     strings:ctype-czech.obj
 0002:00008c7c       ??_C@_04CKBBCOJF@?$AM?$BJ00?$AA@ 004c8c7c     strings:ctype-czech.obj
 0002:00008c84       ??_C@_02NPEGPENL@Ch?$AA@   004c8c84     strings:ctype-czech.obj
 0002:00008c88       ??_C@_04PADBMEEG@?$AM?$BJ?1?1?$AA@ 004c8c88     strings:ctype-czech.obj
 0002:00008c90       ??_C@_02OHALLCDL@ch?$AA@   004c8c90     strings:ctype-czech.obj
 0002:00008c98       ??_C@_0BAB@LDKHKKBE@?$LE?$LF?$LG?$LH?$LI?$LJ?$LK?$LL?$LM?$AC?$LO?$LP?$MA?A?B?C?D?E?F?G?H?I?J?K?L?M?N?O?P?Q?R?S@ 004c8c98     strings:ctype-czech.obj
 0002:00008da0       ??_C@_0BAB@JENJBEPB@?$AA?$AA?$AA?$AA?$AA?$AA?$AA?$AA?$AA?$AC?$AA?$AA?$AA?$AA?$AA?$AA?$AA?$AA?$AA?$AA?$AA?$AA?$AA?$AA?$AA?$AA?$AA?$AA?$AA?$AA?$AA?$AA@ 004c8da0     strings:ctype-czech.obj
 0002:00008ea8       ??_C@_0BAB@GIDHDAFJ@?$AA?$AA?$AA?$AA?$AA?$AA?$AA?$AA?$AA?$AC?$AA?$AA?$AA?$AA?$AA?$AA?$AA?$AA?$AA?$AA?$AA?$AA?$AA?$AA?$AA?$AA?$AA?$AA?$AA?$AA?$AA?$AA@ 004c8ea8     strings:ctype-czech.obj
 0002:00008fb0       ??_C@_0BAB@HNOGOFAJ@?$AA?$AA?$AA?$AA?$AA?$AA?$AA?$AA?$AA?$AC?$AA?$AA?$AA?$AA?$AA?$AA?$AA?$AA?$AA?$AA?$AA?$AA?$AA?$AA?$AA?$AA?$AA?$AA?$AA?$AA?$AA?$AA@ 004c8fb0     strings:ctype-czech.obj
 0002:000090b4       ??_C@_0BA@MDKNCPKD@cp1250_czech_cs?$AA@ 004c90b4     strings:ctype-win1250ch.obj
 0002:000090c4       ??_C@_08CJHFMMIC@big5_bin?$AA@ 004c90c4     strings:ctype-big5.obj
 0002:000090d0       ??_C@_0BA@HCMNJPNC@big5_chinese_ci?$AA@ 004c90d0     strings:ctype-big5.obj
 0002:000090e0       ??_C@_04HDKIILFF@big5?$AA@ 004c90e0     strings:ctype-big5.obj
 0002:000090e8       ??_C@_0O@IDJJBCJJ@unknown?5token?$AA@ 004c90e8     strings:xml.obj
 0002:000090f8       ??_C@_03BECJNG@?8?$CB?8?$AA@ 004c90f8     strings:xml.obj
 0002:000090fc       ??_C@_03BGKMKHKM@?8?$DP?8?$AA@ 004c90fc     strings:xml.obj
 0002:00009100       ??_C@_04OEPMCOLO@TEXT?$AA@ 004c9100     strings:xml.obj
 0002:00009108       ??_C@_07JEDAPFNH@COMMENT?$AA@ 004c9108     strings:xml.obj
 0002:00009110       ??_C@_03KIKAENM@?8?1?8?$AA@ 004c9110     strings:xml.obj
 0002:00009114       ??_C@_03BHGOMNJL@?8?$DO?8?$AA@ 004c9114     strings:xml.obj
 0002:00009118       ??_C@_03BEOKBJPF@?8?$DM?8?$AA@ 004c9118     strings:xml.obj
 0002:0000911c       ??_C@_03BFCIHDMC@?8?$DN?8?$AA@ 004c911c     strings:xml.obj
 0002:00009120       ??_C@_05MLPNBPGH@CDATA?$AA@ 004c9120     strings:xml.obj
 0002:00009128       ??_C@_05MDAAGLOE@IDENT?$AA@ 004c9128     strings:xml.obj
 0002:00009130       ??_C@_06IGECGLFO@STRING?$AA@ 004c9130     strings:xml.obj
 0002:00009138       ??_C@_0N@KFMDIEOD@END?9OF?9INPUT?$AA@ 004c9138     strings:xml.obj
 0002:00009148       ??_C@_06NPFKMDPM@?$DP?$DN?1?$DM?$DO?$CB?$AA@ 004c9148     strings:xml.obj
 0002:00009150       ??_C@_09BLLNCBLF@?$DM?$CB?$FLCDATA?$FL?$AA@ 004c9150     strings:xml.obj
 0002:0000915c       ??_C@_03PNLDJJMO@?9?9?$DO?$AA@ 004c915c     strings:xml.obj
 0002:00009160       ??_C@_04FFDNBKGC@?$DM?$CB?9?9?$AA@ 004c9160     strings:xml.obj
 0002:00009168       ??_C@_0M@JHPIDPOK@To?5deep?5XML?$AA@ 004c9168     strings:xml.obj
 0002:00009174       ??_C@_0CJ@FBAHKBHA@?8?$DM?1?$CFs?$DO?8?5unexpected?5?$CIEND?9OF?9INPUT@ 004c9174     strings:xml.obj
 0002:000091a0       ??_C@_0CE@HIBBMALO@?8?$DM?1?$CFs?$DO?8?5unexpected?5?$CI?8?$DM?1?$CFs?$DO?8?5want@ 004c91a0     strings:xml.obj
 0002:000091c4       ??_C@_0CE@KDMBOGDF@?$CFs?5unexpected?5?$CIident?5or?5?8?1?8?5want@ 004c91c4     strings:xml.obj
 0002:000091e8       ??_C@_0BL@DBFJAODI@?$CFs?5unexpected?5?$CI?8?$DP?8?5wanted?$CJ?$AA@ 004c91e8     strings:xml.obj
 0002:00009204       ??_C@_0CH@MBBDFLOA@?$CFs?5unexpected?5?$CIident?5or?5string?5w@ 004c9204     strings:xml.obj
 0002:0000922c       ??_C@_0BN@GIJBNIHN@?$CFs?5unexpected?5?$CIident?5wanted?$CJ?$AA@ 004c922c     strings:xml.obj
 0002:0000924c       ??_C@_0BI@GOAECBLB@unexpected?5END?9OF?9INPUT?$AA@ 004c924c     strings:xml.obj
 0002:00009264       ??_C@_0BL@PANHNBPI@?$CFs?5unexpected?5?$CI?8?$DO?8?5wanted?$CJ?$AA@ 004c9264     strings:xml.obj
 0002:00009280       ??_C@_0M@GPMPBOKO@TCP?1IP?5?$CI?$CFd?$CJ?$AA@ 004c9280     vio:vio.obj
 0002:0000928c       ??_C@_0M@BKHBDAGP@socket?5?$CI?$CFd?$CJ?$AA@ 004c928c     vio:vio.obj
 0002:00009298       ??_C@_0L@BGAKJGHL@named?5pipe?$AA@ 004c9298     vio:vio.obj
 0002:000092a4       ??_C@_0O@CPADDGOO@shared?5memory?$AA@ 004c92a4     vio:vio.obj
 0002:000092b4       ??_C@_09PFCHIMEP@127?40?40?41?$AA@ 004c92b4     vio:viosocket.obj
 0002:000092c0       ??_C@_0BD@JKAKBJG@SSL_CTX_new?5failed?$AA@ 004c92c0     vio:viosslfactories.obj
 0002:000092d4       ??_C@_0BN@EHNEHPHI@Failed?5to?5set?5ciphers?5to?5use?$AA@ 004c92d4     vio:viosslfactories.obj
 0002:000092f8       ??_C@_0FN@GPPKHFPO@Private?5key?5does?5not?5match?5the?5c@ 004c92f8     vio:viosslfactories.obj
 0002:00009358       ??_C@_0BK@OJIINBMD@Unable?5to?5get?5private?5key?$AA@ 004c9358     vio:viosslfactories.obj
 0002:00009374       ??_C@_0BK@DLGAGNNA@Unable?5to?5get?5certificate?$AA@ 004c9374     vio:viosslfactories.obj
 0002:00009390       ??_C@_08INEPGKHH@No?5error?$AA@ 004c9390     vio:viosslfactories.obj
 0002:0000939c       ??_C@_0P@PDGGPCGE@SSL?5error?3?5?$CFs?6?$AA@ 004c939c     vio:viosslfactories.obj
 0002:000093ac       ??_C@_0BJ@DBKDBMMN@SSL?5error?3?5?$CFs?5from?5?8?$CFs?8?6?$AA@ 004c93ac     vio:viosslfactories.obj
 0002:000093d0       ??_7Message@yaSSL@@6B@     004c93d0     yassl:ssl.obj
 0002:000093ec       ??_7HandShakeBase@yaSSL@@6B@ 004c93ec     yassl:ssl.obj
 0002:00009404       ??_7HASH@TaoCrypt@@6B@     004c9404     yassl:ssl.obj
 0002:00009420       ??_7MD5@TaoCrypt@@6B@      004c9420     yassl:ssl.obj
 0002:00009448       ??_7MD4@TaoCrypt@@6B@      004c9448     yassl:ssl.obj
 0002:0000946c       ??_C@_0BM@CIPOPOID@Not?5Implemented?0?5SSLv2?5only?$AA@ 004c946c     yassl:ssl.obj
 0002:00009488       ??_C@_05LLIBCOJ@TLSv1?$AA@ 004c9488     yassl:ssl.obj
 0002:00009490       ??_C@_05MOEBAHEJ@SSLv3?$AA@ 004c9490     yassl:ssl.obj
 0002:00009498       ??_C@_0BL@IAMLJBHP@SSLeay?5yaSSL?5compatibility?$AA@ 004c9498     yassl:ssl.obj
 0002:000094b4       ??_C@_0CI@BCOALAL@Please?5supply?5a?5buffer?5for?5error@ 004c94b4     yassl:ssl.obj
 0002:000094dc       ??_C@_0BA@JGKGKAME@Not?5Implemented?$AA@ 004c94dc     yassl:ssl.obj
 0002:000094ec       ??_C@_03GCGHEHKJ@MD5?$AA@  004c94ec     yassl:ssl.obj
 0002:000094f0       ??_C@_0N@MLDFENGJ@DES?9EDE3?9CBC?$AA@ 004c94f0     yassl:ssl.obj
 0002:00009500       ??_C@_0M@FOEEEMFG@AES?9256?9CBC?$AA@ 004c9500     yassl:ssl.obj
 0002:0000950c       ??_C@_0M@IMPKGDNH@AES?9192?9CBC?$AA@ 004c950c     yassl:ssl.obj
 0002:00009518       ??_C@_0M@CPGGBEEL@AES?9128?9CBC?$AA@ 004c9518     yassl:ssl.obj
 0002:00009524       ??_C@_07LDJJJFAI@DES?9CBC?$AA@ 004c9524     yassl:ssl.obj
 0002:0000952c       ??_C@_02JDPG@rb?$AA@       004c952c     yassl:ssl.obj
 0002:00009530       ??_C@_02KHDDNBB@?2?$CK?$AA@ 004c9530     yassl:ssl.obj
 0002:00009534       ??_C@_07OCFLHCIN@RC4?9MD5?$AA@ 004c9534     yassl:ssl.obj
 0002:0000953c       ??_C@_07BANEBHLH@RC4?9SHA?$AA@ 004c953c     yassl:ssl.obj
 0002:00009544       ??_C@_0M@LLIFGIFE@DES?9CBC?9SHA?$AA@ 004c9544     yassl:ssl.obj
 0002:00009550       ??_C@_0N@HCCILIJF@DES?9CBC3?9SHA?$AA@ 004c9550     yassl:ssl.obj
 0002:00009560       ??_C@_0BE@COMFBKAK@EDH?9DSS?9DES?9CBC?9SHA?$AA@ 004c9560     yassl:ssl.obj
 0002:00009574       ??_C@_0BF@POGOIEBE@EDH?9DSS?9DES?9CBC3?9SHA?$AA@ 004c9574     yassl:ssl.obj
 0002:0000958c       ??_C@_0BE@BMKPLFLB@EDH?9RSA?9DES?9CBC?9SHA?$AA@ 004c958c     yassl:ssl.obj
 0002:000095a0       ??_C@_0BF@KCOPIELP@EDH?9RSA?9DES?9CBC3?9SHA?$AA@ 004c95a0     yassl:ssl.obj
 0002:000095b8       ??_C@_0L@FJECLCPG@AES128?9SHA?$AA@ 004c95b8     yassl:ssl.obj
 0002:000095c4       ??_C@_0BD@HPNPDEHO@DHE?9DSS?9AES128?9SHA?$AA@ 004c95c4     yassl:ssl.obj
 0002:000095d8       ??_C@_0BD@MNBMGMFC@DHE?9RSA?9AES128?9SHA?$AA@ 004c95d8     yassl:ssl.obj
 0002:000095ec       ??_C@_0L@CIGAOKOL@AES256?9SHA?$AA@ 004c95ec     yassl:ssl.obj
 0002:000095f8       ??_C@_0BD@OPNGMGD@DHE?9DSS?9AES256?9SHA?$AA@ 004c95f8     yassl:ssl.obj
 0002:0000960c       ??_C@_0BD@LMDODEEP@DHE?9RSA?9AES256?9SHA?$AA@ 004c960c     yassl:ssl.obj
 0002:00009620       ??_C@_0BF@EGKJPLJF@DHE?9DSS?9DES?9CBC3?9RMD?$AA@ 004c9620     yassl:ssl.obj
 0002:00009638       ??_C@_0BD@LMNPGFLF@DHE?9DSS?9AES128?9RMD?$AA@ 004c9638     yassl:ssl.obj
 0002:0000964c       ??_C@_0BD@MNPNDNKI@DHE?9DSS?9AES256?9RMD?$AA@ 004c964c     yassl:ssl.obj
 0002:00009660       ??_C@_0BF@BKCIPLDO@DHE?9RSA?9DES?9CBC3?9RMD?$AA@ 004c9660     yassl:ssl.obj
 0002:00009678       ??_C@_0BD@OBMDNJJ@DHE?9RSA?9AES128?9RMD?$AA@ 004c9678     yassl:ssl.obj
 0002:0000968c       ??_C@_0BD@HPDOGFIE@DHE?9RSA?9AES256?9RMD?$AA@ 004c968c     yassl:ssl.obj
 0002:000096a0       ??_C@_0N@LBCIOJFO@DES?9CBC3?9RMD?$AA@ 004c96a0     yassl:ssl.obj
 0002:000096b0       ??_C@_0L@JKECODDN@AES128?9RMD?$AA@ 004c96b0     yassl:ssl.obj
 0002:000096bc       ??_C@_0L@OLGALLCA@AES256?9RMD?$AA@ 004c96bc     yassl:ssl.obj
 0002:000096ec       ??_C@_07MIJDMBL@GGGGGGG?$AA@ 004c96ec     yassl:yassl_int.obj
 0002:000096f4       ??_C@_06CHLBDKEK@FFFFFF?$AA@ 004c96f4     yassl:yassl_int.obj
 0002:000096fc       ??_C@_05NGCOEONO@EEEEE?$AA@ 004c96fc     yassl:yassl_int.obj
 0002:00009704       ??_C@_03POJCPIGP@CCC?$AA@  004c9704     yassl:yassl_int.obj
 0002:00009708       ??_C@_09IKAJMJIH@yaSSL?4log?$AA@ 004c9708     yassl:yassl_int.obj
 0002:0000971c       ??_7Digest@yaSSL@@6B@      004c971c     yassl:crypto_wrapper.obj
 0002:00009738       ??_7BulkCipher@yaSSL@@6B@  004c9738     yassl:crypto_wrapper.obj
 0002:0000975c       ??_7Auth@yaSSL@@6B@        004c975c     yassl:crypto_wrapper.obj
 0002:00009770       ??_7SHA@TaoCrypt@@6B@      004c9770     yassl:crypto_wrapper.obj
 0002:00009798       ??_7RIPEMD160@TaoCrypt@@6B@ 004c9798     yassl:crypto_wrapper.obj
 0002:000097c0       ??_7Mode_BASE@TaoCrypt@@6B@ 004c97c0     yassl:crypto_wrapper.obj
 0002:000097d0       ??_7DES@TaoCrypt@@6B@      004c97d0     yassl:crypto_wrapper.obj
 0002:000097e0       ??_7DES_EDE3@TaoCrypt@@6B@ 004c97e0     yassl:crypto_wrapper.obj
 0002:000097f0       ??_7AES@TaoCrypt@@6B@      004c97f0     yassl:crypto_wrapper.obj
 0002:00009800       ??_7MD5@yaSSL@@6B@         004c9800     yassl:crypto_wrapper.obj
 0002:0000981c       ??_7SHA@yaSSL@@6B@         004c981c     yassl:crypto_wrapper.obj
 0002:00009838       ??_7RMD@yaSSL@@6B@         004c9838     yassl:crypto_wrapper.obj
 0002:00009854       ??_7RC4@yaSSL@@6B@         004c9854     yassl:crypto_wrapper.obj
 0002:00009878       ??_7AES@yaSSL@@6B@         004c9878     yassl:crypto_wrapper.obj
 0002:0000989c       ??_7HMAC_MD5@yaSSL@@6B@    004c989c     yassl:crypto_wrapper.obj
 0002:000098b8       ??_7HMAC_SHA@yaSSL@@6B@    004c98b8     yassl:crypto_wrapper.obj
 0002:000098d4       ??_7HMAC_RMD@yaSSL@@6B@    004c98d4     yassl:crypto_wrapper.obj
 0002:000098f0       ??_7DES@yaSSL@@6B@         004c98f0     yassl:crypto_wrapper.obj
 0002:00009914       ??_7DES_EDE@yaSSL@@6B@     004c9914     yassl:crypto_wrapper.obj
 0002:00009938       ??_7DSS@yaSSL@@6B@         004c9938     yassl:crypto_wrapper.obj
 0002:0000994c       ??_7RSA@yaSSL@@6B@         004c994c     yassl:crypto_wrapper.obj
 0002:0000995c       ??_C@_01LIIJDEN@?$AN?$AA@  004c995c     yassl:crypto_wrapper.obj
 0002:00009960       ??_C@_03BKNEFOAH@AES?$AA@  004c9960     yassl:crypto_wrapper.obj
 0002:00009964       ??_C@_01IHBHIGKO@?0?$AA@   004c9964     yassl:crypto_wrapper.obj
 0002:00009968       ??_C@_03CNAKKODF@DES?$AA@  004c9968     yassl:crypto_wrapper.obj
 0002:0000996c       ??_C@_09OEEMHJLK@Proc?9Type?$AA@ 004c996c     yassl:crypto_wrapper.obj
 0002:00009978       ??_C@_0BO@KNLPBMJG@?9?9?9?9?9END?5RSA?5PRIVATE?5KEY?9?9?9?9?9?$AA@ 004c9978     yassl:crypto_wrapper.obj
 0002:00009998       ??_C@_0CA@PEOGIGIM@?9?9?9?9?9BEGIN?5RSA?5PRIVATE?5KEY?9?9?9?9?9?$AA@ 004c9998     yassl:crypto_wrapper.obj
 0002:000099b8       ??_C@_0BK@LPPAEOGJ@?9?9?9?9?9END?5CERTIFICATE?9?9?9?9?9?$AA@ 004c99b8     yassl:crypto_wrapper.obj
 0002:000099d4       ??_C@_0BM@CPJANAAJ@?9?9?9?9?9BEGIN?5CERTIFICATE?9?9?9?9?9?$AA@ 004c99d4     yassl:crypto_wrapper.obj
 0002:00009a00       ??_7HandShakeHeader@yaSSL@@6B@ 004c9a00     yassl:yassl_imp.obj
 0002:00009a1c       ??_7ServerKeyBase@yaSSL@@6B@ 004c9a1c     yassl:yassl_imp.obj
 0002:00009a34       ??_7ClientKeyBase@yaSSL@@6B@ 004c9a34     yassl:yassl_imp.obj
 0002:00009a4c       ??_7ClientDiffieHellmanPublic@yaSSL@@6B@ 004c9a4c     yassl:yassl_imp.obj
 0002:00009a64       ??_7ChangeCipherSpec@yaSSL@@6B@ 004c9a64     yassl:yassl_imp.obj
 0002:00009a80       ??_7Alert@yaSSL@@6B@       004c9a80     yassl:yassl_imp.obj
 0002:00009a9c       ??_7Data@yaSSL@@6B@        004c9a9c     yassl:yassl_imp.obj
 0002:00009ab8       ??_7Certificate@yaSSL@@6B@ 004c9ab8     yassl:yassl_imp.obj
 0002:00009ad0       ??_7ServerHello@yaSSL@@6B@ 004c9ad0     yassl:yassl_imp.obj
 0002:00009ae8       ??_7ServerHelloDone@yaSSL@@6B@ 004c9ae8     yassl:yassl_imp.obj
 0002:00009b00       ??_7ClientHello@yaSSL@@6B@ 004c9b00     yassl:yassl_imp.obj
 0002:00009b18       ??_7ServerKeyExchange@yaSSL@@6B@ 004c9b18     yassl:yassl_imp.obj
 0002:00009b30       ??_7CertificateVerify@yaSSL@@6B@ 004c9b30     yassl:yassl_imp.obj
 0002:00009b48       ??_7ClientKeyExchange@yaSSL@@6B@ 004c9b48     yassl:yassl_imp.obj
 0002:00009b60       ??_7Finished@yaSSL@@6B@    004c9b60     yassl:yassl_imp.obj
 0002:00009b78       ??_7HelloRequest@yaSSL@@6B@ 004c9b78     yassl:yassl_imp.obj
 0002:00009b90       ??_7RSA_Server@yaSSL@@6B@  004c9b90     yassl:yassl_imp.obj
 0002:00009ba8       ??_7Fortezza_Server@yaSSL@@6B@ 004c9ba8     yassl:yassl_imp.obj
 0002:00009bc0       ??_7FortezzaKeys@yaSSL@@6B@ 004c9bc0     yassl:yassl_imp.obj
 0002:00009bd8       ??_7EncryptedPreMasterSecret@yaSSL@@6B@ 004c9bd8     yassl:yassl_imp.obj
 0002:00009bec       ??_C@_0BJ@MIAIEIAP@server?5denied?5resumption?$AA@ 004c9bec     yassl:yassl_imp.obj
 0002:00009c08       ??_C@_0BG@NFGEHEFF@session?5lookup?5failed?$AA@ 004c9c08     yassl:yassl_imp.obj
 0002:00009c24       ??_7DH_Server@yaSSL@@6B@   004c9c24     yassl:yassl_imp.obj
 0002:00009c38       ??_C@_04OKGDLNCL@NONE?$AA@ 004c9c38     yassl:yassl_imp.obj
 0002:00009c44       ??_7CertificateRequest@yaSSL@@6B@ 004c9c44     yassl:yassl_imp.obj
 0002:00009ce8       ??_C@_0BF@LOHHNDDD@unknown?5error?5number?$AA@ 004c9ce8     yassl:yassl_error.obj
 0002:00009d00       ??_C@_0BN@DLDIDPJM@Unable?5to?5verify?5certificate?$AA@ 004c9d00     yassl:yassl_error.obj
 0002:00009d20       ??_C@_0BK@HAFIKEEK@bad?5PEM?5format?5processing?$AA@ 004c9d20     yassl:yassl_error.obj
 0002:00009d3c       ??_C@_0BH@PIPJPDKN@bad?5content?5processing?$AA@ 004c9d3c     yassl:yassl_error.obj
 0002:00009d54       ??_C@_0CG@JIHDAALO@ASN?3?5bad?5other?5signature?5confirm@ 004c9d54     yassl:yassl_error.obj
 0002:00009d7c       ??_C@_0CF@OCOHBCCG@ASN?3?5bad?5self?5signature?5confirma@ 004c9d7c     yassl:yassl_error.obj
 0002:00009da4       ??_C@_0BM@NEHMDLJI@ASN?3?5after?5date?5in?5the?5past?$AA@ 004c9da4     yassl:yassl_error.obj
 0002:00009dc0       ??_C@_0BP@BJJDPHIA@ASN?3?5before?5date?5in?5the?5future?$AA@ 004c9dc0     yassl:yassl_error.obj
 0002:00009de0       ??_C@_0BJ@HLIMONLK@ASN?3?5bad?5DSA?5r?5or?5s?5size?$AA@ 004c9de0     yassl:yassl_error.obj
 0002:00009dfc       ??_C@_0BG@DKPAPHGN@ASN?3?5unknown?5hash?5OID?$AA@ 004c9dfc     yassl:yassl_error.obj
 0002:00009e14       ??_C@_0BL@LEANJGE@ASN?3?5unknown?5signature?5OID?$AA@ 004c9e14     yassl:yassl_error.obj
 0002:00009e30       ??_C@_0BK@DFPFLNHD@ASN?3?5bad?5Signature?5Length?$AA@ 004c9e30     yassl:yassl_error.obj
 0002:00009e4c       ??_C@_0BD@BBKHNDOD@ASN?3?5bad?5Date?5Size?$AA@ 004c9e4c     yassl:yassl_error.obj
 0002:00009e60       ??_C@_0O@NCDKAAAO@ASN?3?5bad?5TIME?$AA@ 004c9e60     yassl:yassl_error.obj
 0002:00009e70       ??_C@_0BN@GPGLBGJG@ASN?3?5bad?5Octet?5String?5Header?$AA@ 004c9e70     yassl:yassl_error.obj
 0002:00009e90       ??_C@_0BA@CHEGMMMD@ASN?3?5expected?50?$AA@ 004c9e90     yassl:yassl_error.obj
 0002:00009ea0       ??_C@_0BH@CNGNFALI@ASN?3?5expected?5TAG?5NULL?$AA@ 004c9ea0     yassl:yassl_error.obj
 0002:00009eb8       ??_C@_0BK@EHIEHJHJ@ASN?3?5bad?5Ojbect?5ID?5Header?$AA@ 004c9eb8     yassl:yassl_error.obj
 0002:00009ed4       ??_C@_0BK@JLGAAPDA@ASN?3?5unknown?5key?5OID?5type?$AA@ 004c9ed4     yassl:yassl_error.obj
 0002:00009ef0       ??_C@_0BK@NEMPKOOB@ASN?3?5bad?5BitString?5Header?$AA@ 004c9ef0     yassl:yassl_error.obj
 0002:00009f0c       ??_C@_0BM@EABFJODO@ASN?3?5signature?5OID?5mismatch?$AA@ 004c9f0c     yassl:yassl_error.obj
 0002:00009f28       ??_C@_0BK@PCPPAJBM@ASN?3?5version?5length?5not?51?$AA@ 004c9f28     yassl:yassl_error.obj
 0002:00009f44       ??_C@_0BE@CBIMDPIB@ASN?3?5bad?5Set?5Header?$AA@ 004c9f44     yassl:yassl_error.obj
 0002:00009f58       ??_C@_0BJ@BABNHBJL@ASN?3?5bad?5Sequence?5Header?$AA@ 004c9f58     yassl:yassl_error.obj
 0002:00009f74       ??_C@_0BM@MLGJJFHM@ASN?3?5bad?5DER?5Integer?5Header?$AA@ 004c9f74     yassl:yassl_error.obj
 0002:00009f90       ??_C@_0BM@EOJLGIGG@unable?5to?5use?5random?5device?$AA@ 004c9f90     yassl:yassl_error.obj
 0002:00009fac       ??_C@_0BF@OKLABNFB@CryptGenRandom?5error?$AA@ 004c9fac     yassl:yassl_error.obj
 0002:00009fc4       ??_C@_0BF@ONICCKFL@bad?5wincrypt?5acquire?$AA@ 004c9fc4     yassl:yassl_error.obj
 0002:00009fdc       ??_C@_0BD@EFIDFPA@not?5in?5error?5state?$AA@ 004c9fdc     yassl:yassl_error.obj
 0002:00009ff0       ??_C@_0BP@JNLPEFPG@the?5read?5operation?5would?5block?$AA@ 004c9ff0     yassl:yassl_error.obj
 0002:0000a010       ??_C@_0CC@PELKPKCF@bad?5PreMasterSecret?5version?5erro@ 004ca010     yassl:yassl_error.obj
 0002:0000a034       ??_C@_0BE@IGBKENJK@decompression?5error?$AA@ 004ca034     yassl:yassl_error.obj
 0002:0000a048       ??_C@_0BC@NKDLBFJI@compression?5error?$AA@ 004ca048     yassl:yassl_error.obj
 0002:0000a05c       ??_C@_0BJ@OIPMFMB@protocl?5version?5mismatch?$AA@ 004ca05c     yassl:yassl_error.obj
 0002:0000a078       ??_C@_0CL@JIHDBKKF@unable?5to?5proccess?5private?5key?0?5@ 004ca078     yassl:yassl_error.obj
 0002:0000a0a4       ??_C@_0BO@JFJFDJB@unable?5to?5proccess?5cerificate?$AA@ 004ca0a4     yassl:yassl_error.obj
 0002:0000a0c4       ??_C@_0BL@PNPNLENI@socket?5layer?5receive?5error?$AA@ 004ca0c4     yassl:yassl_error.obj
 0002:0000a0e0       ??_C@_0BI@IMFNBLNH@socket?5layer?5send?5error?$AA@ 004ca0e0     yassl:yassl_error.obj
 0002:0000a0f8       ??_C@_0BP@DJNJFCDO@unable?5to?5verify?5peer?5checksum?$AA@ 004ca0f8     yassl:yassl_error.obj
 0002:0000a118       ??_C@_0CE@JNMOHBDL@the?5server?5needs?5a?5private?5key?5f@ 004ca118     yassl:yassl_error.obj
 0002:0000a13c       ??_C@_0CJ@MGMCLLGF@unable?5to?5match?5a?5supported?5ciph@ 004ca13c     yassl:yassl_error.obj
 0002:0000a168       ??_C@_0BH@BJAEIFLP@bad?5cipher?5suite?5input?$AA@ 004ca168     yassl:yassl_error.obj
 0002:0000a180       ??_C@_0CK@DPEGAADO@handshake?5message?5received?5in?5wr@ 004ca180     yassl:yassl_error.obj
 0002:0000a1ac       ??_C@_0BO@MDNKKMLF@handshake?5layer?5not?5ready?5yet?$AA@ 004ca1ac     yassl:yassl_error.obj
 0002:0000a1cc       ??_C@_0BL@JKJNJCO@record?5layer?5not?5ready?5yet?$AA@ 004ca1cc     yassl:yassl_error.obj
 0002:0000a1e8       ??_C@_0CN@HCIHAPHI@bad?5master?5secret?5derivation?0?5pr@ 004ca1e8     yassl:yassl_error.obj
 0002:0000a218       ??_C@_0CA@ICDMIOMH@trying?5to?5use?5an?5unknown?5cipher?$AA@ 004ca218     yassl:yassl_error.obj
 0002:0000a238       ??_C@_0BP@HEAJNFGH@unknown?5factory?5create?5request?$AA@ 004ca238     yassl:yassl_error.obj
 0002:0000a258       ??_C@_0CB@GDMDOMBH@trying?5to?5realloc?5a?5fixed?5buffer@ 004ca258     yassl:yassl_error.obj
 0002:0000a27c       ??_C@_0CB@GAKDHIMM@buffer?5index?5error?0?5out?5of?5range@ 004ca27c     yassl:yassl_error.obj
 0002:0000a2a4       ??_C@_05GDHACFMB@1?42?43?$AA@ 004ca2a4     zlib:compress.obj
 0002:0000a2b0       _deflate_copyright         004ca2b0     zlib:deflate.obj
 0002:0000ac10       ??_C@_0BH@FGKKJGOC@incorrect?5length?5check?$AA@ 004cac10     zlib:inflate.obj
 0002:0000ac28       ??_C@_0BF@MEIGEHBE@incorrect?5data?5check?$AA@ 004cac28     zlib:inflate.obj
 0002:0000ac40       ??_C@_0BO@ECPMAOGG@invalid?5distance?5too?5far?5back?$AA@ 004cac40     zlib:inflate.obj
 0002:0000ac60       ??_C@_0BG@LBKINIKP@invalid?5distance?5code?$AA@ 004cac60     zlib:inflate.obj
 0002:0000ac78       ??_C@_0BM@FFFLPBBC@invalid?5literal?1length?5code?$AA@ 004cac78     zlib:inflate.obj
 0002:0000ac94       ??_C@_0BG@GMDFCBGP@invalid?5distances?5set?$AA@ 004cac94     zlib:inflate.obj
 0002:0000acac       ??_C@_0BK@BMMPFBBH@invalid?5bit?5length?5repeat?$AA@ 004cacac     zlib:inflate.obj
 0002:0000acc8       ??_C@_0BM@IIMGAINC@invalid?5literal?1lengths?5set?$AA@ 004cacc8     zlib:inflate.obj
 0002:0000ace4       ??_C@_0CE@GMIGFPBB@too?5many?5length?5or?5distance?5symb@ 004cace4     zlib:inflate.obj
 0002:0000ad08       ??_C@_0BJ@HDEPPGOH@invalid?5code?5lengths?5set?$AA@ 004cad08     zlib:inflate.obj
 0002:0000ad24       ??_C@_0BN@LGAADGOK@invalid?5stored?5block?5lengths?$AA@ 004cad24     zlib:inflate.obj
 0002:0000ad44       ??_C@_0BD@PJCBIDD@invalid?5block?5type?$AA@ 004cad44     zlib:inflate.obj
 0002:0000ad58       ??_C@_0BE@GONKLEPM@header?5crc?5mismatch?$AA@ 004cad58     zlib:inflate.obj
 0002:0000ad6c       ??_C@_0BJ@BLBBCOMO@unknown?5header?5flags?5set?$AA@ 004cad6c     zlib:inflate.obj
 0002:0000ad88       ??_C@_0BH@LIBMMIGA@incorrect?5header?5check?$AA@ 004cad88     zlib:inflate.obj
 0002:0000ada0       ??_C@_0BE@EMOGCLGO@invalid?5window?5size?$AA@ 004cada0     zlib:inflate.obj
 0002:0000adb4       ??_C@_0BL@IHKGDAEE@unknown?5compression?5method?$AA@ 004cadb4     zlib:inflate.obj
 0002:0000b418       __dist_code                004cb418     zlib:trees.obj
 0002:0000b618       __length_code              004cb618     zlib:trees.obj
 0002:0000d808       ??_C@_0BF@CJFPCCEG@incompatible?5version?$AA@ 004cd808     zlib:zutil.obj
 0002:0000d820       ??_C@_0N@DFPGLBGC@buffer?5error?$AA@ 004cd820     zlib:zutil.obj
 0002:0000d830       ??_C@_0BE@OGGJBMCE@insufficient?5memory?$AA@ 004cd830     zlib:zutil.obj
 0002:0000d844       ??_C@_0L@HAHMBNLP@data?5error?$AA@ 004cd844     zlib:zutil.obj
 0002:0000d850       ??_C@_0N@MKKNPMJD@stream?5error?$AA@ 004cd850     zlib:zutil.obj
 0002:0000d860       ??_C@_0L@KIJFAKBJ@file?5error?$AA@ 004cd860     zlib:zutil.obj
 0002:0000d86c       ??_C@_0L@FNAOCBOG@stream?5end?$AA@ 004cd86c     zlib:zutil.obj
 0002:0000d878       ??_C@_0BA@MOKMMFOD@need?5dictionary?$AA@ 004cd878     zlib:zutil.obj
 0002:0000d888       _z_errmsg                  004cd888     zlib:zutil.obj
 0002:0000d8b0       _inflate_copyright         004cd8b0     zlib:inftrees.obj
 0002:0000d9e0       __FPinit                   004cd9e0     LIBCMT:fpinit.obj
 0002:0000d9e4       __FPmtinit                 004cd9e4     LIBCMT:fpinit.obj
 0002:0000d9e8       __FPmtterm                 004cd9e8     LIBCMT:fpinit.obj
 0002:0000d9f0       ??_7type_info@@6B@         004cd9f0     LIBCMT:typinfo.obj
 0002:0000d9f4       ??_C@_03LLEJOLGL@?4?1?2?$AA@ 004cd9f4     LIBCMT:stati32.obj
 0002:0000d9f8       ??_C@_02EAOCEIGI@?$DP?$CK?$AA@ 004cd9f8     LIBCMT:stati32.obj
 0002:0000da00       ??_7bad_alloc@std@@6B@     004cda00     LIBCMT:new.obj
 0002:0000da08       ??_C@_0EA@FCLIIPNN@Visual?5C?$CL?$CL?5CRT?3?5Not?5enough?5memor@ 004cda08     LIBCMT:strerror.obj
 0002:0000da48       ??_C@_0P@MIGLKIOC@CorExitProcess?$AA@ 004cda48     LIBCMT:crt0dat.obj
 0002:0000da58       ??_C@_0M@MBOPBNBK@mscoree?4dll?$AA@ 004cda58     LIBCMT:crt0dat.obj
 0002:0000dac0       ?ProcessDetach@NativeDll@<CrtImplementationDetails>@@0IB 004cdac0     LIBCMT:strtol.obj
 0002:0000dac4       ?ProcessAttach@NativeDll@<CrtImplementationDetails>@@0IB 004cdac4     LIBCMT:strtol.obj
 0002:0000dac8       ?ThreadAttach@NativeDll@<CrtImplementationDetails>@@0IB 004cdac8     LIBCMT:strtol.obj
 0002:0000dacc       ?ThreadDetach@NativeDll@<CrtImplementationDetails>@@0IB 004cdacc     LIBCMT:strtol.obj
 0002:0000dad0       ?ProcessVerifier@NativeDll@<CrtImplementationDetails>@@0IB 004cdad0     LIBCMT:strtol.obj
 0002:0000de18       ??_C@_02CLFPBFFP@TZ?$AA@   004cde18     LIBCMT:tzset.obj
 0002:0000de1c       ??_C@_05KLBDPFGC@e?$CL000?$AA@ 004cde1c     LIBCMT:cvt.obj
 0002:0000de28       __real@4150017ec0000000    004cde28     LIBCMT:testfdiv.obj
 0002:0000de30       __real@4147ffff80000000    004cde30     LIBCMT:testfdiv.obj
 0002:0000de38       ??_C@_0BK@NHEOCAHP@IsProcessorFeaturePresent?$AA@ 004cde38     LIBCMT:testfdiv.obj
 0002:0000de54       ??_C@_08CPNIBGIE@KERNEL32?$AA@ 004cde54     LIBCMT:testfdiv.obj
 0002:0000de60       ??_C@_0P@GGKDKEEG@runtime?5error?5?$AA@ 004cde60     LIBCMT:crt0msg.obj
 0002:0000de70       ??_C@_0O@MJNIPGOH@TLOSS?5error?$AN?6?$AA@ 004cde70     LIBCMT:crt0msg.obj
 0002:0000de80       ??_C@_0N@BONNPDHF@SING?5error?$AN?6?$AA@ 004cde80     LIBCMT:crt0msg.obj
 0002:0000de90       ??_C@_0P@MBDAJNE@DOMAIN?5error?$AN?6?$AA@ 004cde90     LIBCMT:crt0msg.obj
 0002:0000dea0       ??_C@_0JL@DFDOOABL@R6034?$AN?6An?5application?5has?5made?5a@ 004cdea0     LIBCMT:crt0msg.obj
 0002:0000df40       ??_C@_0PH@EPAFIJ@R6033?$AN?6?9?5Attempt?5to?5use?5MSIL?5cod@ 004cdf40     LIBCMT:crt0msg.obj
 0002:0000e038       ??_C@_0DD@BKEEABMM@R6032?$AN?6?9?5not?5enough?5space?5for?5lo@ 004ce038     LIBCMT:crt0msg.obj
 0002:0000e070       ??_C@_0GD@OFKILIED@R6031?$AN?6?9?5Attempt?5to?5initialize?5t@ 004ce070     LIBCMT:crt0msg.obj
 0002:0000e0d4       ??_C@_0BP@LPMHJOKI@R6030?$AN?6?9?5CRT?5not?5initialized?$AN?6?$AA@ 004ce0d4     LIBCMT:crt0msg.obj
 0002:0000e0f4       ??_C@_0CF@KJDAIALP@R6028?$AN?6?9?5unable?5to?5initialize?5he@ 004ce0f4     LIBCMT:crt0msg.obj
 0002:0000e11c       ??_C@_0DF@GAKBPDFP@R6027?$AN?6?9?5not?5enough?5space?5for?5lo@ 004ce11c     LIBCMT:crt0msg.obj
 0002:0000e154       ??_C@_0DF@IBLNNAIG@R6026?$AN?6?9?5not?5enough?5space?5for?5st@ 004ce154     LIBCMT:crt0msg.obj
 0002:0000e18c       ??_C@_0CG@IOHKGFNJ@R6025?$AN?6?9?5pure?5virtual?5function?5c@ 004ce18c     LIBCMT:crt0msg.obj
 0002:0000e1b4       ??_C@_0DF@JIJJFJDC@R6024?$AN?6?9?5not?5enough?5space?5for?5_o@ 004ce1b4     LIBCMT:crt0msg.obj
 0002:0000e1ec       ??_C@_0CJ@EGEJHFME@R6019?$AN?6?9?5unable?5to?5open?5console?5@ 004ce1ec     LIBCMT:crt0msg.obj
 0002:0000e218       ??_C@_0CB@GNHNIELH@R6018?$AN?6?9?5unexpected?5heap?5error?$AN?6@ 004ce218     LIBCMT:crt0msg.obj
 0002:0000e23c       ??_C@_0CN@FOLDKNG@R6017?$AN?6?9?5unexpected?5multithread?5@ 004ce23c     LIBCMT:crt0msg.obj
 0002:0000e26c       ??_C@_0CM@FAHFJNHO@R6016?$AN?6?9?5not?5enough?5space?5for?5th@ 004ce26c     LIBCMT:crt0msg.obj
 0002:0000e298       ??_C@_0JG@LBKMGKLD@?$AN?6This?5application?5has?5requested@ 004ce298     LIBCMT:crt0msg.obj
 0002:0000e330       ??_C@_0CM@FLCNIPKK@R6009?$AN?6?9?5not?5enough?5space?5for?5en@ 004ce330     LIBCMT:crt0msg.obj
 0002:0000e35c       ??_C@_0CK@KMMJOAPP@R6008?$AN?6?9?5not?5enough?5space?5for?5ar@ 004ce35c     LIBCMT:crt0msg.obj
 0002:0000e388       ??_C@_0CN@LEKKICBM@R6002?$AN?6?9?5floating?5point?5support?5@ 004ce388     LIBCMT:crt0msg.obj
 0002:0000e3b8       ??_C@_0CF@GOGNBNAK@Microsoft?5Visual?5C?$CL?$CL?5Runtime?5Lib@ 004ce3b8     LIBCMT:crt0msg.obj
 0002:0000e3e0       ??_C@_02PHMGELLB@?6?6?$AA@ 004ce3e0     LIBCMT:crt0msg.obj
 0002:0000e3e4       ??_C@_03KHICJKCI@?4?4?4?$AA@ 004ce3e4     LIBCMT:crt0msg.obj
 0002:0000e3e8       ??_C@_0BH@DNAGHKFM@?$DMprogram?5name?5unknown?$DO?$AA@ 004ce3e8     LIBCMT:crt0msg.obj
 0002:0000e400       ??_C@_0BK@OFGJDLJJ@Runtime?5Error?$CB?6?6Program?3?5?$AA@ 004ce400     LIBCMT:crt0msg.obj
 0002:0000e41c       ??_C@_07EPKMNAGK@?4mixcrt?$AA@ 004ce41c     LIBCMT:tidtable.obj
 0002:0000e424       ??_C@_0O@NLDKAIKN@EncodePointer?$AA@ 004ce424     LIBCMT:tidtable.obj
 0002:0000e434       ??_C@_0N@NHGLKGEC@KERNEL32?4DLL?$AA@ 004ce434     LIBCMT:tidtable.obj
 0002:0000e444       ??_C@_0O@KBPMFGHI@DecodePointer?$AA@ 004ce444     LIBCMT:tidtable.obj
 0002:0000e454       ??_C@_07PEJMOBNF@FlsFree?$AA@ 004ce454     LIBCMT:tidtable.obj
 0002:0000e45c       ??_C@_0M@JCPCPOEF@FlsSetValue?$AA@ 004ce45c     LIBCMT:tidtable.obj
 0002:0000e468       ??_C@_0M@GDNOONDI@FlsGetValue?$AA@ 004ce468     LIBCMT:tidtable.obj
 0002:0000e474       ??_C@_08KNHFBNJ@FlsAlloc?$AA@ 004ce474     LIBCMT:tidtable.obj
 0002:0000e480       ??_C@_04PNGHFIJN@?4com?$AA@ 004ce480     LIBCMT:stat.obj
 0002:0000e488       ??_C@_04NEEFLLOK@?4bat?$AA@ 004ce488     LIBCMT:stat.obj
 0002:0000e490       ??_C@_04CPCBDHLK@?4cmd?$AA@ 004ce490     LIBCMT:stat.obj
 0002:0000e498       ??_C@_04JLMDILM@?4exe?$AA@ 004ce498     LIBCMT:stat.obj
 0002:0000e4ac       ??_7exception@std@@6B@     004ce4ac     LIBCMT:stdexcpt.obj
 0002:0000e4b4       ??_C@_0BC@EOODALEL@Unknown?5exception?$AA@ 004ce4b4     LIBCMT:stdexcpt.obj
 0002:0000e4cc       ??_7bad_cast@std@@6B@      004ce4cc     LIBCMT:stdexcpt.obj
 0002:0000e4d8       ??_7bad_typeid@std@@6B@    004ce4d8     LIBCMT:stdexcpt.obj
 0002:0000e4e4       ??_7__non_rtti_object@std@@6B@ 004ce4e4     LIBCMT:stdexcpt.obj
 0002:0000e50c       ??_C@_0BG@KLEAJEFJ@Illegal?5byte?5sequence?$AA@ 004ce50c     LIBCMT:syserr.obj
 0002:0000e524       ??_C@_0BE@ICMCHPHH@Directory?5not?5empty?$AA@ 004ce524     LIBCMT:syserr.obj
 0002:0000e538       ??_C@_0BJ@IHEHINLI@Function?5not?5implemented?$AA@ 004ce538     LIBCMT:syserr.obj
 0002:0000e554       ??_C@_0BD@CLHBCGPB@No?5locks?5available?$AA@ 004ce554     LIBCMT:syserr.obj
 0002:0000e568       ??_C@_0BC@BEDIHIDK@Filename?5too?5long?$AA@ 004ce568     LIBCMT:syserr.obj
 0002:0000e57c       ??_C@_0BK@JAEBMJJM@Resource?5deadlock?5avoided?$AA@ 004ce57c     LIBCMT:syserr.obj
 0002:0000e598       ??_C@_0BB@FCBJFCAJ@Result?5too?5large?$AA@ 004ce598     LIBCMT:syserr.obj
 0002:0000e5ac       ??_C@_0N@MMJPGLJK@Domain?5error?$AA@ 004ce5ac     LIBCMT:syserr.obj
 0002:0000e5bc       ??_C@_0M@LHEPIIOM@Broken?5pipe?$AA@ 004ce5bc     LIBCMT:syserr.obj
 0002:0000e5c8       ??_C@_0P@PKCJJLLM@Too?5many?5links?$AA@ 004ce5c8     LIBCMT:syserr.obj
 0002:0000e5d8       ??_C@_0BG@DDBFNKBH@Read?9only?5file?5system?$AA@ 004ce5d8     LIBCMT:syserr.obj
 0002:0000e5f0       ??_C@_0N@FEHLOILP@Invalid?5seek?$AA@ 004ce5f0     LIBCMT:syserr.obj
 0002:0000e600       ??_C@_0BI@FEALHKLD@No?5space?5left?5on?5device?$AA@ 004ce600     LIBCMT:syserr.obj
 0002:0000e618       ??_C@_0P@LFMMIPAE@File?5too?5large?$AA@ 004ce618     LIBCMT:syserr.obj
 0002:0000e628       ??_C@_0CE@ONOKNLPF@Inappropriate?5I?1O?5control?5operat@ 004ce628     LIBCMT:syserr.obj
 0002:0000e64c       ??_C@_0BE@INBJMKGG@Too?5many?5open?5files?$AA@ 004ce64c     LIBCMT:syserr.obj
 0002:0000e660       ??_C@_0BO@IIFBODJE@Too?5many?5open?5files?5in?5system?$AA@ 004ce660     LIBCMT:syserr.obj
 0002:0000e680       ??_C@_0BB@HMGGCEBG@Invalid?5argument?$AA@ 004ce680     LIBCMT:syserr.obj
 0002:0000e694       ??_C@_0P@NDHGCGKE@Is?5a?5directory?$AA@ 004ce694     LIBCMT:syserr.obj
 0002:0000e6a4       ??_C@_0BA@CJBACOOL@Not?5a?5directory?$AA@ 004ce6a4     LIBCMT:syserr.obj
 0002:0000e6b4       ??_C@_0P@NLEIANHE@No?5such?5device?$AA@ 004ce6b4     LIBCMT:syserr.obj
 0002:0000e6c4       ??_C@_0O@OAMDNOCP@Improper?5link?$AA@ 004ce6c4     LIBCMT:syserr.obj
 0002:0000e6d4       ??_C@_0M@NAAJNNGH@File?5exists?$AA@ 004ce6d4     LIBCMT:syserr.obj
 0002:0000e6e0       ??_C@_0BA@BIBLIOEK@Resource?5device?$AA@ 004ce6e0     LIBCMT:syserr.obj
 0002:0000e6f0       ??_C@_0O@NIPGCINC@Unknown?5error?$AA@ 004ce6f0     LIBCMT:syserr.obj
 0002:0000e700       ??_C@_0M@LOEHLCJD@Bad?5address?$AA@ 004ce700     LIBCMT:syserr.obj
 0002:0000e70c       ??_C@_0BC@HFNFNKAI@Permission?5denied?$AA@ 004ce70c     LIBCMT:syserr.obj
 0002:0000e720       ??_C@_0BB@IMDKMPFB@Not?5enough?5space?$AA@ 004ce720     LIBCMT:syserr.obj
 0002:0000e734       ??_C@_0CB@EPFKGNAK@Resource?5temporarily?5unavailable@ 004ce734     LIBCMT:syserr.obj
 0002:0000e758       ??_C@_0BD@LOHELEP@No?5child?5processes?$AA@ 004ce758     LIBCMT:syserr.obj
 0002:0000e76c       ??_C@_0BE@NFGDDCEF@Bad?5file?5descriptor?$AA@ 004ce76c     LIBCMT:syserr.obj
 0002:0000e780       ??_C@_0BC@HKPNECK@Exec?5format?5error?$AA@ 004ce780     LIBCMT:syserr.obj
 0002:0000e794       ??_C@_0BC@MFFGCDFL@Arg?5list?5too?5long?$AA@ 004ce794     LIBCMT:syserr.obj
 0002:0000e7a8       ??_C@_0BK@DPKMCKJ@No?5such?5device?5or?5address?$AA@ 004ce7a8     LIBCMT:syserr.obj
 0002:0000e7c4       ??_C@_0BD@KKNFOBBD@Input?1output?5error?$AA@ 004ce7c4     LIBCMT:syserr.obj
 0002:0000e7d8       ??_C@_0BK@FJBOAFDK@Interrupted?5function?5call?$AA@ 004ce7d8     LIBCMT:syserr.obj
 0002:0000e7f4       ??_C@_0BA@FKIAIBGA@No?5such?5process?$AA@ 004ce7f4     LIBCMT:syserr.obj
 0002:0000e804       ??_C@_0BK@FMDHKPNF@No?5such?5file?5or?5directory?$AA@ 004ce804     LIBCMT:syserr.obj
 0002:0000e820       ??_C@_0BI@BJFCGOHL@Operation?5not?5permitted?$AA@ 004ce820     LIBCMT:syserr.obj
 0002:0000e838       ??_C@_1O@CEDCILHN@?$AA?$CI?$AAn?$AAu?$AAl?$AAl?$AA?$CJ?$AA?$AA@ 004ce838     LIBCMT:output.obj
 0002:0000e848       ___lookuptable             004ce848     LIBCMT:output.obj
 0002:0000e8a4       ??_C@_0BC@JEAENNKH@SystemFunction036?$AA@ 004ce8a4     LIBCMT:rand_s.obj
 0002:0000e8b8       ??_C@_0N@JJPEKNFO@ADVAPI32?4DLL?$AA@ 004ce8b8     LIBCMT:rand_s.obj
 0002:0000e8c8       ??_C@_0CG@PKBDLMEO@InitializeCriticalSectionAndSpin@ 004ce8c8     LIBCMT:initcrit.obj
 0002:0000e8f0       ___lookuptable_s           004ce8f0     LIBCMT:outputs.obj
 0002:0000e9b8       ??_C@_03IIINPABG@tan?$AA@  004ce9b8     LIBCMT:libm_error.obj
 0002:0000e9bc       ??_C@_03LALBNOCG@cos?$AA@  004ce9bc     LIBCMT:libm_error.obj
 0002:0000e9c0       ??_C@_03BLEJJJBH@sin?$AA@  004ce9c0     LIBCMT:libm_error.obj
 0002:0000e9c4       ??_C@_04EHEDPDJG@modf?$AA@ 004ce9c4     LIBCMT:libm_error.obj
 0002:0000e9cc       ??_C@_05PBJFFIGL@floor?$AA@ 004ce9cc     LIBCMT:libm_error.obj
 0002:0000e9d4       ??_C@_04GFPJNGEK@ceil?$AA@ 004ce9d4     LIBCMT:libm_error.obj
 0002:0000e9dc       ??_C@_04MLLJIGOK@atan?$AA@ 004ce9dc     LIBCMT:libm_error.obj
 0002:0000e9e4       ??_C@_05EOHGHCHD@exp10?$AA@ 004ce9e4     LIBCMT:libm_error.obj
 0002:0000e9ec       ??_C@_04PDIFKINK@acos?$AA@ 004ce9ec     LIBCMT:libm_error.obj
 0002:0000e9f4       ??_C@_04FIHNOPOL@asin?$AA@ 004ce9f4     LIBCMT:libm_error.obj
 0002:0000e9fc       ??_C@_03MGHMBJCF@log?$AA@  004ce9fc     LIBCMT:libm_error.obj
 0002:0000ea00       ??_C@_05HGHHAHAP@log10?$AA@ 004cea00     LIBCMT:libm_error.obj
 0002:0000ea08       ??_C@_03KHJOGHMM@exp?$AA@  004cea08     LIBCMT:libm_error.obj
 0002:0000ea0c       ??_C@_03JGHBODFD@pow?$AA@  004cea0c     LIBCMT:libm_error.obj
 0002:0000ea10       ??_C@_07LCBHPJJN@LC_TIME?$AA@ 004cea10     LIBCMT:setlocal.obj
 0002:0000ea18       ??_C@_0L@DLHIECNL@LC_NUMERIC?$AA@ 004cea18     LIBCMT:setlocal.obj
 0002:0000ea24       ??_C@_0M@MIENIKLA@LC_MONETARY?$AA@ 004cea24     LIBCMT:setlocal.obj
 0002:0000ea30       ??_C@_08EADHIDAD@LC_CTYPE?$AA@ 004cea30     LIBCMT:setlocal.obj
 0002:0000ea3c       ??_C@_0L@KFJHEKIK@LC_COLLATE?$AA@ 004cea3c     LIBCMT:setlocal.obj
 0002:0000ea48       ??_C@_06NEFDFEKB@LC_ALL?$AA@ 004cea48     LIBCMT:setlocal.obj
 0002:0000ea50       ___lc_category             004cea50     LIBCMT:setlocal.obj
 0002:0000eb18       ??_C@_03EGDHDPFD@_?4?0?$AA@ 004ceb18     LIBCMT:setlocal.obj
 0002:0000eb1c       ??_C@_01IDAFKMJL@_?$AA@    004ceb1c     LIBCMT:setlocal.obj
 0002:0000eb20       ??_C@_01ICJEACDI@?$DL?$AA@ 004ceb20     LIBCMT:setlocal.obj
 0002:0000eb24       ??_C@_02BALPLPBG@?$DN?$DL?$AA@ 004ceb24     LIBCMT:setlocal.obj
 0002:0000eb28       ??_C@_06GDENEHCP@CONIN$?$AA@ 004ceb28     LIBCMT:initcon.obj
 0002:0000eb30       ??_C@_07GPDNMNG@CONOUT$?$AA@ 004ceb30     LIBCMT:initcon.obj
 0002:0000eb38       ___dnames                  004ceb38     LIBCMT:timeset.obj
 0002:0000eb50       ___mnames                  004ceb50     LIBCMT:timeset.obj
 0002:0000eb9c       ??_C@_0L@KDOEJCKC@_nextafter?$AA@ 004ceb9c     LIBCMT:fpexcept.obj
 0002:0000eba8       ??_C@_05JGDBENOH@_logb?$AA@ 004ceba8     LIBCMT:fpexcept.obj
 0002:0000ebb0       ??_C@_03ONILCKOB@_yn?$AA@  004cebb0     LIBCMT:fpexcept.obj
 0002:0000ebb4       ??_C@_03NAKIGLHK@_y1?$AA@  004cebb4     LIBCMT:fpexcept.obj
 0002:0000ebb8       ??_C@_03MJLDFKDL@_y0?$AA@  004cebb8     LIBCMT:fpexcept.obj
 0002:0000ebbc       ??_C@_05GKKHEGJL@frexp?$AA@ 004cebbc     LIBCMT:fpexcept.obj
 0002:0000ebc4       ??_C@_04KEPJIHGP@fmod?$AA@ 004cebc4     LIBCMT:fpexcept.obj
 0002:0000ebcc       ??_C@_06MEIMCGCF@_hypot?$AA@ 004cebcc     LIBCMT:fpexcept.obj
 0002:0000ebd4       ??_C@_05KBKMEMPO@_cabs?$AA@ 004cebd4     LIBCMT:fpexcept.obj
 0002:0000ebdc       ??_C@_05CEJMAHNP@ldexp?$AA@ 004cebdc     LIBCMT:fpexcept.obj
 0002:0000ebe4       ??_C@_04ODHECPBC@fabs?$AA@ 004cebe4     LIBCMT:fpexcept.obj
 0002:0000ebec       ??_C@_04EIAKFFMI@sqrt?$AA@ 004cebec     LIBCMT:fpexcept.obj
 0002:0000ebf4       ??_C@_05KNGEOGJB@atan2?$AA@ 004cebf4     LIBCMT:fpexcept.obj
 0002:0000ebfc       ??_C@_04FJHINJAO@tanh?$AA@ 004cebfc     LIBCMT:fpexcept.obj
 0002:0000ec04       ??_C@_04HPJJNFIM@cosh?$AA@ 004cec04     LIBCMT:fpexcept.obj
 0002:0000ec0c       ??_C@_04COOMCNPB@sinh?$AA@ 004cec0c     LIBCMT:fpexcept.obj
 0002:0000ec14       ??_C@_0BK@CFCOFLF@?5Complete?5Object?5Locator?8?$AA@ 004cec14     LIBCMT:undname.obj
 0002:0000ec30       ??_C@_0BN@MECKDCOJ@?5Class?5Hierarchy?5Descriptor?8?$AA@ 004cec30     LIBCMT:undname.obj
 0002:0000ec50       ??_C@_0BD@LGICGFMM@?5Base?5Class?5Array?8?$AA@ 004cec50     LIBCMT:undname.obj
 0002:0000ec64       ??_C@_0BM@LDKODKLH@?5Base?5Class?5Descriptor?5at?5?$CI?$AA@ 004cec64     LIBCMT:undname.obj
 0002:0000ec80       ??_C@_0BC@DAFEJGAK@?5Type?5Descriptor?8?$AA@ 004cec80     LIBCMT:undname.obj
 0002:0000ec94       ??_C@_0BM@PMGGMLDN@?$GAlocal?5static?5thread?5guard?8?$AA@ 004cec94     LIBCMT:undname.obj
 0002:0000ecb0       ??_C@_0CL@FGIJHLCE@?$GAmanaged?5vector?5copy?5constructor@ 004cecb0     LIBCMT:undname.obj
 0002:0000ecdc       ??_C@_0CJ@GJELGAMM@?$GAvector?5vbase?5copy?5constructor?5i@ 004cecdc     LIBCMT:undname.obj
 0002:0000ed08       ??_C@_0CD@CGAJBKEJ@?$GAvector?5copy?5constructor?5iterato@ 004ced08     LIBCMT:undname.obj
 0002:0000ed2c       ??_C@_0CB@PDBIFEP@?$GAdynamic?5atexit?5destructor?5for?5?8@ 004ced2c     LIBCMT:undname.obj
 0002:0000ed50       ??_C@_0BL@CLIPGLGB@?$GAdynamic?5initializer?5for?5?8?$AA@ 004ced50     LIBCMT:undname.obj
 0002:0000ed6c       ??_C@_0CM@FCBBDIGB@?$GAeh?5vector?5vbase?5copy?5constructo@ 004ced6c     LIBCMT:undname.obj
 0002:0000ed98       ??_C@_0CG@HLDDJMAG@?$GAeh?5vector?5copy?5constructor?5iter@ 004ced98     LIBCMT:undname.obj
 0002:0000edc0       ??_C@_0CF@IMGKMJNO@?$GAmanaged?5vector?5destructor?5itera@ 004cedc0     LIBCMT:undname.obj
 0002:0000ede8       ??_C@_0CG@CFDHKGGD@?$GAmanaged?5vector?5constructor?5iter@ 004cede8     LIBCMT:undname.obj
 0002:0000ee10       ??_C@_0BN@CKNJLHMB@?$GAplacement?5delete?$FL?$FN?5closure?8?$AA@ 004cee10     LIBCMT:undname.obj
 0002:0000ee30       ??_C@_0BL@CNOONJFP@?$GAplacement?5delete?5closure?8?$AA@ 004cee30     LIBCMT:undname.obj
 0002:0000ee4c       ??_C@_0P@HJKNJFNN@?$GAomni?5callsig?8?$AA@ 004cee4c     LIBCMT:undname.obj
 0002:0000ee5c       ??_C@_09LBNFPBCA@?5delete?$FL?$FN?$AA@ 004cee5c     LIBCMT:undname.obj
 0002:0000ee68       ??_C@_06FHBGPFGH@?5new?$FL?$FN?$AA@ 004cee68     LIBCMT:undname.obj
 0002:0000ee70       ??_C@_0CE@IIHCMGGL@?$GAlocal?5vftable?5constructor?5closu@ 004cee70     LIBCMT:undname.obj
 0002:0000ee94       ??_C@_0BA@KKLDJDLB@?$GAlocal?5vftable?8?$AA@ 004cee94     LIBCMT:undname.obj
 0002:0000eea4       ??_C@_05KHLCHHI@?$GARTTI?$AA@ 004ceea4     LIBCMT:undname.obj
 0002:0000eeac       ??_C@_03KLGMFNMG@?$GAEH?$AA@ 004ceeac     LIBCMT:undname.obj
 0002:0000eeb0       ??_C@_0BA@KBCDOMBN@?$GAudt?5returning?8?$AA@ 004ceeb0     LIBCMT:undname.obj
 0002:0000eec0       ??_C@_0BL@LLKPOHJI@?$GAcopy?5constructor?5closure?8?$AA@ 004ceec0     LIBCMT:undname.obj
 0002:0000eedc       ??_C@_0CH@OOJPLCPH@?$GAeh?5vector?5vbase?5constructor?5ite@ 004ceedc     LIBCMT:undname.obj
 0002:0000ef04       ??_C@_0CA@GCEOPDGL@?$GAeh?5vector?5destructor?5iterator?8?$AA@ 004cef04     LIBCMT:undname.obj
 0002:0000ef24       ??_C@_0CB@JONCMFFK@?$GAeh?5vector?5constructor?5iterator?8@ 004cef24     LIBCMT:undname.obj
 0002:0000ef48       ??_C@_0BL@NILFHHPC@?$GAvirtual?5displacement?5map?8?$AA@ 004cef48     LIBCMT:undname.obj
 0002:0000ef64       ??_C@_0CE@IKBNEHA@?$GAvector?5vbase?5constructor?5iterat@ 004cef64     LIBCMT:undname.obj
 0002:0000ef88       ??_C@_0BN@LFPFMEDL@?$GAvector?5destructor?5iterator?8?$AA@ 004cef88     LIBCMT:undname.obj
 0002:0000efa8       ??_C@_0BO@PFGOCPJJ@?$GAvector?5constructor?5iterator?8?$AA@ 004cefa8     LIBCMT:undname.obj
 0002:0000efc8       ??_C@_0BN@IMDCHIKM@?$GAscalar?5deleting?5destructor?8?$AA@ 004cefc8     LIBCMT:undname.obj
 0002:0000efe8       ??_C@_0BO@OBMKPJIG@?$GAdefault?5constructor?5closure?8?$AA@ 004cefe8     LIBCMT:undname.obj
 0002:0000f008       ??_C@_0BN@DEGPLNFK@?$GAvector?5deleting?5destructor?8?$AA@ 004cf008     LIBCMT:undname.obj
 0002:0000f028       ??_C@_0BD@JDLKDPAB@?$GAvbase?5destructor?8?$AA@ 004cf028     LIBCMT:undname.obj
 0002:0000f03c       ??_C@_08OBABFOLI@?$GAstring?8?$AA@ 004cf03c     LIBCMT:undname.obj
 0002:0000f048       ??_C@_0BF@KDPPACIK@?$GAlocal?5static?5guard?8?$AA@ 004cf048     LIBCMT:undname.obj
 0002:0000f060       ??_C@_08LLFFHHDJ@?$GAtypeof?8?$AA@ 004cf060     LIBCMT:undname.obj
 0002:0000f06c       ??_C@_07FEEIOKP@?$GAvcall?8?$AA@ 004cf06c     LIBCMT:undname.obj
 0002:0000f074       ??_C@_09BLBHBJP@?$GAvbtable?8?$AA@ 004cf074     LIBCMT:undname.obj
 0002:0000f080       ??_C@_09IFPLHPGF@?$GAvftable?8?$AA@ 004cf080     LIBCMT:undname.obj
 0002:0000f08c       ??_C@_02MHEGNOJ@?$FO?$DN?$AA@ 004cf08c     LIBCMT:undname.obj
 0002:0000f090       ??_C@_02DHLNPPGH@?$HM?$DN?$AA@ 004cf090     LIBCMT:undname.obj
 0002:0000f094       ??_C@_02FGJGFEAB@?$CG?$DN?$AA@ 004cf094     LIBCMT:undname.obj
 0002:0000f098       ??_C@_03CDNPDDLA@?$DM?$DM?$DN?$AA@ 004cf098     LIBCMT:undname.obj
 0002:0000f09c       ??_C@_03IKFCCPFF@?$DO?$DO?$DN?$AA@ 004cf09c     LIBCMT:undname.obj
 0002:0000f0a0       ??_C@_02FENAOKFI@?$CF?$DN?$AA@ 004cf0a0     LIBCMT:undname.obj
 0002:0000f0a4       ??_C@_02FJEHGPIO@?1?$DN?$AA@ 004cf0a4     LIBCMT:undname.obj
 0002:0000f0a8       ??_C@_02FKMDLLOA@?9?$DN?$AA@ 004cf0a8     LIBCMT:undname.obj
 0002:0000f0ac       ??_C@_02FOEOMHFC@?$CL?$DN?$AA@ 004cf0ac     LIBCMT:undname.obj
 0002:0000f0b0       ??_C@_02FPIMKNGF@?$CK?$DN?$AA@ 004cf0b0     LIBCMT:undname.obj
 0002:0000f0b4       ??_C@_02NONPIBCD@?$HM?$HM?$AA@ 004cf0b4     LIBCMT:undname.obj
 0002:0000f0b8       ??_C@_02PPKAJPJL@?$CG?$CG?$AA@ 004cf0b8     LIBCMT:undname.obj
 0002:0000f0bc       ??_C@_01DNKMNLPK@?$HM?$AA@ 004cf0bc     LIBCMT:undname.obj
 0002:0000f0c0       ??_C@_01JKBOJNNK@?$FO?$AA@ 004cf0c0     LIBCMT:undname.obj
 0002:0000f0c4       ??_C@_01PJKLJHI@?$HO?$AA@  004cf0c4     LIBCMT:undname.obj
 0002:0000f0c8       ??_C@_02HCKGKOFO@?$CI?$CJ?$AA@ 004cf0c8     LIBCMT:undname.obj
 0002:0000f0cc       ??_C@_02EEKDKGMJ@?$DO?$DN?$AA@ 004cf0cc     LIBCMT:undname.obj
 0002:0000f0d0       ??_C@_01PPODPGHN@?$DO?$AA@ 004cf0d0     LIBCMT:undname.obj
 0002:0000f0d4       ??_C@_02EHCHHCKH@?$DM?$DN?$AA@ 004cf0d4     LIBCMT:undname.obj
 0002:0000f0d8       ??_C@_01FGNFDNOH@?$CF?$AA@ 004cf0d8     LIBCMT:undname.obj
 0002:0000f0dc       ??_C@_03MNHNFDLC@?9?$DO?$CK?$AA@ 004cf0dc     LIBCMT:undname.obj
 0002:0000f0e0       ??_C@_01MIFGBAGJ@?$CL?$AA@ 004cf0e0     LIBCMT:undname.obj
 0002:0000f0e4       ??_C@_02ECNGHCIF@?$CL?$CL?$AA@ 004cf0e4     LIBCMT:undname.obj
 0002:0000f0e8       ??_C@_02HBOOOICD@?9?$DO?$AA@ 004cf0e8     LIBCMT:undname.obj
 0002:0000f0ec       ??_C@_08LHJFAFGD@operator?$AA@ 004cf0ec     LIBCMT:undname.obj
 0002:0000f0f8       ??_C@_02GPECMEKF@?$FL?$FN?$AA@ 004cf0f8     LIBCMT:undname.obj
 0002:0000f0fc       ??_C@_02FDNJECIE@?$CB?$DN?$AA@ 004cf0fc     LIBCMT:undname.obj
 0002:0000f100       ??_C@_02EGOFBIJA@?$DN?$DN?$AA@ 004cf100     LIBCMT:undname.obj
 0002:0000f104       ??_C@_01DCLJPIOD@?$CB?$AA@ 004cf104     LIBCMT:undname.obj
 0002:0000f108       ??_C@_02GPIOPFAK@?$DO?$DO?$AA@ 004cf108     LIBCMT:undname.obj
 0002:0000f10c       ??_C@_07FPCDHGMM@?5delete?$AA@ 004cf10c     LIBCMT:undname.obj
 0002:0000f114       ??_C@_04NIHEBCM@?5new?$AA@ 004cf114     LIBCMT:undname.obj
 0002:0000f11c       ??_C@_0M@GFIIJFMG@__unaligned?$AA@ 004cf11c     LIBCMT:undname.obj
 0002:0000f128       ??_C@_0L@PILCLIHE@__restrict?$AA@ 004cf128     LIBCMT:undname.obj
 0002:0000f134       ??_C@_07JOMMBBKO@__ptr64?$AA@ 004cf134     LIBCMT:undname.obj
 0002:0000f13c       ??_C@_09HIJEGCPM@__clrcall?$AA@ 004cf13c     LIBCMT:undname.obj
 0002:0000f148       ??_C@_0L@JMKHOMEK@__fastcall?$AA@ 004cf148     LIBCMT:undname.obj
 0002:0000f154       ??_C@_0L@NPHFGOKO@__thiscall?$AA@ 004cf154     LIBCMT:undname.obj
 0002:0000f160       ??_C@_09IFJBGAPI@__stdcall?$AA@ 004cf160     LIBCMT:undname.obj
 0002:0000f16c       ??_C@_08GHMPAG@__pascal?$AA@ 004cf16c     LIBCMT:undname.obj
 0002:0000f178       ??_C@_07KOLFKCDI@__cdecl?$AA@ 004cf178     LIBCMT:undname.obj
 0002:0000f180       ??_C@_08EHJDFFNH@__based?$CI?$AA@ 004cf180     LIBCMT:undname.obj
 0002:0000f314       ??_7DNameNode@@6B@         004cf314     LIBCMT:undname.obj
 0002:0000f324       ??_7charNode@@6B@          004cf324     LIBCMT:undname.obj
 0002:0000f334       ??_7pDNameNode@@6B@        004cf334     LIBCMT:undname.obj
 0002:0000f344       ??_7DNameStatusNode@@6B@   004cf344     LIBCMT:undname.obj
 0002:0000f354       ??_7pcharNode@@6B@         004cf354     LIBCMT:undname.obj
 0002:0000f360       ??_C@_04OKOHEJBO@?5?$DP?$DP?5?$AA@ 004cf360     LIBCMT:undname.obj
 0002:0000f368       ??_C@_06EEGAIFAK@?$HLflat?$HN?$AA@ 004cf368     LIBCMT:undname.obj
 0002:0000f370       ??_C@_05JIBOFOHK@?$HLfor?5?$AA@ 004cf370     LIBCMT:undname.obj
 0002:0000f378       ??_C@_0BN@IBLMMFAP@?$GAnon?9type?9template?9parameter?$AA@ 004cf378     LIBCMT:undname.obj
 0002:0000f398       ??_C@_09EBBEKKIH@unsigned?5?$AA@ 004cf398     LIBCMT:undname.obj
 0002:0000f3a4       ??_C@_05CJIMAING@long?5?$AA@ 004cf3a4     LIBCMT:undname.obj
 0002:0000f3ac       ??_C@_04LAHKHJMA@int?5?$AA@ 004cf3ac     LIBCMT:undname.obj
 0002:0000f3b4       ??_C@_06EHJMALKF@short?5?$AA@ 004cf3b4     LIBCMT:undname.obj
 0002:0000f3bc       ??_C@_05CIHEBHNO@char?5?$AA@ 004cf3bc     LIBCMT:undname.obj
 0002:0000f3c4       ??_C@_04GKJNKENE@void?$AA@ 004cf3c4     LIBCMT:undname.obj
 0002:0000f3cc       ??_C@_0L@EGPHHEKN@?$DMellipsis?$DO?$AA@ 004cf3cc     LIBCMT:undname.obj
 0002:0000f3d8       ??_C@_0M@ELJOJFFH@?0?$DMellipsis?$DO?$AA@ 004cf3d8     LIBCMT:undname.obj
 0002:0000f3e4       ??_C@_04EENFHACM@?0?4?4?4?$AA@ 004cf3e4     LIBCMT:undname.obj
 0002:0000f3ec       ??_C@_07HDJPLPEK@?5throw?$CI?$AA@ 004cf3ec     LIBCMT:undname.obj
 0002:0000f3f4       ??_C@_02GOGNNPBN@?$CJ?$FL?$AA@ 004cf3f4     LIBCMT:undname.obj
 0002:0000f3f8       ??_C@_02MDINNEEG@s?5?$AA@  004cf3f8     LIBCMT:undname.obj
 0002:0000f3fc       ??_C@_0BE@EODMJLIF@?$GAtemplate?9parameter?$AA@ 004cf3fc     LIBCMT:undname.obj
 0002:0000f410       ??_C@_01GEODFPGF@?8?$AA@   004cf410     LIBCMT:undname.obj
 0002:0000f414       ??_C@_04HIBGFPH@NULL?$AA@  004cf414     LIBCMT:undname.obj
 0002:0000f41c       ??_C@_0O@GKABPPIF@cli?3?3pin_ptr?$DM?$AA@ 004cf41c     LIBCMT:undname.obj
 0002:0000f42c       ??_C@_0M@EALIELKG@cli?3?3array?$DM?$AA@ 004cf42c     LIBCMT:undname.obj
 0002:0000f438       ??_C@_05BEFAKPML@void?5?$AA@ 004cf438     LIBCMT:undname.obj
 0002:0000f440       ??_C@_02OHHJMEON@?8?8?$AA@ 004cf440     LIBCMT:undname.obj
 0002:0000f444       ??_C@_0BG@JNJLAMPM@?$GAanonymous?5namespace?8?$AA@ 004cf444     LIBCMT:undname.obj
 0002:0000f45c       ??_C@_01NLNLIGKH@?$GA?$AA@ 004cf45c     LIBCMT:undname.obj
 0002:0000f460       ??_C@_0O@KHGCOMHP@generic?9type?9?$AA@ 004cf460     LIBCMT:undname.obj
 0002:0000f470       ??_C@_0BE@JAEOCHPE@template?9parameter?9?$AA@ 004cf470     LIBCMT:undname.obj
 0002:0000f484       ??_C@_02MOLJINC@?3?3?$AA@  004cf484     LIBCMT:undname.obj
 0002:0000f488       ??_C@_0P@GCIFDJCJ@?$GAunknown?5ecsu?8?$AA@ 004cf488     LIBCMT:undname.obj
 0002:0000f498       ??_C@_06MOJHIBMG@union?5?$AA@ 004cf498     LIBCMT:undname.obj
 0002:0000f4a0       ??_C@_07DIBCDNGL@struct?5?$AA@ 004cf4a0     LIBCMT:undname.obj
 0002:0000f4a8       ??_C@_06LJBABKPM@class?5?$AA@ 004cf4a8     LIBCMT:undname.obj
 0002:0000f4b0       ??_C@_05LJGMCFOG@enum?5?$AA@ 004cf4b0     LIBCMT:undname.obj
 0002:0000f4b8       ??_C@_08KOFANOFK@coclass?5?$AA@ 004cf4b8     LIBCMT:undname.obj
 0002:0000f4c4       ??_C@_0N@DLIEFKNA@cointerface?5?$AA@ 004cf4c4     LIBCMT:undname.obj
 0002:0000f4d4       ??_C@_02KCKGHPCA@?$CJ?5?$AA@ 004cf4d4     LIBCMT:undname.obj
 0002:0000f4d8       ??_C@_0M@DHNBOJMP@extern?5?$CCC?$CC?5?$AA@ 004cf4d8     LIBCMT:undname.obj
 0002:0000f4e4       ??_C@_08KJLFOPNE@?$FLthunk?$FN?3?$AA@ 004cf4e4     LIBCMT:undname.obj
 0002:0000f4f0       ??_C@_08GPDDCMKI@public?3?5?$AA@ 004cf4f0     LIBCMT:undname.obj
 0002:0000f4fc       ??_C@_0M@GAIFPFIP@protected?3?5?$AA@ 004cf4fc     LIBCMT:undname.obj
 0002:0000f508       ??_C@_09LAPHOOG@private?3?5?$AA@ 004cf508     LIBCMT:undname.obj
 0002:0000f514       ??_C@_08NIEOINHE@virtual?5?$AA@ 004cf514     LIBCMT:undname.obj
 0002:0000f520       ??_C@_07PGOEDBHP@static?5?$AA@ 004cf520     LIBCMT:undname.obj
 0002:0000f528       ??_C@_0DA@HGFJFBBE@?$GAtemplate?5static?5data?5member?5des@ 004cf528     LIBCMT:undname.obj
 0002:0000f558       ??_C@_0DB@ILEFOCIJ@?$GAtemplate?5static?5data?5member?5con@ 004cf558     LIBCMT:undname.obj
 0002:0000f58c       ??_C@_0CB@KJDOOODE@?$GAlocal?5static?5destructor?5helper?8@ 004cf58c     LIBCMT:undname.obj
 0002:0000f5b0       ??_C@_0L@HNGCOGAE@?$GAadjustor?$HL?$AA@ 004cf5b0     LIBCMT:undname.obj
 0002:0000f5bc       ??_C@_0L@GHPFDFH@?$GAvtordisp?$HL?$AA@ 004cf5bc     LIBCMT:undname.obj
 0002:0000f5c8       ??_C@_0N@CBHHHENL@?$GAvtordispex?$HL?$AA@ 004cf5c8     LIBCMT:undname.obj
 0002:0000f5d8       ??_C@_02IGFCGPIL@?$HN?8?$AA@ 004cf5d8     LIBCMT:undname.obj
 0002:0000f5dc       ??_C@_03OPGICMGF@?$HN?8?5?$AA@ 004cf5dc     LIBCMT:undname.obj
 0002:0000f5e0       ??_C@_06LIJLOJAG@const?5?$AA@ 004cf5e0     LIBCMT:undname.obj
 0002:0000f5e8       ??_C@_09GAIEOBLP@volatile?5?$AA@ 004cf5e8     LIBCMT:undname.obj
 0002:0000f5f4       ??_C@_04HEJADOOB@CV?3?5?$AA@ 004cf5f4     LIBCMT:undname.obj
 0002:0000f5fc       ??_C@_08PABEKFH@volatile?$AA@ 004cf5fc     LIBCMT:undname.obj
 0002:0000f608       ??_C@_09EFNPDFFP@?5volatile?$AA@ 004cf608     LIBCMT:undname.obj
 0002:0000f614       ??_C@_05BNCCCJPP@const?$AA@ 004cf614     LIBCMT:undname.obj
 0002:0000f61c       ??_C@_07EDHNAJHC@signed?5?$AA@ 004cf61c     LIBCMT:undname.obj
 0002:0000f624       ??_C@_06BNJCAIGJ@double?$AA@ 004cf624     LIBCMT:undname.obj
 0002:0000f62c       ??_C@_04DDKJGDCM@bool?$AA@ 004cf62c     LIBCMT:undname.obj
 0002:0000f634       ??_C@_07CLGGIAMF@wchar_t?$AA@ 004cf634     LIBCMT:undname.obj
 0002:0000f63c       ??_C@_08GAHOLHEO@__int128?$AA@ 004cf63c     LIBCMT:undname.obj
 0002:0000f648       ??_C@_07OFLPPHGP@__int32?$AA@ 004cf648     LIBCMT:undname.obj
 0002:0000f650       ??_C@_07LFCOJCAC@__int64?$AA@ 004cf650     LIBCMT:undname.obj
 0002:0000f658       ??_C@_07ICFHOGAF@__int16?$AA@ 004cf658     LIBCMT:undname.obj
 0002:0000f660       ??_C@_06GCICPBLB@__w64?5?$AA@ 004cf660     LIBCMT:undname.obj
 0002:0000f668       ??_C@_06EBGKOKIG@__int8?$AA@ 004cf668     LIBCMT:undname.obj
 0002:0000f670       ??_C@_05KNFBNCOH@float?$AA@ 004cf670     LIBCMT:undname.obj
 0002:0000f678       ??_C@_04GOKPGOLB@long?$AA@ 004cf678     LIBCMT:undname.obj
 0002:0000f680       ??_C@_03JBIPMCLC@int?$AA@  004cf680     LIBCMT:undname.obj
 0002:0000f684       ??_C@_05BFKKPKCG@short?$AA@ 004cf684     LIBCMT:undname.obj
 0002:0000f68c       ??_C@_04ENMBGAPA@char?$AA@ 004cf68c     LIBCMT:undname.obj
 0002:0000f694       ??_C@_0BI@DFKBFLJE@GetProcessWindowStation?$AA@ 004cf694     LIBCMT:crtmbox.obj
 0002:0000f6ac       ??_C@_0BK@CIDNPOGP@GetUserObjectInformationA?$AA@ 004cf6ac     LIBCMT:crtmbox.obj
 0002:0000f6c8       ??_C@_0BD@HHGDFDBJ@GetLastActivePopup?$AA@ 004cf6c8     LIBCMT:crtmbox.obj
 0002:0000f6dc       ??_C@_0BA@HNOPNCHB@GetActiveWindow?$AA@ 004cf6dc     LIBCMT:crtmbox.obj
 0002:0000f6ec       ??_C@_0M@CHKKJDAI@MessageBoxA?$AA@ 004cf6ec     LIBCMT:crtmbox.obj
 0002:0000f6f8       ??_C@_0L@NDEGIDAG@USER32?4DLL?$AA@ 004cf6f8     LIBCMT:crtmbox.obj
 0002:0000f704       ??_C@_13NOLLCAOD@?$AA?$AA?$AA?$AA@ 004cf704     LIBCMT:a_map.obj
 0002:0000f708       ___newctype                004cf708     LIBCMT:ctype.obj
 0002:0000fa08       __wctype                   004cfa08     LIBCMT:ctype.obj
 0002:0000fc10       ___newclmap                004cfc10     LIBCMT:ctype.obj
 0002:0000fd90       ___newcumap                004cfd90     LIBCMT:ctype.obj
 0002:0000ff10       ??_C@_08JCCMCCIL@HH?3mm?3ss?$AA@ 004cff10     LIBCMT:strftime.obj
 0002:0000ff1c       ??_C@_0BE@CKGJFCPC@dddd?0?5MMMM?5dd?0?5yyyy?$AA@ 004cff1c     LIBCMT:strftime.obj
 0002:0000ff30       ??_C@_08BPBNCDIB@MM?1dd?1yy?$AA@ 004cff30     LIBCMT:strftime.obj
 0002:0000ff3c       ??_C@_02CJNFDJBF@PM?$AA@   004cff3c     LIBCMT:strftime.obj
 0002:0000ff40       ??_C@_02DEDBPAFC@AM?$AA@   004cff40     LIBCMT:strftime.obj
 0002:0000ff44       ??_C@_08EDHMEBNP@December?$AA@ 004cff44     LIBCMT:strftime.obj
 0002:0000ff50       ??_C@_08HCHEGEOA@November?$AA@ 004cff50     LIBCMT:strftime.obj
 0002:0000ff5c       ??_C@_07JJNFCEND@October?$AA@ 004cff5c     LIBCMT:strftime.obj
 0002:0000ff64       ??_C@_09BHHEALKD@September?$AA@ 004cff64     LIBCMT:strftime.obj
 0002:0000ff70       ??_C@_06LBBHFDDG@August?$AA@ 004cff70     LIBCMT:strftime.obj
 0002:0000ff78       ??_C@_04MIEPOIFP@July?$AA@ 004cff78     LIBCMT:strftime.obj
 0002:0000ff80       ??_C@_04CNLMGBGM@June?$AA@ 004cff80     LIBCMT:strftime.obj
 0002:0000ff88       ??_C@_05DMJDNLEJ@April?$AA@ 004cff88     LIBCMT:strftime.obj
 0002:0000ff90       ??_C@_05HPCKOFNC@March?$AA@ 004cff90     LIBCMT:strftime.obj
 0002:0000ff98       ??_C@_08GNJGEPFN@February?$AA@ 004cff98     LIBCMT:strftime.obj
 0002:0000ffa4       ??_C@_07CGJPFGJA@January?$AA@ 004cffa4     LIBCMT:strftime.obj
 0002:0000ffac       ??_C@_03MKABNOCG@Dec?$AA@  004cffac     LIBCMT:strftime.obj
 0002:0000ffb0       ??_C@_03JPJOFNIA@Nov?$AA@  004cffb0     LIBCMT:strftime.obj
 0002:0000ffb4       ??_C@_03BMAOKBAD@Oct?$AA@  004cffb4     LIBCMT:strftime.obj
 0002:0000ffb8       ??_C@_03GGCAPAJC@Sep?$AA@  004cffb8     LIBCMT:strftime.obj
 0002:0000ffbc       ??_C@_03IFJFEIGA@Aug?$AA@  004cffbc     LIBCMT:strftime.obj
 0002:0000ffc0       ??_C@_03LBGABGKK@Jul?$AA@  004cffc0     LIBCMT:strftime.obj
 0002:0000ffc4       ??_C@_03IDFGHECI@Jun?$AA@  004cffc4     LIBCMT:strftime.obj
 0002:0000ffc8       ??_C@_03CNMDKL@May?$AA@    004cffc8     LIBCMT:strftime.obj
 0002:0000ffcc       ??_C@_03LEOLGMJP@Apr?$AA@  004cffcc     LIBCMT:strftime.obj
 0002:0000ffd0       ??_C@_03ODNJBKGA@Mar?$AA@  004cffd0     LIBCMT:strftime.obj
 0002:0000ffd4       ??_C@_03HJBDCHOM@Feb?$AA@  004cffd4     LIBCMT:strftime.obj
 0002:0000ffd8       ??_C@_03JIHJHPIE@Jan?$AA@  004cffd8     LIBCMT:strftime.obj
 0002:0000ffdc       ??_C@_08INBOOONO@Saturday?$AA@ 004cffdc     LIBCMT:strftime.obj
 0002:0000ffe8       ??_C@_06JECMNKMI@Friday?$AA@ 004cffe8     LIBCMT:strftime.obj
 0002:0000fff0       ??_C@_08HACCIKIA@Thursday?$AA@ 004cfff0     LIBCMT:strftime.obj
 0002:0000fffc       ??_C@_09DLIGFAKA@Wednesday?$AA@ 004cfffc     LIBCMT:strftime.obj
 0002:00010008       ??_C@_07BAAGCFCM@Tuesday?$AA@ 004d0008     LIBCMT:strftime.obj
 0002:00010010       ??_C@_06JLEDEDGH@Monday?$AA@ 004d0010     LIBCMT:strftime.obj
 0002:00010018       ??_C@_06OOPIFAJ@Sunday?$AA@ 004d0018     LIBCMT:strftime.obj
 0002:00010020       ??_C@_03FEFJNEK@Sat?$AA@   004d0020     LIBCMT:strftime.obj
 0002:00010024       ??_C@_03IDIOELNC@Fri?$AA@  004d0024     LIBCMT:strftime.obj
 0002:00010028       ??_C@_03IOFIKPDN@Thu?$AA@  004d0028     LIBCMT:strftime.obj
 0002:0001002c       ??_C@_03MHOMLAJA@Wed?$AA@  004d002c     LIBCMT:strftime.obj
 0002:00010030       ??_C@_03NAGEINEP@Tue?$AA@  004d0030     LIBCMT:strftime.obj
 0002:00010034       ??_C@_03PDAGKDH@Mon?$AA@   004d0034     LIBCMT:strftime.obj
 0002:00010038       ??_C@_03KOEHGMDN@Sun?$AA@  004d0038     LIBCMT:strftime.obj
 0002:0001003c       ??_C@_03EBAPMIKO@a?1p?$AA@ 004d003c     LIBCMT:strftime.obj
 0002:00010040       ??_C@_05JAMEPDIN@am?1pm?$AA@ 004d0040     LIBCMT:strftime.obj
 0002:00010048       ??_C@_0O@FMJNFNKE@united?9states?$AA@ 004d0048     LIBCMT:getqloc.obj
 0002:00010058       ??_C@_0P@NDHFFKCA@united?9kingdom?$AA@ 004d0058     LIBCMT:getqloc.obj
 0002:00010068       ??_C@_0BC@HHDADLGF@trinidad?5?$CG?5tobago?$AA@ 004d0068     LIBCMT:getqloc.obj
 0002:0001007c       ??_C@_0M@IOAEBDAC@south?9korea?$AA@ 004d007c     LIBCMT:getqloc.obj
 0002:00010088       ??_C@_0N@FIELFKIJ@south?9africa?$AA@ 004d0088     LIBCMT:getqloc.obj
 0002:00010098       ??_C@_0M@OPNDHCMC@south?5korea?$AA@ 004d0098     LIBCMT:getqloc.obj
 0002:000100a4       ??_C@_0N@MDEOEPFI@south?5africa?$AA@ 004d00a4     LIBCMT:getqloc.obj
 0002:000100b4       ??_C@_06FKAPCJLB@slovak?$AA@ 004d00b4     LIBCMT:getqloc.obj
 0002:000100bc       ??_C@_0M@EFJANOAL@puerto?9rico?$AA@ 004d00bc     LIBCMT:getqloc.obj
 0002:000100c8       ??_C@_08PGOJKDAI@pr?9china?$AA@ 004d00c8     LIBCMT:getqloc.obj
 0002:000100d4       ??_C@_08JHDOMCMI@pr?5china?$AA@ 004d00d4     LIBCMT:getqloc.obj
 0002:000100e0       ??_C@_02JHCHFBLL@nz?$AA@   004d00e0     LIBCMT:getqloc.obj
 0002:000100e4       ??_C@_0M@LINHDHKP@new?9zealand?$AA@ 004d00e4     LIBCMT:getqloc.obj
 0002:000100f0       ??_C@_09IIIPPBDB@hong?9kong?$AA@ 004d00f0     LIBCMT:getqloc.obj
 0002:000100fc       ??_C@_07HJLCKBG@holland?$AA@ 004d00fc     LIBCMT:getqloc.obj
 0002:00010104       ??_C@_0O@LEHGMHAG@great?5britain?$AA@ 004d0104     LIBCMT:getqloc.obj
 0002:00010114       ??_C@_07FACOMELA@england?$AA@ 004d0114     LIBCMT:getqloc.obj
 0002:0001011c       ??_C@_05JIHCEICB@czech?$AA@ 004d011c     LIBCMT:getqloc.obj
 0002:00010124       ??_C@_05BBJOBLGB@china?$AA@ 004d0124     LIBCMT:getqloc.obj
 0002:0001012c       ??_C@_07GPKPHICP@britain?$AA@ 004d012c     LIBCMT:getqloc.obj
 0002:00010134       ??_C@_07MHIPBHMG@america?$AA@ 004d0134     LIBCMT:getqloc.obj
 0002:0001013c       ??_C@_03KIALPMKC@usa?$AA@  004d013c     LIBCMT:getqloc.obj
 0002:00010140       ??_C@_02FGJGKGGD@us?$AA@   004d0140     LIBCMT:getqloc.obj
 0002:00010144       ??_C@_02NEINDODK@uk?$AA@   004d0144     LIBCMT:getqloc.obj
 0002:00010148       ??_C@_05JMPCFJFJ@swiss?$AA@ 004d0148     LIBCMT:getqloc.obj
 0002:00010150       ??_C@_0BA@HLOCPIOD@swedish?9finland?$AA@ 004d0150     LIBCMT:getqloc.obj
 0002:00010160       ??_C@_0BC@PKCNIABK@spanish?9venezuela?$AA@ 004d0160     LIBCMT:getqloc.obj
 0002:00010174       ??_C@_0BA@GBHHMIJI@spanish?9uruguay?$AA@ 004d0174     LIBCMT:getqloc.obj
 0002:00010184       ??_C@_0BE@BHDOHPMC@spanish?9puerto?5rico?$AA@ 004d0184     LIBCMT:getqloc.obj
 0002:00010198       ??_C@_0N@KMOIDGGN@spanish?9peru?$AA@ 004d0198     LIBCMT:getqloc.obj
 0002:000101a8       ??_C@_0BB@HMHLPGPH@spanish?9paraguay?$AA@ 004d01a8     LIBCMT:getqloc.obj
 0002:000101bc       ??_C@_0P@MCPKNGFD@spanish?9panama?$AA@ 004d01bc     LIBCMT:getqloc.obj
 0002:000101cc       ??_C@_0BC@IHOHGAIL@spanish?9nicaragua?$AA@ 004d01cc     LIBCMT:getqloc.obj
 0002:000101e0       ??_C@_0P@KLMJDNFJ@spanish?9modern?$AA@ 004d01e0     LIBCMT:getqloc.obj
 0002:000101f0       ??_C@_0BA@BPAPGBCM@spanish?9mexican?$AA@ 004d01f0     LIBCMT:getqloc.obj
 0002:00010200       ??_C@_0BB@PDECHHHE@spanish?9honduras?$AA@ 004d0200     LIBCMT:getqloc.obj
 0002:00010214       ??_C@_0BC@KLHKFGDB@spanish?9guatemala?$AA@ 004d0214     LIBCMT:getqloc.obj
 0002:00010228       ??_C@_0BE@MFOOKJAI@spanish?9el?5salvador?$AA@ 004d0228     LIBCMT:getqloc.obj
 0002:0001023c       ??_C@_0BA@FCOKFPFC@spanish?9ecuador?$AA@ 004d023c     LIBCMT:getqloc.obj
 0002:0001024c       ??_C@_0BL@PLMGIMOO@spanish?9dominican?5republic?$AA@ 004d024c     LIBCMT:getqloc.obj
 0002:00010268       ??_C@_0BD@HLGDNMHB@spanish?9costa?5rica?$AA@ 004d0268     LIBCMT:getqloc.obj
 0002:0001027c       ??_C@_0BB@PKCBKCPE@spanish?9colombia?$AA@ 004d027c     LIBCMT:getqloc.obj
 0002:00010290       ??_C@_0O@MCBIJGNE@spanish?9chile?$AA@ 004d0290     LIBCMT:getqloc.obj
 0002:000102a0       ??_C@_0BA@BEFEIGJJ@spanish?9bolivia?$AA@ 004d02a0     LIBCMT:getqloc.obj
 0002:000102b0       ??_C@_0BC@EMECMPD@spanish?9argentina?$AA@ 004d02b0     LIBCMT:getqloc.obj
 0002:000102c4       ??_C@_0BF@EALFLENP@portuguese?9brazilian?$AA@ 004d02c4     LIBCMT:getqloc.obj
 0002:000102dc       ??_C@_0BC@HBLEBLNN@norwegian?9nynorsk?$AA@ 004d02dc     LIBCMT:getqloc.obj
 0002:000102f0       ??_C@_0BB@HMACDDCK@norwegian?9bokmal?$AA@ 004d02f0     LIBCMT:getqloc.obj
 0002:00010304       ??_C@_09BAFFPPHE@norwegian?$AA@ 004d0304     LIBCMT:getqloc.obj
 0002:00010310       ??_C@_0O@EAJFJDFG@italian?9swiss?$AA@ 004d0310     LIBCMT:getqloc.obj
 0002:00010320       ??_C@_0O@CNOMPGD@irish?9english?$AA@ 004d0320     LIBCMT:getqloc.obj
 0002:00010330       ??_C@_0N@EDHBGCKG@german?9swiss?$AA@ 004d0330     LIBCMT:getqloc.obj
 0002:00010340       ??_C@_0BC@JACMHNBP@german?9luxembourg?$AA@ 004d0340     LIBCMT:getqloc.obj
 0002:00010354       ??_C@_0BE@HBGMGFEG@german?9lichtenstein?$AA@ 004d0354     LIBCMT:getqloc.obj
 0002:00010368       ??_C@_0BA@HKKBIBKL@german?9austrian?$AA@ 004d0368     LIBCMT:getqloc.obj
 0002:00010378       ??_C@_0N@GCAEPEBK@french?9swiss?$AA@ 004d0378     LIBCMT:getqloc.obj
 0002:00010388       ??_C@_0BC@DJFJJCK@french?9luxembourg?$AA@ 004d0388     LIBCMT:getqloc.obj
 0002:0001039c       ??_C@_0BA@NNCEDFIC@french?9canadian?$AA@ 004d039c     LIBCMT:getqloc.obj
 0002:000103ac       ??_C@_0P@CMPOCLM@french?9belgian?$AA@ 004d03ac     LIBCMT:getqloc.obj
 0002:000103bc       ??_C@_0M@GHHDJOK@english?9usa?$AA@ 004d03bc     LIBCMT:getqloc.obj
 0002:000103c8       ??_C@_0L@PLDJKEIL@english?9us?$AA@ 004d03c8     LIBCMT:getqloc.obj
 0002:000103d4       ??_C@_0L@HJCCDMNC@english?9uk?$AA@ 004d03d4     LIBCMT:getqloc.obj
 0002:000103e0       ??_C@_0BK@CKLIAGJB@english?9trinidad?5y?5tobago?$AA@ 004d03e0     LIBCMT:getqloc.obj
 0002:000103fc       ??_C@_0BF@JMJMGNNF@english?9south?5africa?$AA@ 004d03fc     LIBCMT:getqloc.obj
 0002:00010414       ??_C@_0L@DKIIFDFD@english?9nz?$AA@ 004d0414     LIBCMT:getqloc.obj
 0002:00010420       ??_C@_0BA@ONHGJCLH@english?9jamaica?$AA@ 004d0420     LIBCMT:getqloc.obj
 0002:00010430       ??_C@_0M@HJBGHOPO@english?9ire?$AA@ 004d0430     LIBCMT:getqloc.obj
 0002:0001043c       ??_C@_0BC@LFEKMIFB@english?9caribbean?$AA@ 004d043c     LIBCMT:getqloc.obj
 0002:00010450       ??_C@_0M@OLDPFKHI@english?9can?$AA@ 004d0450     LIBCMT:getqloc.obj
 0002:0001045c       ??_C@_0P@OMDEHBMP@english?9belize?$AA@ 004d045c     LIBCMT:getqloc.obj
 0002:0001046c       ??_C@_0M@KFHFPFED@english?9aus?$AA@ 004d046c     LIBCMT:getqloc.obj
 0002:00010478       ??_C@_0BB@MNMBKDFE@english?9american?$AA@ 004d0478     LIBCMT:getqloc.obj
 0002:0001048c       ??_C@_0O@KIDLNNBA@dutch?9belgian?$AA@ 004d048c     LIBCMT:getqloc.obj
 0002:0001049c       ??_C@_0BE@JBKABBMH@chinese?9traditional?$AA@ 004d049c     LIBCMT:getqloc.obj
 0002:000104b0       ??_C@_0BC@MJJMPKCG@chinese?9singapore?$AA@ 004d04b0     LIBCMT:getqloc.obj
 0002:000104c4       ??_C@_0BD@FDKADDCP@chinese?9simplified?$AA@ 004d04c4     LIBCMT:getqloc.obj
 0002:000104d8       ??_C@_0BB@DBEFDDME@chinese?9hongkong?$AA@ 004d04d8     LIBCMT:getqloc.obj
 0002:000104ec       ??_C@_07DHNMFMCI@chinese?$AA@ 004d04ec     LIBCMT:getqloc.obj
 0002:000104f4       ??_C@_03FNDDCHI@chi?$AA@   004d04f4     LIBCMT:getqloc.obj
 0002:000104f8       ??_C@_03BMMIADDJ@chh?$AA@  004d04f8     LIBCMT:getqloc.obj
 0002:000104fc       ??_C@_08OAIPJDGI@canadian?$AA@ 004d04fc     LIBCMT:getqloc.obj
 0002:00010508       ??_C@_07HBPMNPNJ@belgian?$AA@ 004d0508     LIBCMT:getqloc.obj
 0002:00010510       ??_C@_0L@OEKOPBEL@australian?$AA@ 004d0510     LIBCMT:getqloc.obj
 0002:0001051c       ??_C@_0BB@MEIMBEDG@american?9english?$AA@ 004d051c     LIBCMT:getqloc.obj
 0002:00010530       ??_C@_0BB@DFMDPDGB@american?5english?$AA@ 004d0530     LIBCMT:getqloc.obj
 0002:00010544       ??_C@_08IJLOKOLL@american?$AA@ 004d0544     LIBCMT:getqloc.obj
 0002:00010550       ___rg_language             004d0550     LIBCMT:getqloc.obj
 0002:00010758       ___rg_country              004d0758     LIBCMT:getqloc.obj
 0002:00010810       ___rglangidNotDefault      004d0810     LIBCMT:getqloc.obj
 0002:00010824       ??_C@_03NFKLAGEF@OCP?$AA@  004d0824     LIBCMT:getqloc.obj
 0002:00010828       ??_C@_03DFHEHBHG@ACP?$AA@  004d0828     LIBCMT:getqloc.obj
 0002:0001082c       ??_C@_0BC@NFIEMBLL@Norwegian?9Nynorsk?$AA@ 004d082c     LIBCMT:getqloc.obj
 0002:00010840       ??_C@_06IMKFLFPG@1?$CDQNAN?$AA@ 004d0840     LIBCMT:x10fout.obj
 0002:00010848       ??_C@_05DNEBIAHO@1?$CDINF?$AA@ 004d0848     LIBCMT:x10fout.obj
 0002:00010850       ??_C@_05PHHOCPM@1?$CDIND?$AA@ 004d0850     LIBCMT:x10fout.obj
 0002:00010858       ??_C@_06PGGFOGJG@1?$CDSNAN?$AA@ 004d0858     LIBCMT:x10fout.obj
 0002:00010864       ??_7HASH64withTransform@TaoCrypt@@6B@ 004d0864     taocrypt:hash.obj
 0002:0001088c       ??_7HASHwithTransform@TaoCrypt@@6B@ 004d088c     taocrypt:hash.obj
 0002:00010990       ??_7MultiplicativeGroupT@AbstractRing@TaoCrypt@@6B@ 004d0990     taocrypt:integer.obj
 0002:000109cc       ??_7ModularArithmetic@TaoCrypt@@6B@ 004d09cc     taocrypt:integer.obj
 0002:00010a3c       ??_7MontgomeryRepresentation@TaoCrypt@@6B@ 004d0a3c     taocrypt:integer.obj
 0002:00010aac       ??_7EuclideanDomainOf@TaoCrypt@@6B@ 004d0aac     taocrypt:integer.obj
 0002:00010e9c       ??_7SHA256@TaoCrypt@@6B@   004d0e9c     taocrypt:sha.obj
 0002:00010ec4       ??_7SHA224@TaoCrypt@@6B@   004d0ec4     taocrypt:sha.obj
 0002:00010eec       ??_7SHA512@TaoCrypt@@6B@   004d0eec     taocrypt:sha.obj
 0002:00010f14       ??_7SHA384@TaoCrypt@@6B@   004d0f14     taocrypt:sha.obj
 0002:00010f38       ??_C@_0N@BDDFKIGD@GenuineIntel?$AA@ 004d0f38     taocrypt:misc.obj
 0002:000117e0       ?Te@AES@TaoCrypt@@0QAY0BAA@$$CBIA 004d17e0     taocrypt:aes.obj
 0002:00012be0       ?Td@AES@TaoCrypt@@0QAY0BAA@$$CBIA 004d2be0     taocrypt:aes.obj
 0002:00013fe4       ??_7BER_Decoder@TaoCrypt@@6B@ 004d3fe4     taocrypt:dsa.obj
 0002:00013ff0       ??_7DSA_Private_Decoder@TaoCrypt@@6B@ 004d3ff0     taocrypt:dsa.obj
 0002:00013ffc       ??_7DSA_Public_Decoder@TaoCrypt@@6B@ 004d3ffc     taocrypt:dsa.obj
 0002:00014008       ??_7DH_Decoder@TaoCrypt@@6B@ 004d4008     taocrypt:dh.obj
 0002:00014010       __real@4014000000000000    004d4010     taocrypt:dh.obj
 0002:00014018       __real@4003333333333333    004d4018     taocrypt:dh.obj
 0002:00014020       __real@3fd5555555555555    004d4020     taocrypt:dh.obj
 0002:00014028       __real@3fe5555555555555    004d4028     taocrypt:dh.obj
 0002:00014034       ??_7RSA_Private_Decoder@TaoCrypt@@6B@ 004d4034     taocrypt:rsa.obj
 0002:00014040       ??_7RSA_Public_Decoder@TaoCrypt@@6B@ 004d4040     taocrypt:rsa.obj
 0002:0001404c       ??_7PKCS12_Decoder@TaoCrypt@@6B@ 004d404c     taocrypt:asn.obj
 0002:00014058       ??_7DER_Encoder@TaoCrypt@@6B@ 004d4058     taocrypt:asn.obj
 0002:00014060       ??_7CertDecoder@TaoCrypt@@6B@ 004d4060     taocrypt:asn.obj
 0002:00014068       ??_C@_0P@FGCJCCJK@?1emailAddress?$DN?$AA@ 004d4068     taocrypt:asn.obj
 0002:00014078       ??_C@_04LJKEFMLJ@?1OU?$DN?$AA@ 004d4078     taocrypt:asn.obj
 0002:00014080       ??_C@_03DHMEBNMI@?1O?$DN?$AA@ 004d4080     taocrypt:asn.obj
 0002:00014084       ??_C@_04KCKJNOKJ@?1ST?$DN?$AA@ 004d4084     taocrypt:asn.obj
 0002:0001408c       ??_C@_03DFICKDJB@?1L?$DN?$AA@ 004d408c     taocrypt:asn.obj
 0002:00014090       ??_C@_03DONOOEKM@?1C?$DN?$AA@ 004d4090     taocrypt:asn.obj
 0002:00014094       ??_C@_04LDBIPIAP@?1SN?$DN?$AA@ 004d4094     taocrypt:asn.obj
 0002:000140c0       ??_7Signature_Encoder@TaoCrypt@@6B@ 004d40c0     taocrypt:asn.obj
 0002:000140c4       ??_C@_02GMLFBBN@wb?$AA@    004d40c4     taocrypt:file.obj
 0002:000140c8       ??_C@_1CC@LJGHMMH@?$AAn?$AA?5?$AA?$DO?$AA?5?$AAo?$AAt?$AAh?$AAe?$AAr?$AA?4?$AAs?$AAi?$AAz?$AAe?$AA?$CI?$AA?$CJ?$AA?$AA@ 004d40c8     taocrypt:algebra.obj
 0002:000140f0       ??_C@_1LO@EOHJFFFP@?$AAG?$AA?3?$AA?2?$AAm?$AAy?$AAs?$AAq?$AAl?$AA?9?$AA5?$AA?4?$AA1?$AA?4?$AA5?$AA8?$AA?9?$AAw?$AAi?$AAn?$AAb?$AAu?$AAi?$AAl?$AAd?$AA?2?$AAm?$AAy?$AAs?$AAq?$AAl?$AA?9?$AAc@ 004d40f0     taocrypt:algebra.obj
 0002:000141b0       ??_C@_1DA@DMJEOLMN@?$AAe?$AAx?$AAp?$AAB?$AAe?$AAg?$AAi?$AAn?$AA?9?$AA?$DO?$AAN?$AAo?$AAt?$AAN?$AAe?$AAg?$AAa?$AAt?$AAi?$AAv?$AAe?$AA?$CI?$AA?$CJ?$AA?$AA@ 004d41b0     taocrypt:algebra.obj
 0002:000141e0       ??_C@_1CE@JDMHDBFO@?$AA?4?$AA?2?$AAs?$AAr?$AAc?$AA?2?$AAa?$AAl?$AAg?$AAe?$AAb?$AAr?$AAa?$AA?4?$AAc?$AAp?$AAp?$AA?$AA@ 004d41e0     taocrypt:algebra.obj
 0002:00014204       ?rcon_@AES@TaoCrypt@@0QBIB 004d4204     taocrypt:aestables.obj
 0002:00014334       ??_7MD2@TaoCrypt@@6B@      004d4334     taocrypt:md2.obj
 0002:0001434c       ??_C@_15IABLJNFO@?$AA?6?$AA?6?$AA?$AA@ 004d434c     LIBCMT:wassert.obj
 0002:00014354       ??_C@_13LBAGMAIH@?$AA?6?$AA?$AA@ 004d4354     LIBCMT:wassert.obj
 0002:00014358       ??_C@_17LGKOMLJ@?$AA?4?$AA?4?$AA?4?$AA?$AA@ 004d4358     LIBCMT:wassert.obj
 0002:00014360       ??_C@_1EK@MBDPDCGA@?$AAM?$AAi?$AAc?$AAr?$AAo?$AAs?$AAo?$AAf?$AAt?$AA?5?$AAV?$AAi?$AAs?$AAu?$AAa?$AAl?$AA?5?$AAC?$AA?$CL?$AA?$CL?$AA?5?$AAR?$AAu?$AAn?$AAt?$AAi?$AAm?$AAe?$AA?5?$AAL?$AAi?$AAb@ 004d4360     LIBCMT:wassert.obj
 0002:000143b0       ??_C@_1HK@POCJMFGK@?$AA?$CI?$AAP?$AAr?$AAe?$AAs?$AAs?$AA?5?$AAR?$AAe?$AAt?$AAr?$AAy?$AA?5?$AAt?$AAo?$AA?5?$AAd?$AAe?$AAb?$AAu?$AAg?$AA?5?$AAt?$AAh?$AAe?$AA?5?$AAa?$AAp?$AAp?$AAl?$AAi?$AAc@ 004d43b0     LIBCMT:wassert.obj
 0002:00014430       ??_C@_1OA@EGMLFBHJ@?$AAF?$AAo?$AAr?$AA?5?$AAi?$AAn?$AAf?$AAo?$AAr?$AAm?$AAa?$AAt?$AAi?$AAo?$AAn?$AA?5?$AAo?$AAn?$AA?5?$AAh?$AAo?$AAw?$AA?5?$AAy?$AAo?$AAu?$AAr?$AA?5?$AAp?$AAr?$AAo?$AAg@ 004d4430     LIBCMT:wassert.obj
 0002:00014510       ??_C@_1BK@PEDCIPMA@?$AAE?$AAx?$AAp?$AAr?$AAe?$AAs?$AAs?$AAi?$AAo?$AAn?$AA?3?$AA?5?$AA?$AA@ 004d4510     LIBCMT:wassert.obj
 0002:0001452c       ??_C@_1O@KCAFKHJE@?$AAL?$AAi?$AAn?$AAe?$AA?3?$AA?5?$AA?$AA@ 004d452c     LIBCMT:wassert.obj
 0002:0001453c       ??_C@_1O@HEMHKNDC@?$AAF?$AAi?$AAl?$AAe?$AA?3?$AA?5?$AA?$AA@ 004d453c     LIBCMT:wassert.obj
 0002:0001454c       ??_C@_1CO@EAEJAADC@?$AA?$DM?$AAp?$AAr?$AAo?$AAg?$AAr?$AAa?$AAm?$AA?5?$AAn?$AAa?$AAm?$AAe?$AA?5?$AAu?$AAn?$AAk?$AAn?$AAo?$AAw?$AAn?$AA?$DO?$AA?$AA@ 004d454c     LIBCMT:wassert.obj
 0002:0001457c       ??_C@_1BE@PHKBBGE@?$AAP?$AAr?$AAo?$AAg?$AAr?$AAa?$AAm?$AA?3?$AA?5?$AA?$AA@ 004d457c     LIBCMT:wassert.obj
 0002:00014590       ??_C@_1CE@OJBNHDMO@?$AAA?$AAs?$AAs?$AAe?$AAr?$AAt?$AAi?$AAo?$AAn?$AA?5?$AAf?$AAa?$AAi?$AAl?$AAe?$AAd?$AA?$CB?$AA?$AA@ 004d4590     LIBCMT:wassert.obj
 0002:000145b4       ??_C@_0CG@KNFFOMBO@Filename?5cannot?5be?5displayed?5on?5@ 004d45b4     LIBCMT:wassert.obj
 0002:000145dc       ??_C@_0CI@FDIHEIE@Expression?5cannot?5be?5displayed?5o@ 004d45dc     LIBCMT:wassert.obj
 0002:00017f58       __DEFAULT_CW_in_mem        004d7f58     LIBCMT:common.obj
 0002:00017f5a       __pi_by_2_to_61            004d7f5a     LIBCMT:common.obj
 0002:00017f98       __real@3fe0000000000000    004d7f98     LIBCMT:powhlp.obj
 0002:000188a0       ??_C@_0BK@DEKFELLI@GetUserObjectInformationW?$AA@ 004d88a0     LIBCMT:crtmboxw.obj
 0002:000188bc       ??_C@_0M@DLDCCGNP@MessageBoxW?$AA@ 004d88bc     LIBCMT:crtmboxw.obj
 0002:000188c8       ??_C@_1BG@GOEBHBDC@?$AAU?$AAS?$AAE?$AAR?$AA3?$AA2?$AA?4?$AAD?$AAL?$AAL?$AA?$AA@ 004d88c8     LIBCMT:crtmboxw.obj
 0002:000188e0       ??_C@_0DN@EBBNMLME@?$CIPress?5Retry?5to?5debug?5the?5applic@ 004d88e0     LIBCMT:assert.obj
 0002:00018920       ??_C@_0HA@OJHAGA@For?5information?5on?5how?5your?5prog@ 004d8920     LIBCMT:assert.obj
 0002:00018990       ??_C@_0N@MEECIJGN@Expression?3?5?$AA@ 004d8990     LIBCMT:assert.obj
 0002:000189a0       ??_C@_06FIEBOLOH@Line?3?5?$AA@ 004d89a0     LIBCMT:assert.obj
 0002:000189a8       ??_C@_06IGPBOHMJ@File?3?5?$AA@ 004d89a8     LIBCMT:assert.obj
 0002:000189b0       ??_C@_09KLGCKDOD@Program?3?5?$AA@ 004d89b0     LIBCMT:assert.obj
 0002:000189bc       ??_C@_0BC@LAIDCHCH@Assertion?5failed?$CB?$AA@ 004d89bc     LIBCMT:assert.obj
 0002:000189d0       __load_config_used         004d89d0     LIBCMT:loadcfg.obj
 0002:0001ca58       __tls_used                 004dca58     LIBCMT:tlssup.obj
 0002:0001cd20       ??_R4Command@@6B@          004dcd20     command.obj
 0002:0001cd38       ??_R3Command@@8            004dcd38     command.obj
 0002:0001cd4c       ??_R2Command@@8            004dcd4c     command.obj
 0002:0001cd54       ??_R1A@?0A@EA@Command@@8   004dcd54     command.obj
 0002:0001cd78       ??_R4Instance_cmd@@6B@     004dcd78     commands.obj
 0002:0001cd90       ??_R3Instance_cmd@@8       004dcd90     commands.obj
 0002:0001cda4       ??_R2Instance_cmd@@8       004dcda4     commands.obj
 0002:0001cdb0       ??_R1A@?0A@EA@Instance_cmd@@8 004dcdb0     commands.obj
 0002:0001cdd4       ??_R4Abstract_instance_cmd@@6B@ 004dcdd4     commands.obj
 0002:0001cdec       ??_R3Abstract_instance_cmd@@8 004dcdec     commands.obj
 0002:0001ce00       ??_R2Abstract_instance_cmd@@8 004dce00     commands.obj
 0002:0001ce10       ??_R1A@?0A@EA@Abstract_instance_cmd@@8 004dce10     commands.obj
 0002:0001ce34       ??_R4Show_instance_status@@6B@ 004dce34     commands.obj
 0002:0001ce4c       ??_R3Show_instance_status@@8 004dce4c     commands.obj
 0002:0001ce60       ??_R2Show_instance_status@@8 004dce60     commands.obj
 0002:0001ce74       ??_R1A@?0A@EA@Show_instance_status@@8 004dce74     commands.obj
 0002:0001ce98       ??_R4Show_instance_options@@6B@ 004dce98     commands.obj
 0002:0001ceb0       ??_R3Show_instance_options@@8 004dceb0     commands.obj
 0002:0001cec4       ??_R2Show_instance_options@@8 004dcec4     commands.obj
 0002:0001ced8       ??_R1A@?0A@EA@Show_instance_options@@8 004dced8     commands.obj
 0002:0001cefc       ??_R4Start_instance@@6B@   004dcefc     commands.obj
 0002:0001cf14       ??_R3Start_instance@@8     004dcf14     commands.obj
 0002:0001cf28       ??_R2Start_instance@@8     004dcf28     commands.obj
 0002:0001cf3c       ??_R1A@?0A@EA@Start_instance@@8 004dcf3c     commands.obj
 0002:0001cf60       ??_R4Stop_instance@@6B@    004dcf60     commands.obj
 0002:0001cf78       ??_R3Stop_instance@@8      004dcf78     commands.obj
 0002:0001cf8c       ??_R2Stop_instance@@8      004dcf8c     commands.obj
 0002:0001cfa0       ??_R1A@?0A@EA@Stop_instance@@8 004dcfa0     commands.obj
 0002:0001cfc4       ??_R4Create_instance@@6B@  004dcfc4     commands.obj
 0002:0001cfdc       ??_R3Create_instance@@8    004dcfdc     commands.obj
 0002:0001cff0       ??_R2Create_instance@@8    004dcff0     commands.obj
 0002:0001d000       ??_R1A@?0A@EA@Create_instance@@8 004dd000     commands.obj
 0002:0001d024       ??_R4Drop_instance@@6B@    004dd024     commands.obj
 0002:0001d03c       ??_R3Drop_instance@@8      004dd03c     commands.obj
 0002:0001d050       ??_R2Drop_instance@@8      004dd050     commands.obj
 0002:0001d060       ??_R1A@?0A@EA@Drop_instance@@8 004dd060     commands.obj
 0002:0001d084       ??_R4Show_instance_log@@6B@ 004dd084     commands.obj
 0002:0001d09c       ??_R3Show_instance_log@@8  004dd09c     commands.obj
 0002:0001d0b0       ??_R2Show_instance_log@@8  004dd0b0     commands.obj
 0002:0001d0c4       ??_R1A@?0A@EA@Show_instance_log@@8 004dd0c4     commands.obj
 0002:0001d0e8       ??_R4Show_instance_log_files@@6B@ 004dd0e8     commands.obj
 0002:0001d100       ??_R3Show_instance_log_files@@8 004dd100     commands.obj
 0002:0001d114       ??_R2Show_instance_log_files@@8 004dd114     commands.obj
 0002:0001d128       ??_R1A@?0A@EA@Show_instance_log_files@@8 004dd128     commands.obj
 0002:0001d14c       ??_R4Abstract_option_cmd@@6B@ 004dd14c     commands.obj
 0002:0001d164       ??_R3Abstract_option_cmd@@8 004dd164     commands.obj
 0002:0001d178       ??_R2Abstract_option_cmd@@8 004dd178     commands.obj
 0002:0001d184       ??_R1A@?0A@EA@Abstract_option_cmd@@8 004dd184     commands.obj
 0002:0001d1a8       ??_R4Thread@@6B@           004dd1a8     guardian.obj
 0002:0001d1c0       ??_R3Thread@@8             004dd1c0     guardian.obj
 0002:0001d1d4       ??_R2Thread@@8             004dd1d4     guardian.obj
 0002:0001d1dc       ??_R1A@?0A@EA@Thread@@8    004dd1dc     guardian.obj
 0002:0001d200       ??_R4Guardian@@6B@         004dd200     guardian.obj
 0002:0001d218       ??_R3Guardian@@8           004dd218     guardian.obj
 0002:0001d22c       ??_R2Guardian@@8           004dd22c     guardian.obj
 0002:0001d238       ??_R1A@?0A@EA@Guardian@@8  004dd238     guardian.obj
 0002:0001d25c       ??_R4Instance_monitor@@6B@ 004dd25c     instance.obj
 0002:0001d274       ??_R3Instance_monitor@@8   004dd274     instance.obj
 0002:0001d288       ??_R2Instance_monitor@@8   004dd288     instance.obj
 0002:0001d294       ??_R1A@?0A@EA@Instance_monitor@@8 004dd294     instance.obj
 0002:0001d2b8       ??_R4Listener@@6B@         004dd2b8     listener.obj
 0002:0001d2d0       ??_R3Listener@@8           004dd2d0     listener.obj
 0002:0001d2e4       ??_R2Listener@@8           004dd2e4     listener.obj
 0002:0001d2f0       ??_R1A@?0A@EA@Listener@@8  004dd2f0     listener.obj
 0002:0001d314       ??_R4ThreadModelChecker@?A0xaa3af1e8@@6B@ 004dd314     manager.obj
 0002:0001d32c       ??_R3ThreadModelChecker@?A0xaa3af1e8@@8 004dd32c     manager.obj
 0002:0001d340       ??_R2ThreadModelChecker@?A0xaa3af1e8@@8 004dd340     manager.obj
 0002:0001d34c       ??_R1A@?0A@EA@ThreadModelChecker@?A0xaa3af1e8@@8 004dd34c     manager.obj
 0002:0001d370       ??_R4Mysql_connection@@6B@ 004dd370     mysql_connection.obj
 0002:0001d388       ??_R3Mysql_connection@@8   004dd388     mysql_connection.obj
 0002:0001d39c       ??_R2Mysql_connection@@8   004dd39c     mysql_connection.obj
 0002:0001d3a8       ??_R1A@?0A@EA@Mysql_connection@@8 004dd3a8     mysql_connection.obj
 0002:0001d3cc       ??_R4User_management_cmd@@6B@ 004dd3cc     options.obj
 0002:0001d3e4       ??_R3User_management_cmd@@8 004dd3e4     options.obj
 0002:0001d3f8       ??_R2User_management_cmd@@8 004dd3f8     options.obj
 0002:0001d400       ??_R1A@?0A@EA@User_management_cmd@@8 004dd400     options.obj
 0002:0001d424       ??_R4Print_password_line_cmd@@6B@ 004dd424     options.obj
 0002:0001d43c       ??_R3Print_password_line_cmd@@8 004dd43c     options.obj
 0002:0001d450       ??_R2Print_password_line_cmd@@8 004dd450     options.obj
 0002:0001d45c       ??_R1A@?0A@EA@Print_password_line_cmd@@8 004dd45c     options.obj
 0002:0001d480       ??_R4Add_user_cmd@@6B@     004dd480     options.obj
 0002:0001d498       ??_R3Add_user_cmd@@8       004dd498     options.obj
 0002:0001d4ac       ??_R2Add_user_cmd@@8       004dd4ac     options.obj
 0002:0001d4b8       ??_R1A@?0A@EA@Add_user_cmd@@8 004dd4b8     options.obj
 0002:0001d4dc       ??_R4Drop_user_cmd@@6B@    004dd4dc     options.obj
 0002:0001d4f4       ??_R3Drop_user_cmd@@8      004dd4f4     options.obj
 0002:0001d508       ??_R2Drop_user_cmd@@8      004dd508     options.obj
 0002:0001d514       ??_R1A@?0A@EA@Drop_user_cmd@@8 004dd514     options.obj
 0002:0001d538       ??_R4Edit_user_cmd@@6B@    004dd538     options.obj
 0002:0001d550       ??_R3Edit_user_cmd@@8      004dd550     options.obj
 0002:0001d564       ??_R2Edit_user_cmd@@8      004dd564     options.obj
 0002:0001d570       ??_R1A@?0A@EA@Edit_user_cmd@@8 004dd570     options.obj
 0002:0001d594       ??_R4Clean_db_cmd@@6B@     004dd594     options.obj
 0002:0001d5ac       ??_R3Clean_db_cmd@@8       004dd5ac     options.obj
 0002:0001d5c0       ??_R2Clean_db_cmd@@8       004dd5c0     options.obj
 0002:0001d5cc       ??_R1A@?0A@EA@Clean_db_cmd@@8 004dd5cc     options.obj
 0002:0001d5f0       ??_R4Check_db_cmd@@6B@     004dd5f0     options.obj
 0002:0001d608       ??_R3Check_db_cmd@@8       004dd608     options.obj
 0002:0001d61c       ??_R2Check_db_cmd@@8       004dd61c     options.obj
 0002:0001d628       ??_R1A@?0A@EA@Check_db_cmd@@8 004dd628     options.obj
 0002:0001d64c       ??_R4List_users_cmd@@6B@   004dd64c     options.obj
 0002:0001d664       ??_R3List_users_cmd@@8     004dd664     options.obj
 0002:0001d678       ??_R2List_users_cmd@@8     004dd678     options.obj
 0002:0001d684       ??_R1A@?0A@EA@List_users_cmd@@8 004dd684     options.obj
 0002:0001d6a8       ??_R4Show_instances@@6B@   004dd6a8     parse.obj
 0002:0001d6c0       ??_R3Show_instances@@8     004dd6c0     parse.obj
 0002:0001d6d4       ??_R2Show_instances@@8     004dd6d4     parse.obj
 0002:0001d6e0       ??_R1A@?0A@EA@Show_instances@@8 004dd6e0     parse.obj
 0002:0001d704       ??_R4Flush_instances@@6B@  004dd704     parse.obj
 0002:0001d71c       ??_R3Flush_instances@@8    004dd71c     parse.obj
 0002:0001d730       ??_R2Flush_instances@@8    004dd730     parse.obj
 0002:0001d73c       ??_R1A@?0A@EA@Flush_instances@@8 004dd73c     parse.obj
 0002:0001d760       ??_R4Set_option@@6B@       004dd760     parse.obj
 0002:0001d778       ??_R3Set_option@@8         004dd778     parse.obj
 0002:0001d78c       ??_R2Set_option@@8         004dd78c     parse.obj
 0002:0001d79c       ??_R1A@?0A@EA@Set_option@@8 004dd79c     parse.obj
 0002:0001d7c0       ??_R4Unset_option@@6B@     004dd7c0     parse.obj
 0002:0001d7d8       ??_R3Unset_option@@8       004dd7d8     parse.obj
 0002:0001d7ec       ??_R2Unset_option@@8       004dd7ec     parse.obj
 0002:0001d7fc       ??_R1A@?0A@EA@Unset_option@@8 004dd7fc     parse.obj
 0002:0001d820       ??_R4Syntax_error@@6B@     004dd820     parse.obj
 0002:0001d838       ??_R3Syntax_error@@8       004dd838     parse.obj
 0002:0001d84c       ??_R2Syntax_error@@8       004dd84c     parse.obj
 0002:0001d858       ??_R1A@?0A@EA@Syntax_error@@8 004dd858     parse.obj
 0002:0001d87c       ??_R4Mysqld_output_parser@?A0x1beba216@@6B@ 004dd87c     parse_output.obj
 0002:0001d894       ??_R3Mysqld_output_parser@?A0x1beba216@@8 004dd894     parse_output.obj
 0002:0001d8a8       ??_R2Mysqld_output_parser@?A0x1beba216@@8 004dd8a8     parse_output.obj
 0002:0001d8b0       ??_R1A@?0A@EA@Mysqld_output_parser@?A0x1beba216@@8 004dd8b0     parse_output.obj
 0002:0001d8d4       ??_R4Mysqld_output_parser_win@?A0x1beba216@@6B@ 004dd8d4     parse_output.obj
 0002:0001d8ec       ??_R3Mysqld_output_parser_win@?A0x1beba216@@8 004dd8ec     parse_output.obj
 0002:0001d900       ??_R2Mysqld_output_parser_win@?A0x1beba216@@8 004dd900     parse_output.obj
 0002:0001d90c       ??_R1A@?0A@EA@Mysqld_output_parser_win@?A0x1beba216@@8 004dd90c     parse_output.obj
 0002:0001d930       ??_R4IMService@@6B@        004dd930     IMService.obj
 0002:0001d948       ??_R3IMService@@8          004dd948     IMService.obj
 0002:0001d95c       ??_R2IMService@@8          004dd95c     IMService.obj
 0002:0001d968       ??_R1A@?0A@EA@IMService@@8 004dd968     IMService.obj
 0002:0001d98c       ??_R1A@?0A@EA@WindowsService@@8 004dd98c     IMService.obj
 0002:0001d9b0       ??_R3WindowsService@@8     004dd9b0     IMService.obj
 0002:0001d9c4       ??_R2WindowsService@@8     004dd9c4     IMService.obj
 0002:0001d9cc       ??_R4WindowsService@@6B@   004dd9cc     WindowsService.obj
 0002:0001d9e4       ??_R4Message@yaSSL@@6B@    004dd9e4     yassl:ssl.obj
 0002:0001d9f8       ??_R3Message@yaSSL@@8      004dd9f8     yassl:ssl.obj
 0002:0001da08       ??_R2Message@yaSSL@@8      004dda08     yassl:ssl.obj
 0002:0001da14       ??_R1A@?0A@EA@Message@yaSSL@@8 004dda14     yassl:ssl.obj
 0002:0001da30       ??_R13?0A@EA@virtual_base@yaSSL@@8 004dda30     yassl:ssl.obj
 0002:0001da4c       ??_R3virtual_base@yaSSL@@8 004dda4c     yassl:ssl.obj
 0002:0001da5c       ??_R2virtual_base@yaSSL@@8 004dda5c     yassl:ssl.obj
 0002:0001da64       ??_R1A@?0A@EA@virtual_base@yaSSL@@8 004dda64     yassl:ssl.obj
 0002:0001da80       ??_R4HandShakeBase@yaSSL@@6B@ 004dda80     yassl:ssl.obj
 0002:0001da94       ??_R3HandShakeBase@yaSSL@@8 004dda94     yassl:ssl.obj
 0002:0001daa4       ??_R2HandShakeBase@yaSSL@@8 004ddaa4     yassl:ssl.obj
 0002:0001dab0       ??_R1A@?0A@EA@HandShakeBase@yaSSL@@8 004ddab0     yassl:ssl.obj
 0002:0001dacc       ??_R4HASH@TaoCrypt@@6B@    004ddacc     yassl:ssl.obj
 0002:0001dae0       ??_R3HASH@TaoCrypt@@8      004ddae0     yassl:ssl.obj
 0002:0001daf0       ??_R2HASH@TaoCrypt@@8      004ddaf0     yassl:ssl.obj
 0002:0001dafc       ??_R1A@?0A@EA@HASH@TaoCrypt@@8 004ddafc     yassl:ssl.obj
 0002:0001db18       ??_R13?0A@EA@virtual_base@TaoCrypt@@8 004ddb18     yassl:ssl.obj
 0002:0001db34       ??_R3virtual_base@TaoCrypt@@8 004ddb34     yassl:ssl.obj
 0002:0001db44       ??_R2virtual_base@TaoCrypt@@8 004ddb44     yassl:ssl.obj
 0002:0001db4c       ??_R1A@?0A@EA@virtual_base@TaoCrypt@@8 004ddb4c     yassl:ssl.obj
 0002:0001db68       ??_R4MD5@TaoCrypt@@6B@     004ddb68     yassl:ssl.obj
 0002:0001db7c       ??_R3MD5@TaoCrypt@@8       004ddb7c     yassl:ssl.obj
 0002:0001db8c       ??_R2MD5@TaoCrypt@@8       004ddb8c     yassl:ssl.obj
 0002:0001dba0       ??_R1A@?0A@EA@MD5@TaoCrypt@@8 004ddba0     yassl:ssl.obj
 0002:0001dbbc       ??_R1A@?0A@EA@HASHwithTransform@TaoCrypt@@8 004ddbbc     yassl:ssl.obj
 0002:0001dbd8       ??_R3HASHwithTransform@TaoCrypt@@8 004ddbd8     yassl:ssl.obj
 0002:0001dbe8       ??_R2HASHwithTransform@TaoCrypt@@8 004ddbe8     yassl:ssl.obj
 0002:0001dbf8       ??_R4MD4@TaoCrypt@@6B@     004ddbf8     yassl:ssl.obj
 0002:0001dc0c       ??_R3MD4@TaoCrypt@@8       004ddc0c     yassl:ssl.obj
 0002:0001dc1c       ??_R2MD4@TaoCrypt@@8       004ddc1c     yassl:ssl.obj
 0002:0001dc30       ??_R1A@?0A@EA@MD4@TaoCrypt@@8 004ddc30     yassl:ssl.obj
 0002:0001dc4c       ??_R4Digest@yaSSL@@6B@     004ddc4c     yassl:crypto_wrapper.obj
 0002:0001dc60       ??_R3Digest@yaSSL@@8       004ddc60     yassl:crypto_wrapper.obj
 0002:0001dc70       ??_R2Digest@yaSSL@@8       004ddc70     yassl:crypto_wrapper.obj
 0002:0001dc7c       ??_R1A@?0A@EA@Digest@yaSSL@@8 004ddc7c     yassl:crypto_wrapper.obj
 0002:0001dc98       ??_R4BulkCipher@yaSSL@@6B@ 004ddc98     yassl:crypto_wrapper.obj
 0002:0001dcac       ??_R3BulkCipher@yaSSL@@8   004ddcac     yassl:crypto_wrapper.obj
 0002:0001dcbc       ??_R2BulkCipher@yaSSL@@8   004ddcbc     yassl:crypto_wrapper.obj
 0002:0001dcc8       ??_R1A@?0A@EA@BulkCipher@yaSSL@@8 004ddcc8     yassl:crypto_wrapper.obj
 0002:0001dce4       ??_R4Auth@yaSSL@@6B@       004ddce4     yassl:crypto_wrapper.obj
 0002:0001dcf8       ??_R3Auth@yaSSL@@8         004ddcf8     yassl:crypto_wrapper.obj
 0002:0001dd08       ??_R2Auth@yaSSL@@8         004ddd08     yassl:crypto_wrapper.obj
 0002:0001dd14       ??_R1A@?0A@EA@Auth@yaSSL@@8 004ddd14     yassl:crypto_wrapper.obj
 0002:0001dd30       ??_R4SHA@TaoCrypt@@6B@     004ddd30     yassl:crypto_wrapper.obj
 0002:0001dd44       ??_R3SHA@TaoCrypt@@8       004ddd44     yassl:crypto_wrapper.obj
 0002:0001dd54       ??_R2SHA@TaoCrypt@@8       004ddd54     yassl:crypto_wrapper.obj
 0002:0001dd68       ??_R1A@?0A@EA@SHA@TaoCrypt@@8 004ddd68     yassl:crypto_wrapper.obj
 0002:0001dd84       ??_R4RIPEMD160@TaoCrypt@@6B@ 004ddd84     yassl:crypto_wrapper.obj
 0002:0001dd98       ??_R3RIPEMD160@TaoCrypt@@8 004ddd98     yassl:crypto_wrapper.obj
 0002:0001dda8       ??_R2RIPEMD160@TaoCrypt@@8 004ddda8     yassl:crypto_wrapper.obj
 0002:0001ddbc       ??_R1A@?0A@EA@RIPEMD160@TaoCrypt@@8 004dddbc     yassl:crypto_wrapper.obj
 0002:0001ddd8       ??_R4Mode_BASE@TaoCrypt@@6B@ 004dddd8     yassl:crypto_wrapper.obj
 0002:0001ddec       ??_R3Mode_BASE@TaoCrypt@@8 004dddec     yassl:crypto_wrapper.obj
 0002:0001ddfc       ??_R2Mode_BASE@TaoCrypt@@8 004dddfc     yassl:crypto_wrapper.obj
 0002:0001de08       ??_R1A@?0A@EA@Mode_BASE@TaoCrypt@@8 004dde08     yassl:crypto_wrapper.obj
 0002:0001de24       ??_R4DES@TaoCrypt@@6B@     004dde24     yassl:crypto_wrapper.obj
 0002:0001de38       ??_R3DES@TaoCrypt@@8       004dde38     yassl:crypto_wrapper.obj
 0002:0001de48       ??_R2DES@TaoCrypt@@8       004dde48     yassl:crypto_wrapper.obj
 0002:0001de5c       ??_R1A@?0A@EA@DES@TaoCrypt@@8 004dde5c     yassl:crypto_wrapper.obj
 0002:0001de78       ??_R1DI@?0A@EA@BasicDES@TaoCrypt@@8 004dde78     yassl:crypto_wrapper.obj
 0002:0001de94       ??_R3BasicDES@TaoCrypt@@8  004dde94     yassl:crypto_wrapper.obj
 0002:0001dea4       ??_R2BasicDES@TaoCrypt@@8  004ddea4     yassl:crypto_wrapper.obj
 0002:0001deac       ??_R1A@?0A@EA@BasicDES@TaoCrypt@@8 004ddeac     yassl:crypto_wrapper.obj
 0002:0001dec8       ??_R4DES_EDE3@TaoCrypt@@6B@ 004ddec8     yassl:crypto_wrapper.obj
 0002:0001dedc       ??_R3DES_EDE3@TaoCrypt@@8  004ddedc     yassl:crypto_wrapper.obj
 0002:0001deec       ??_R2DES_EDE3@TaoCrypt@@8  004ddeec     yassl:crypto_wrapper.obj
 0002:0001defc       ??_R1A@?0A@EA@DES_EDE3@TaoCrypt@@8 004ddefc     yassl:crypto_wrapper.obj
 0002:0001df18       ??_R4AES@TaoCrypt@@6B@     004ddf18     yassl:crypto_wrapper.obj
 0002:0001df2c       ??_R3AES@TaoCrypt@@8       004ddf2c     yassl:crypto_wrapper.obj
 0002:0001df3c       ??_R2AES@TaoCrypt@@8       004ddf3c     yassl:crypto_wrapper.obj
 0002:0001df4c       ??_R1A@?0A@EA@AES@TaoCrypt@@8 004ddf4c     yassl:crypto_wrapper.obj
 0002:0001df68       ??_R4MD5@yaSSL@@6B@        004ddf68     yassl:crypto_wrapper.obj
 0002:0001df7c       ??_R3MD5@yaSSL@@8          004ddf7c     yassl:crypto_wrapper.obj
 0002:0001df8c       ??_R2MD5@yaSSL@@8          004ddf8c     yassl:crypto_wrapper.obj
 0002:0001df9c       ??_R1A@?0A@EA@MD5@yaSSL@@8 004ddf9c     yassl:crypto_wrapper.obj
 0002:0001dfb8       ??_R4SHA@yaSSL@@6B@        004ddfb8     yassl:crypto_wrapper.obj
 0002:0001dfcc       ??_R3SHA@yaSSL@@8          004ddfcc     yassl:crypto_wrapper.obj
 0002:0001dfdc       ??_R2SHA@yaSSL@@8          004ddfdc     yassl:crypto_wrapper.obj
 0002:0001dfec       ??_R1A@?0A@EA@SHA@yaSSL@@8 004ddfec     yassl:crypto_wrapper.obj
 0002:0001e008       ??_R4RMD@yaSSL@@6B@        004de008     yassl:crypto_wrapper.obj
 0002:0001e01c       ??_R3RMD@yaSSL@@8          004de01c     yassl:crypto_wrapper.obj
 0002:0001e02c       ??_R2RMD@yaSSL@@8          004de02c     yassl:crypto_wrapper.obj
 0002:0001e03c       ??_R1A@?0A@EA@RMD@yaSSL@@8 004de03c     yassl:crypto_wrapper.obj
 0002:0001e058       ??_R4RC4@yaSSL@@6B@        004de058     yassl:crypto_wrapper.obj
 0002:0001e06c       ??_R3RC4@yaSSL@@8          004de06c     yassl:crypto_wrapper.obj
 0002:0001e07c       ??_R2RC4@yaSSL@@8          004de07c     yassl:crypto_wrapper.obj
 0002:0001e08c       ??_R1A@?0A@EA@RC4@yaSSL@@8 004de08c     yassl:crypto_wrapper.obj
 0002:0001e0a8       ??_R4AES@yaSSL@@6B@        004de0a8     yassl:crypto_wrapper.obj
 0002:0001e0bc       ??_R3AES@yaSSL@@8          004de0bc     yassl:crypto_wrapper.obj
 0002:0001e0cc       ??_R2AES@yaSSL@@8          004de0cc     yassl:crypto_wrapper.obj
 0002:0001e0dc       ??_R1A@?0A@EA@AES@yaSSL@@8 004de0dc     yassl:crypto_wrapper.obj
 0002:0001e0f8       ??_R4HMAC_MD5@yaSSL@@6B@   004de0f8     yassl:crypto_wrapper.obj
 0002:0001e10c       ??_R3HMAC_MD5@yaSSL@@8     004de10c     yassl:crypto_wrapper.obj
 0002:0001e11c       ??_R2HMAC_MD5@yaSSL@@8     004de11c     yassl:crypto_wrapper.obj
 0002:0001e12c       ??_R1A@?0A@EA@HMAC_MD5@yaSSL@@8 004de12c     yassl:crypto_wrapper.obj
 0002:0001e148       ??_R4HMAC_SHA@yaSSL@@6B@   004de148     yassl:crypto_wrapper.obj
 0002:0001e15c       ??_R3HMAC_SHA@yaSSL@@8     004de15c     yassl:crypto_wrapper.obj
 0002:0001e16c       ??_R2HMAC_SHA@yaSSL@@8     004de16c     yassl:crypto_wrapper.obj
 0002:0001e17c       ??_R1A@?0A@EA@HMAC_SHA@yaSSL@@8 004de17c     yassl:crypto_wrapper.obj
 0002:0001e198       ??_R4HMAC_RMD@yaSSL@@6B@   004de198     yassl:crypto_wrapper.obj
 0002:0001e1ac       ??_R3HMAC_RMD@yaSSL@@8     004de1ac     yassl:crypto_wrapper.obj
 0002:0001e1bc       ??_R2HMAC_RMD@yaSSL@@8     004de1bc     yassl:crypto_wrapper.obj
 0002:0001e1cc       ??_R1A@?0A@EA@HMAC_RMD@yaSSL@@8 004de1cc     yassl:crypto_wrapper.obj
 0002:0001e1e8       ??_R4DES@yaSSL@@6B@        004de1e8     yassl:crypto_wrapper.obj
 0002:0001e1fc       ??_R3DES@yaSSL@@8          004de1fc     yassl:crypto_wrapper.obj
 0002:0001e20c       ??_R2DES@yaSSL@@8          004de20c     yassl:crypto_wrapper.obj
 0002:0001e21c       ??_R1A@?0A@EA@DES@yaSSL@@8 004de21c     yassl:crypto_wrapper.obj
 0002:0001e238       ??_R4DES_EDE@yaSSL@@6B@    004de238     yassl:crypto_wrapper.obj
 0002:0001e24c       ??_R3DES_EDE@yaSSL@@8      004de24c     yassl:crypto_wrapper.obj
 0002:0001e25c       ??_R2DES_EDE@yaSSL@@8      004de25c     yassl:crypto_wrapper.obj
 0002:0001e26c       ??_R1A@?0A@EA@DES_EDE@yaSSL@@8 004de26c     yassl:crypto_wrapper.obj
 0002:0001e288       ??_R4DSS@yaSSL@@6B@        004de288     yassl:crypto_wrapper.obj
 0002:0001e29c       ??_R3DSS@yaSSL@@8          004de29c     yassl:crypto_wrapper.obj
 0002:0001e2ac       ??_R2DSS@yaSSL@@8          004de2ac     yassl:crypto_wrapper.obj
 0002:0001e2bc       ??_R1A@?0A@EA@DSS@yaSSL@@8 004de2bc     yassl:crypto_wrapper.obj
 0002:0001e2d8       ??_R4RSA@yaSSL@@6B@        004de2d8     yassl:crypto_wrapper.obj
 0002:0001e2ec       ??_R3RSA@yaSSL@@8          004de2ec     yassl:crypto_wrapper.obj
 0002:0001e2fc       ??_R2RSA@yaSSL@@8          004de2fc     yassl:crypto_wrapper.obj
 0002:0001e30c       ??_R1A@?0A@EA@RSA@yaSSL@@8 004de30c     yassl:crypto_wrapper.obj
 0002:0001e328       ??_R4HandShakeHeader@yaSSL@@6B@ 004de328     yassl:yassl_imp.obj
 0002:0001e33c       ??_R3HandShakeHeader@yaSSL@@8 004de33c     yassl:yassl_imp.obj
 0002:0001e34c       ??_R2HandShakeHeader@yaSSL@@8 004de34c     yassl:yassl_imp.obj
 0002:0001e35c       ??_R1A@?0A@EA@HandShakeHeader@yaSSL@@8 004de35c     yassl:yassl_imp.obj
 0002:0001e378       ??_R4ServerKeyBase@yaSSL@@6B@ 004de378     yassl:yassl_imp.obj
 0002:0001e38c       ??_R3ServerKeyBase@yaSSL@@8 004de38c     yassl:yassl_imp.obj
 0002:0001e39c       ??_R2ServerKeyBase@yaSSL@@8 004de39c     yassl:yassl_imp.obj
 0002:0001e3a8       ??_R1A@?0A@EA@ServerKeyBase@yaSSL@@8 004de3a8     yassl:yassl_imp.obj
 0002:0001e3c4       ??_R4ClientKeyBase@yaSSL@@6B@ 004de3c4     yassl:yassl_imp.obj
 0002:0001e3d8       ??_R3ClientKeyBase@yaSSL@@8 004de3d8     yassl:yassl_imp.obj
 0002:0001e3e8       ??_R2ClientKeyBase@yaSSL@@8 004de3e8     yassl:yassl_imp.obj
 0002:0001e3f4       ??_R1A@?0A@EA@ClientKeyBase@yaSSL@@8 004de3f4     yassl:yassl_imp.obj
 0002:0001e410       ??_R4ClientDiffieHellmanPublic@yaSSL@@6B@ 004de410     yassl:yassl_imp.obj
 0002:0001e424       ??_R3ClientDiffieHellmanPublic@yaSSL@@8 004de424     yassl:yassl_imp.obj
 0002:0001e434       ??_R2ClientDiffieHellmanPublic@yaSSL@@8 004de434     yassl:yassl_imp.obj
 0002:0001e444       ??_R1A@?0A@EA@ClientDiffieHellmanPublic@yaSSL@@8 004de444     yassl:yassl_imp.obj
 0002:0001e460       ??_R4ChangeCipherSpec@yaSSL@@6B@ 004de460     yassl:yassl_imp.obj
 0002:0001e474       ??_R3ChangeCipherSpec@yaSSL@@8 004de474     yassl:yassl_imp.obj
 0002:0001e484       ??_R2ChangeCipherSpec@yaSSL@@8 004de484     yassl:yassl_imp.obj
 0002:0001e494       ??_R1A@?0A@EA@ChangeCipherSpec@yaSSL@@8 004de494     yassl:yassl_imp.obj
 0002:0001e4b0       ??_R4Alert@yaSSL@@6B@      004de4b0     yassl:yassl_imp.obj
 0002:0001e4c4       ??_R3Alert@yaSSL@@8        004de4c4     yassl:yassl_imp.obj
 0002:0001e4d4       ??_R2Alert@yaSSL@@8        004de4d4     yassl:yassl_imp.obj
 0002:0001e4e4       ??_R1A@?0A@EA@Alert@yaSSL@@8 004de4e4     yassl:yassl_imp.obj
 0002:0001e500       ??_R4Data@yaSSL@@6B@       004de500     yassl:yassl_imp.obj
 0002:0001e514       ??_R3Data@yaSSL@@8         004de514     yassl:yassl_imp.obj
 0002:0001e524       ??_R2Data@yaSSL@@8         004de524     yassl:yassl_imp.obj
 0002:0001e534       ??_R1A@?0A@EA@Data@yaSSL@@8 004de534     yassl:yassl_imp.obj
 0002:0001e550       ??_R4Certificate@yaSSL@@6B@ 004de550     yassl:yassl_imp.obj
 0002:0001e564       ??_R3Certificate@yaSSL@@8  004de564     yassl:yassl_imp.obj
 0002:0001e574       ??_R2Certificate@yaSSL@@8  004de574     yassl:yassl_imp.obj
 0002:0001e584       ??_R1A@?0A@EA@Certificate@yaSSL@@8 004de584     yassl:yassl_imp.obj
 0002:0001e5a0       ??_R4ServerHello@yaSSL@@6B@ 004de5a0     yassl:yassl_imp.obj
 0002:0001e5b4       ??_R3ServerHello@yaSSL@@8  004de5b4     yassl:yassl_imp.obj
 0002:0001e5c4       ??_R2ServerHello@yaSSL@@8  004de5c4     yassl:yassl_imp.obj
 0002:0001e5d4       ??_R1A@?0A@EA@ServerHello@yaSSL@@8 004de5d4     yassl:yassl_imp.obj
 0002:0001e5f0       ??_R4ServerHelloDone@yaSSL@@6B@ 004de5f0     yassl:yassl_imp.obj
 0002:0001e604       ??_R3ServerHelloDone@yaSSL@@8 004de604     yassl:yassl_imp.obj
 0002:0001e614       ??_R2ServerHelloDone@yaSSL@@8 004de614     yassl:yassl_imp.obj
 0002:0001e624       ??_R1A@?0A@EA@ServerHelloDone@yaSSL@@8 004de624     yassl:yassl_imp.obj
 0002:0001e640       ??_R4ClientHello@yaSSL@@6B@ 004de640     yassl:yassl_imp.obj
 0002:0001e654       ??_R3ClientHello@yaSSL@@8  004de654     yassl:yassl_imp.obj
 0002:0001e664       ??_R2ClientHello@yaSSL@@8  004de664     yassl:yassl_imp.obj
 0002:0001e674       ??_R1A@?0A@EA@ClientHello@yaSSL@@8 004de674     yassl:yassl_imp.obj
 0002:0001e690       ??_R4ServerKeyExchange@yaSSL@@6B@ 004de690     yassl:yassl_imp.obj
 0002:0001e6a4       ??_R3ServerKeyExchange@yaSSL@@8 004de6a4     yassl:yassl_imp.obj
 0002:0001e6b4       ??_R2ServerKeyExchange@yaSSL@@8 004de6b4     yassl:yassl_imp.obj
 0002:0001e6c4       ??_R1A@?0A@EA@ServerKeyExchange@yaSSL@@8 004de6c4     yassl:yassl_imp.obj
 0002:0001e6e0       ??_R4CertificateVerify@yaSSL@@6B@ 004de6e0     yassl:yassl_imp.obj
 0002:0001e6f4       ??_R3CertificateVerify@yaSSL@@8 004de6f4     yassl:yassl_imp.obj
 0002:0001e704       ??_R2CertificateVerify@yaSSL@@8 004de704     yassl:yassl_imp.obj
 0002:0001e714       ??_R1A@?0A@EA@CertificateVerify@yaSSL@@8 004de714     yassl:yassl_imp.obj
 0002:0001e730       ??_R4ClientKeyExchange@yaSSL@@6B@ 004de730     yassl:yassl_imp.obj
 0002:0001e744       ??_R3ClientKeyExchange@yaSSL@@8 004de744     yassl:yassl_imp.obj
 0002:0001e754       ??_R2ClientKeyExchange@yaSSL@@8 004de754     yassl:yassl_imp.obj
 0002:0001e764       ??_R1A@?0A@EA@ClientKeyExchange@yaSSL@@8 004de764     yassl:yassl_imp.obj
 0002:0001e780       ??_R4Finished@yaSSL@@6B@   004de780     yassl:yassl_imp.obj
 0002:0001e794       ??_R3Finished@yaSSL@@8     004de794     yassl:yassl_imp.obj
 0002:0001e7a4       ??_R2Finished@yaSSL@@8     004de7a4     yassl:yassl_imp.obj
 0002:0001e7b4       ??_R1A@?0A@EA@Finished@yaSSL@@8 004de7b4     yassl:yassl_imp.obj
 0002:0001e7d0       ??_R4HelloRequest@yaSSL@@6B@ 004de7d0     yassl:yassl_imp.obj
 0002:0001e7e4       ??_R3HelloRequest@yaSSL@@8 004de7e4     yassl:yassl_imp.obj
 0002:0001e7f4       ??_R2HelloRequest@yaSSL@@8 004de7f4     yassl:yassl_imp.obj
 0002:0001e804       ??_R1A@?0A@EA@HelloRequest@yaSSL@@8 004de804     yassl:yassl_imp.obj
 0002:0001e820       ??_R4RSA_Server@yaSSL@@6B@ 004de820     yassl:yassl_imp.obj
 0002:0001e834       ??_R3RSA_Server@yaSSL@@8   004de834     yassl:yassl_imp.obj
 0002:0001e844       ??_R2RSA_Server@yaSSL@@8   004de844     yassl:yassl_imp.obj
 0002:0001e854       ??_R1A@?0A@EA@RSA_Server@yaSSL@@8 004de854     yassl:yassl_imp.obj
 0002:0001e870       ??_R4Fortezza_Server@yaSSL@@6B@ 004de870     yassl:yassl_imp.obj
 0002:0001e884       ??_R3Fortezza_Server@yaSSL@@8 004de884     yassl:yassl_imp.obj
 0002:0001e894       ??_R2Fortezza_Server@yaSSL@@8 004de894     yassl:yassl_imp.obj
 0002:0001e8a4       ??_R1A@?0A@EA@Fortezza_Server@yaSSL@@8 004de8a4     yassl:yassl_imp.obj
 0002:0001e8c0       ??_R4FortezzaKeys@yaSSL@@6B@ 004de8c0     yassl:yassl_imp.obj
 0002:0001e8d4       ??_R3FortezzaKeys@yaSSL@@8 004de8d4     yassl:yassl_imp.obj
 0002:0001e8e4       ??_R2FortezzaKeys@yaSSL@@8 004de8e4     yassl:yassl_imp.obj
 0002:0001e8f4       ??_R1A@?0A@EA@FortezzaKeys@yaSSL@@8 004de8f4     yassl:yassl_imp.obj
 0002:0001e910       ??_R4EncryptedPreMasterSecret@yaSSL@@6B@ 004de910     yassl:yassl_imp.obj
 0002:0001e924       ??_R3EncryptedPreMasterSecret@yaSSL@@8 004de924     yassl:yassl_imp.obj
 0002:0001e934       ??_R2EncryptedPreMasterSecret@yaSSL@@8 004de934     yassl:yassl_imp.obj
 0002:0001e944       ??_R1A@?0A@EA@EncryptedPreMasterSecret@yaSSL@@8 004de944     yassl:yassl_imp.obj
 0002:0001e960       ??_R4DH_Server@yaSSL@@6B@  004de960     yassl:yassl_imp.obj
 0002:0001e974       ??_R3DH_Server@yaSSL@@8    004de974     yassl:yassl_imp.obj
 0002:0001e984       ??_R2DH_Server@yaSSL@@8    004de984     yassl:yassl_imp.obj
 0002:0001e994       ??_R1A@?0A@EA@DH_Server@yaSSL@@8 004de994     yassl:yassl_imp.obj
 0002:0001e9b0       ??_R4CertificateRequest@yaSSL@@6B@ 004de9b0     yassl:yassl_imp.obj
 0002:0001e9c4       ??_R3CertificateRequest@yaSSL@@8 004de9c4     yassl:yassl_imp.obj
 0002:0001e9d4       ??_R2CertificateRequest@yaSSL@@8 004de9d4     yassl:yassl_imp.obj
 0002:0001e9e4       ??_R1A@?0A@EA@CertificateRequest@yaSSL@@8 004de9e4     yassl:yassl_imp.obj
 0002:0001ea00       ??_R4type_info@@6B@        004dea00     LIBCMT:typinfo.obj
 0002:0001ea14       ??_R3type_info@@8          004dea14     LIBCMT:typinfo.obj
 0002:0001ea24       ??_R2type_info@@8          004dea24     LIBCMT:typinfo.obj
 0002:0001ea2c       ??_R1A@?0A@EA@type_info@@8 004dea2c     LIBCMT:typinfo.obj
 0002:0001ea48       ??_R4bad_alloc@std@@6B@    004dea48     LIBCMT:new.obj
 0002:0001ea5c       ??_R3bad_alloc@std@@8      004dea5c     LIBCMT:new.obj
 0002:0001ea6c       ??_R2bad_alloc@std@@8      004dea6c     LIBCMT:new.obj
 0002:0001ea78       ??_R1A@?0A@EA@bad_alloc@std@@8 004dea78     LIBCMT:new.obj
 0002:0001ea94       ??_R1A@?0A@EA@exception@std@@8 004dea94     LIBCMT:new.obj
 0002:0001eab0       ??_R3exception@std@@8      004deab0     LIBCMT:new.obj
 0002:0001eac0       ??_R2exception@std@@8      004deac0     LIBCMT:new.obj
 0002:0001eac8       ??_R4exception@std@@6B@    004deac8     LIBCMT:stdexcpt.obj
 0002:0001eadc       ??_R4bad_cast@std@@6B@     004deadc     LIBCMT:stdexcpt.obj
 0002:0001eaf0       ??_R3bad_cast@std@@8       004deaf0     LIBCMT:stdexcpt.obj
 0002:0001eb00       ??_R2bad_cast@std@@8       004deb00     LIBCMT:stdexcpt.obj
 0002:0001eb0c       ??_R1A@?0A@EA@bad_cast@std@@8 004deb0c     LIBCMT:stdexcpt.obj
 0002:0001eb28       ??_R4bad_typeid@std@@6B@   004deb28     LIBCMT:stdexcpt.obj
 0002:0001eb3c       ??_R3bad_typeid@std@@8     004deb3c     LIBCMT:stdexcpt.obj
 0002:0001eb4c       ??_R2bad_typeid@std@@8     004deb4c     LIBCMT:stdexcpt.obj
 0002:0001eb58       ??_R1A@?0A@EA@bad_typeid@std@@8 004deb58     LIBCMT:stdexcpt.obj
 0002:0001eb74       ??_R4__non_rtti_object@std@@6B@ 004deb74     LIBCMT:stdexcpt.obj
 0002:0001eb88       ??_R3__non_rtti_object@std@@8 004deb88     LIBCMT:stdexcpt.obj
 0002:0001eb98       ??_R2__non_rtti_object@std@@8 004deb98     LIBCMT:stdexcpt.obj
 0002:0001eba8       ??_R1A@?0A@EA@__non_rtti_object@std@@8 004deba8     LIBCMT:stdexcpt.obj
 0002:0001ebc4       ??_R4DNameNode@@6B@        004debc4     LIBCMT:undname.obj
 0002:0001ebd8       ??_R3DNameNode@@8          004debd8     LIBCMT:undname.obj
 0002:0001ebe8       ??_R2DNameNode@@8          004debe8     LIBCMT:undname.obj
 0002:0001ebf0       ??_R1A@?0A@EA@DNameNode@@8 004debf0     LIBCMT:undname.obj
 0002:0001ec0c       ??_R4charNode@@6B@         004dec0c     LIBCMT:undname.obj
 0002:0001ec20       ??_R3charNode@@8           004dec20     LIBCMT:undname.obj
 0002:0001ec30       ??_R2charNode@@8           004dec30     LIBCMT:undname.obj
 0002:0001ec3c       ??_R1A@?0A@EA@charNode@@8  004dec3c     LIBCMT:undname.obj
 0002:0001ec58       ??_R4pDNameNode@@6B@       004dec58     LIBCMT:undname.obj
 0002:0001ec6c       ??_R3pDNameNode@@8         004dec6c     LIBCMT:undname.obj
 0002:0001ec7c       ??_R2pDNameNode@@8         004dec7c     LIBCMT:undname.obj
 0002:0001ec88       ??_R1A@?0A@EA@pDNameNode@@8 004dec88     LIBCMT:undname.obj
 0002:0001eca4       ??_R4DNameStatusNode@@6B@  004deca4     LIBCMT:undname.obj
 0002:0001ecb8       ??_R3DNameStatusNode@@8    004decb8     LIBCMT:undname.obj
 0002:0001ecc8       ??_R2DNameStatusNode@@8    004decc8     LIBCMT:undname.obj
 0002:0001ecd4       ??_R1A@?0A@EA@DNameStatusNode@@8 004decd4     LIBCMT:undname.obj
 0002:0001ecf0       ??_R4pcharNode@@6B@        004decf0     LIBCMT:undname.obj
 0002:0001ed04       ??_R3pcharNode@@8          004ded04     LIBCMT:undname.obj
 0002:0001ed14       ??_R2pcharNode@@8          004ded14     LIBCMT:undname.obj
 0002:0001ed20       ??_R1A@?0A@EA@pcharNode@@8 004ded20     LIBCMT:undname.obj
 0002:0001ed3c       ??_R4HASH64withTransform@TaoCrypt@@6B@ 004ded3c     taocrypt:hash.obj
 0002:0001ed50       ??_R3HASH64withTransform@TaoCrypt@@8 004ded50     taocrypt:hash.obj
 0002:0001ed60       ??_R2HASH64withTransform@TaoCrypt@@8 004ded60     taocrypt:hash.obj
 0002:0001ed70       ??_R1A@?0A@EA@HASH64withTransform@TaoCrypt@@8 004ded70     taocrypt:hash.obj
 0002:0001ed8c       ??_R4HASHwithTransform@TaoCrypt@@6B@ 004ded8c     taocrypt:hash.obj
 0002:0001eda0       ??_R4MultiplicativeGroupT@AbstractRing@TaoCrypt@@6B@ 004deda0     taocrypt:integer.obj
 0002:0001edb4       ??_R3MultiplicativeGroupT@AbstractRing@TaoCrypt@@8 004dedb4     taocrypt:integer.obj
 0002:0001edc4       ??_R2MultiplicativeGroupT@AbstractRing@TaoCrypt@@8 004dedc4     taocrypt:integer.obj
 0002:0001edd4       ??_R1A@?0A@EA@MultiplicativeGroupT@AbstractRing@TaoCrypt@@8 004dedd4     taocrypt:integer.obj
 0002:0001edf0       ??_R1A@?0A@EA@AbstractGroup@TaoCrypt@@8 004dedf0     taocrypt:integer.obj
 0002:0001ee0c       ??_R3AbstractGroup@TaoCrypt@@8 004dee0c     taocrypt:integer.obj
 0002:0001ee1c       ??_R2AbstractGroup@TaoCrypt@@8 004dee1c     taocrypt:integer.obj
 0002:0001ee28       ??_R4ModularArithmetic@TaoCrypt@@6B@ 004dee28     taocrypt:integer.obj
 0002:0001ee3c       ??_R3ModularArithmetic@TaoCrypt@@8 004dee3c     taocrypt:integer.obj
 0002:0001ee4c       ??_R2ModularArithmetic@TaoCrypt@@8 004dee4c     taocrypt:integer.obj
 0002:0001ee60       ??_R1A@?0A@EA@ModularArithmetic@TaoCrypt@@8 004dee60     taocrypt:integer.obj
 0002:0001ee7c       ??_R1A@?0A@EA@AbstractRing@TaoCrypt@@8 004dee7c     taocrypt:integer.obj
 0002:0001ee98       ??_R3AbstractRing@TaoCrypt@@8 004dee98     taocrypt:integer.obj
 0002:0001eea8       ??_R2AbstractRing@TaoCrypt@@8 004deea8     taocrypt:integer.obj
 0002:0001eeb8       ??_R4MontgomeryRepresentation@TaoCrypt@@6B@ 004deeb8     taocrypt:integer.obj
 0002:0001eecc       ??_R3MontgomeryRepresentation@TaoCrypt@@8 004deecc     taocrypt:integer.obj
 0002:0001eedc       ??_R2MontgomeryRepresentation@TaoCrypt@@8 004deedc     taocrypt:integer.obj
 0002:0001eef4       ??_R1A@?0A@EA@MontgomeryRepresentation@TaoCrypt@@8 004deef4     taocrypt:integer.obj
 0002:0001ef10       ??_R4EuclideanDomainOf@TaoCrypt@@6B@ 004def10     taocrypt:integer.obj
 0002:0001ef24       ??_R3EuclideanDomainOf@TaoCrypt@@8 004def24     taocrypt:integer.obj
 0002:0001ef34       ??_R2EuclideanDomainOf@TaoCrypt@@8 004def34     taocrypt:integer.obj
 0002:0001ef4c       ??_R1A@?0A@EA@EuclideanDomainOf@TaoCrypt@@8 004def4c     taocrypt:integer.obj
 0002:0001ef68       ??_R1A@?0A@EA@AbstractEuclideanDomain@TaoCrypt@@8 004def68     taocrypt:integer.obj
 0002:0001ef84       ??_R3AbstractEuclideanDomain@TaoCrypt@@8 004def84     taocrypt:integer.obj
 0002:0001ef94       ??_R2AbstractEuclideanDomain@TaoCrypt@@8 004def94     taocrypt:integer.obj
 0002:0001efa8       ??_R4SHA256@TaoCrypt@@6B@  004defa8     taocrypt:sha.obj
 0002:0001efbc       ??_R3SHA256@TaoCrypt@@8    004defbc     taocrypt:sha.obj
 0002:0001efcc       ??_R2SHA256@TaoCrypt@@8    004defcc     taocrypt:sha.obj
 0002:0001efe0       ??_R1A@?0A@EA@SHA256@TaoCrypt@@8 004defe0     taocrypt:sha.obj
 0002:0001effc       ??_R4SHA224@TaoCrypt@@6B@  004deffc     taocrypt:sha.obj
 0002:0001f010       ??_R3SHA224@TaoCrypt@@8    004df010     taocrypt:sha.obj
 0002:0001f020       ??_R2SHA224@TaoCrypt@@8    004df020     taocrypt:sha.obj
 0002:0001f034       ??_R1A@?0A@EA@SHA224@TaoCrypt@@8 004df034     taocrypt:sha.obj
 0002:0001f050       ??_R4SHA512@TaoCrypt@@6B@  004df050     taocrypt:sha.obj
 0002:0001f064       ??_R3SHA512@TaoCrypt@@8    004df064     taocrypt:sha.obj
 0002:0001f074       ??_R2SHA512@TaoCrypt@@8    004df074     taocrypt:sha.obj
 0002:0001f088       ??_R1A@?0A@EA@SHA512@TaoCrypt@@8 004df088     taocrypt:sha.obj
 0002:0001f0a4       ??_R4SHA384@TaoCrypt@@6B@  004df0a4     taocrypt:sha.obj
 0002:0001f0b8       ??_R3SHA384@TaoCrypt@@8    004df0b8     taocrypt:sha.obj
 0002:0001f0c8       ??_R2SHA384@TaoCrypt@@8    004df0c8     taocrypt:sha.obj
 0002:0001f0dc       ??_R1A@?0A@EA@SHA384@TaoCrypt@@8 004df0dc     taocrypt:sha.obj
 0002:0001f0f8       ??_R4BER_Decoder@TaoCrypt@@6B@ 004df0f8     taocrypt:dsa.obj
 0002:0001f10c       ??_R3BER_Decoder@TaoCrypt@@8 004df10c     taocrypt:dsa.obj
 0002:0001f11c       ??_R2BER_Decoder@TaoCrypt@@8 004df11c     taocrypt:dsa.obj
 0002:0001f128       ??_R1A@?0A@EA@BER_Decoder@TaoCrypt@@8 004df128     taocrypt:dsa.obj
 0002:0001f144       ??_R4DSA_Private_Decoder@TaoCrypt@@6B@ 004df144     taocrypt:dsa.obj
 0002:0001f158       ??_R3DSA_Private_Decoder@TaoCrypt@@8 004df158     taocrypt:dsa.obj
 0002:0001f168       ??_R2DSA_Private_Decoder@TaoCrypt@@8 004df168     taocrypt:dsa.obj
 0002:0001f178       ??_R1A@?0A@EA@DSA_Private_Decoder@TaoCrypt@@8 004df178     taocrypt:dsa.obj
 0002:0001f194       ??_R4DSA_Public_Decoder@TaoCrypt@@6B@ 004df194     taocrypt:dsa.obj
 0002:0001f1a8       ??_R3DSA_Public_Decoder@TaoCrypt@@8 004df1a8     taocrypt:dsa.obj
 0002:0001f1b8       ??_R2DSA_Public_Decoder@TaoCrypt@@8 004df1b8     taocrypt:dsa.obj
 0002:0001f1c8       ??_R1A@?0A@EA@DSA_Public_Decoder@TaoCrypt@@8 004df1c8     taocrypt:dsa.obj
 0002:0001f1e4       ??_R4DH_Decoder@TaoCrypt@@6B@ 004df1e4     taocrypt:dh.obj
 0002:0001f1f8       ??_R3DH_Decoder@TaoCrypt@@8 004df1f8     taocrypt:dh.obj
 0002:0001f208       ??_R2DH_Decoder@TaoCrypt@@8 004df208     taocrypt:dh.obj
 0002:0001f218       ??_R1A@?0A@EA@DH_Decoder@TaoCrypt@@8 004df218     taocrypt:dh.obj
 0002:0001f234       ??_R4RSA_Private_Decoder@TaoCrypt@@6B@ 004df234     taocrypt:rsa.obj
 0002:0001f248       ??_R3RSA_Private_Decoder@TaoCrypt@@8 004df248     taocrypt:rsa.obj
 0002:0001f258       ??_R2RSA_Private_Decoder@TaoCrypt@@8 004df258     taocrypt:rsa.obj
 0002:0001f268       ??_R1A@?0A@EA@RSA_Private_Decoder@TaoCrypt@@8 004df268     taocrypt:rsa.obj
 0002:0001f284       ??_R4RSA_Public_Decoder@TaoCrypt@@6B@ 004df284     taocrypt:rsa.obj
 0002:0001f298       ??_R3RSA_Public_Decoder@TaoCrypt@@8 004df298     taocrypt:rsa.obj
 0002:0001f2a8       ??_R2RSA_Public_Decoder@TaoCrypt@@8 004df2a8     taocrypt:rsa.obj
 0002:0001f2b8       ??_R1A@?0A@EA@RSA_Public_Decoder@TaoCrypt@@8 004df2b8     taocrypt:rsa.obj
 0002:0001f2d4       ??_R4PKCS12_Decoder@TaoCrypt@@6B@ 004df2d4     taocrypt:asn.obj
 0002:0001f2e8       ??_R3PKCS12_Decoder@TaoCrypt@@8 004df2e8     taocrypt:asn.obj
 0002:0001f2f8       ??_R2PKCS12_Decoder@TaoCrypt@@8 004df2f8     taocrypt:asn.obj
 0002:0001f308       ??_R1A@?0A@EA@PKCS12_Decoder@TaoCrypt@@8 004df308     taocrypt:asn.obj
 0002:0001f324       ??_R4DER_Encoder@TaoCrypt@@6B@ 004df324     taocrypt:asn.obj
 0002:0001f338       ??_R3DER_Encoder@TaoCrypt@@8 004df338     taocrypt:asn.obj
 0002:0001f348       ??_R2DER_Encoder@TaoCrypt@@8 004df348     taocrypt:asn.obj
 0002:0001f354       ??_R1A@?0A@EA@DER_Encoder@TaoCrypt@@8 004df354     taocrypt:asn.obj
 0002:0001f370       ??_R4CertDecoder@TaoCrypt@@6B@ 004df370     taocrypt:asn.obj
 0002:0001f384       ??_R3CertDecoder@TaoCrypt@@8 004df384     taocrypt:asn.obj
 0002:0001f394       ??_R2CertDecoder@TaoCrypt@@8 004df394     taocrypt:asn.obj
 0002:0001f3a4       ??_R1A@?0A@EA@CertDecoder@TaoCrypt@@8 004df3a4     taocrypt:asn.obj
 0002:0001f3c0       ??_R4Signature_Encoder@TaoCrypt@@6B@ 004df3c0     taocrypt:asn.obj
 0002:0001f3d4       ??_R3Signature_Encoder@TaoCrypt@@8 004df3d4     taocrypt:asn.obj
 0002:0001f3e4       ??_R2Signature_Encoder@TaoCrypt@@8 004df3e4     taocrypt:asn.obj
 0002:0001f3f4       ??_R1A@?0A@EA@Signature_Encoder@TaoCrypt@@8 004df3f4     taocrypt:asn.obj
 0002:0001f410       ??_R4MD2@TaoCrypt@@6B@     004df410     taocrypt:md2.obj
 0002:0001f424       ??_R3MD2@TaoCrypt@@8       004df424     taocrypt:md2.obj
 0002:0001f434       ??_R2MD2@TaoCrypt@@8       004df434     taocrypt:md2.obj
 0002:0001f444       ??_R1A@?0A@EA@MD2@TaoCrypt@@8 004df444     taocrypt:md2.obj
 0002:0001fb10       ___safe_se_handler_table   004dfb10     <linker-defined>
 0002:0001fc20       ___rtc_iaa                 004dfc20     LIBCMT:initsect.obj
 0002:0001fd24       ___rtc_izz                 004dfd24     LIBCMT:initsect.obj
 0002:0001fe28       ___rtc_taa                 004dfe28     LIBCMT:initsect.obj
 0002:0001ff2c       ___rtc_tzz                 004dff2c     LIBCMT:initsect.obj
 0002:00020030       __TI2?AVbad_alloc@std@@    004e0030     LIBCMT:new.obj
 0002:00020040       __CTA2?AVbad_alloc@std@@   004e0040     LIBCMT:new.obj
 0002:0002004c       __CT??_R0?AVbad_alloc@std@@@8??0bad_alloc@std@@QAE@ABV01@@Z12 004e004c     LIBCMT:new.obj
 0002:00020068       __CT??_R0?AVexception@std@@@8??0exception@std@@QAE@ABV01@@Z12 004e0068     LIBCMT:new.obj
 0003:00000008       ??_R0?AVCommand@@@8        004e2008     command.obj
 0003:00000028       ??_R0?AVInstance_cmd@@@8   004e2028     commands.obj
 0003:00000048       ??_R0?AVAbstract_instance_cmd@@@8 004e2048     commands.obj
 0003:00000074       ??_R0?AVShow_instance_status@@@8 004e2074     commands.obj
 0003:000000a0       ??_R0?AVShow_instance_options@@@8 004e20a0     commands.obj
 0003:000000cc       ??_R0?AVStart_instance@@@8 004e20cc     commands.obj
 0003:000000f0       ??_R0?AVStop_instance@@@8  004e20f0     commands.obj
 0003:00000114       ??_R0?AVCreate_instance@@@8 004e2114     commands.obj
 0003:00000138       ??_R0?AVDrop_instance@@@8  004e2138     commands.obj
 0003:0000015c       ??_R0?AVShow_instance_log@@@8 004e215c     commands.obj
 0003:00000184       ??_R0?AVShow_instance_log_files@@@8 004e2184     commands.obj
 0003:000001b4       ??_R0?AVAbstract_option_cmd@@@8 004e21b4     commands.obj
 0003:000001e0       ??_R0?AVThread@@@8         004e21e0     guardian.obj
 0003:000001fc       ??_R0?AVGuardian@@@8       004e21fc     guardian.obj
 0003:0000021c       ??_R0?AVInstance_monitor@@@8 004e221c     instance.obj
 0003:00000270       ??_R0?AVListener@@@8       004e2270     listener.obj
 0003:00000294       ??_R0?AVThreadModelChecker@?A0xaa3af1e8@@@8 004e2294     manager.obj
 0003:000002d4       ??_R0?AVMysql_connection@@@8 004e22d4     mysql_connection.obj
 0003:00000304       ?config_file@Main@Options@@2PBDB 004e2304     options.obj
 0003:00000308       ?password_file_name@Main@Options@@2PBDB 004e2308     options.obj
 0003:0000030c       ?pid_file_name@Main@Options@@2PBDB 004e230c     options.obj
 0003:00000310       ?default_mysqld_path@Main@Options@@2PBDB 004e2310     options.obj
 0003:00000314       ?monitoring_interval@Main@Options@@2IA 004e2314     options.obj
 0003:00000318       ?port_number@Main@Options@@2IA 004e2318     options.obj
 0003:00000af8       ??_R0?AVUser_management_cmd@@@8 004e2af8     options.obj
 0003:00000b20       ??_R0?AVPrint_password_line_cmd@@@8 004e2b20     options.obj
 0003:00000b50       ??_R0?AVAdd_user_cmd@@@8   004e2b50     options.obj
 0003:00000b70       ??_R0?AVDrop_user_cmd@@@8  004e2b70     options.obj
 0003:00000b94       ??_R0?AVEdit_user_cmd@@@8  004e2b94     options.obj
 0003:00000bb8       ??_R0?AVClean_db_cmd@@@8   004e2bb8     options.obj
 0003:00000bd8       ??_R0?AVCheck_db_cmd@@@8   004e2bd8     options.obj
 0003:00000bf8       ??_R0?AVList_users_cmd@@@8 004e2bf8     options.obj
 0003:00000ccc       ??_R0?AVShow_instances@@@8 004e2ccc     parse.obj
 0003:00000cf0       ??_R0?AVFlush_instances@@@8 004e2cf0     parse.obj
 0003:00000d14       ??_R0?AVSet_option@@@8     004e2d14     parse.obj
 0003:00000d34       ??_R0?AVUnset_option@@@8   004e2d34     parse.obj
 0003:00000d54       ??_R0?AVSyntax_error@@@8   004e2d54     parse.obj
 0003:00000d78       ??_R0?AVMysqld_output_parser@?A0x1beba216@@@8 004e2d78     parse_output.obj
 0003:00000db4       ??_R0?AVMysqld_output_parser_win@?A0x1beba216@@@8 004e2db4     parse_output.obj
 0003:00000df8       ?net_buffer_length@@3KA    004e2df8     priv.obj
 0003:00000dfc       ?max_allowed_packet@@3KA   004e2dfc     priv.obj
 0003:00000e00       ?net_read_timeout@@3KA     004e2e00     priv.obj
 0003:00000e04       ?net_write_timeout@@3KA    004e2e04     priv.obj
 0003:00000e08       ?net_retry_count@@3KA      004e2e08     priv.obj
 0003:00000e0c       ?mysqld_net_retry_count@@3KA 004e2e0c     priv.obj
 0003:00000e2c       ??_R0?AVIMService@@@8      004e2e2c     IMService.obj
 0003:00000e48       ??_R0?AVWindowsService@@@8 004e2e48     IMService.obj
 0003:00000e78       _sqlstate_map              004e2e78     sql_state.obj
 0003:00001a40       _unknown_sqlstate          004e3a40     client.obj
 0003:00001a44       _not_error_sqlstate        004e3a44     client.obj
 0003:00001a48       _cant_connect_sqlstate     004e3a48     client.obj
 0003:00001a4c       _default_client_charset_info 004e3a4c     client.obj
 0003:00001aec       _sql_protocol_names_lib    004e3aec     client.obj
 0003:00001b00       _sql_protocol_typelib      004e3b00     client.obj
 0003:00001b58       _client_errors             004e3b58     errmsg.obj
 0003:00001c74       _default_charset_info      004e3c74     mysys:charset.obj
 0003:00001de4       _my_thread_end_wait_time   004e3de4     mysys:my_thr_init.obj
 0003:00001de8       _my_umask                  004e3de8     mysys:my_static.obj
 0003:00001dec       _my_umask_dir              004e3dec     mysys:my_static.obj
 0003:00001df0       _my_file_limit             004e3df0     mysys:my_static.obj
 0003:00001df4       _my_file_info              004e3df4     mysys:my_static.obj
 0003:00001df8       _my_default_record_cache_size 004e3df8     mysys:my_static.obj
 0003:00001dfc       _soundex_map               004e3dfc     mysys:my_static.obj
 0003:00001e00       _my_once_extra             004e3e00     mysys:my_static.obj
 0003:00001e04       _sf_min_adress             004e3e04     mysys:my_static.obj
 0003:00001e08       _my_time_to_wait_for_lock  004e3e08     mysys:my_static.obj
 0003:00001e0c       _my_abort_hook             004e3e0c     mysys:my_static.obj
 0003:00001e10       _error_handler_hook        004e3e10     mysys:my_static.obj
 0003:00001e14       _fatal_error_handler_hook  004e3e14     mysys:my_static.obj
 0003:00001e18       _my_thread_stack_size      004e3e18     mysys:my_init.obj
 0003:00001e1c       _my_getopt_error_reporter  004e3e1c     mysys:my_getopt.obj
 0003:00001e38       _disabled_my_option        004e3e38     mysys:my_getopt.obj
 0003:00001e3c       _my_getopt_print_errors    004e3e3c     mysys:my_getopt.obj
 0003:00001e40       _my_pthread_create_detached 004e3e40     mysys:my_pthread.obj
 0003:00001e60       _next_alarm_expire_time    004e3e60     mysys:thr_alarm.obj
 0003:00001e68       _globerrs                  004e3e68     mysys:errors.obj
 0003:00001eec       __dig_vec_upper            004e3eec     strings:int2str.obj
 0003:00001f14       __dig_vec_lower            004e3f14     strings:int2str.obj
 0003:00002368       _cs_to_uni                 004e4368     strings:ctype-latin1.obj
 0003:00002568       _pl00                      004e4568     strings:ctype-latin1.obj
 0003:00002668       _pl01                      004e4668     strings:ctype-latin1.obj
 0003:00002768       _pl02                      004e4768     strings:ctype-latin1.obj
 0003:00002868       _pl20                      004e4868     strings:ctype-latin1.obj
 0003:00002968       _pl21                      004e4968     strings:ctype-latin1.obj
 0003:00002a68       _uni_to_cs                 004e4a68     strings:ctype-latin1.obj
 0003:00002ed8       _my_charset_latin1         004e4ed8     strings:ctype-latin1.obj
 0003:00003048       _combo1map                 004e5048     strings:ctype-latin1.obj
 0003:00003148       _combo2map                 004e5148     strings:ctype-latin1.obj
 0003:00003278       _my_charset_latin1_german2_ci 004e5278     strings:ctype-latin1.obj
 0003:000032e8       _my_charset_latin1_bin     004e52e8     strings:ctype-latin1.obj
 0003:000033f8       _my_charset_8bit_handler   004e53f8     strings:ctype-simple.obj
 0003:00003464       _my_collation_8bit_simple_ci_handler 004e5464     strings:ctype-simple.obj
 0003:00003698       _my_collation_8bit_bin_handler 004e5698     strings:ctype-bin.obj
 0003:00003760       _my_charset_bin            004e5760     strings:ctype-bin.obj
 0003:000038c8       _page000data               004e58c8     strings:ctype-uca.obj
 0003:000040c8       _page001data               004e60c8     strings:ctype-uca.obj
 0003:000046c8       _page002data               004e66c8     strings:ctype-uca.obj
 0003:00004cc8       _page003data               004e6cc8     strings:ctype-uca.obj
 0003:000054c8       _page004data               004e74c8     strings:ctype-uca.obj
 0003:00005ac8       _page005data               004e7ac8     strings:ctype-uca.obj
 0003:000060c8       _page006data               004e80c8     strings:ctype-uca.obj
 0003:000066c8       _page007data               004e86c8     strings:ctype-uca.obj
 0003:00006cc8       _page009data               004e8cc8     strings:ctype-uca.obj
 0003:000072c8       _page00Adata               004e92c8     strings:ctype-uca.obj
 0003:000078c8       _page00Bdata               004e98c8     strings:ctype-uca.obj
 0003:00007ec8       _page00Cdata               004e9ec8     strings:ctype-uca.obj
 0003:000084c8       _page00Ddata               004ea4c8     strings:ctype-uca.obj
 0003:00008ac8       _page00Edata               004eaac8     strings:ctype-uca.obj
 0003:000090c8       _page00Fdata               004eb0c8     strings:ctype-uca.obj
 0003:000096c8       _page010data               004eb6c8     strings:ctype-uca.obj
 0003:00009cc8       _page011data               004ebcc8     strings:ctype-uca.obj
 0003:0000a2c8       _page012data               004ec2c8     strings:ctype-uca.obj
 0003:0000a8c8       _page013data               004ec8c8     strings:ctype-uca.obj
 0003:0000aec8       _page014data               004ecec8     strings:ctype-uca.obj
 0003:0000b4c8       _page015data               004ed4c8     strings:ctype-uca.obj
 0003:0000b8c8       _page016data               004ed8c8     strings:ctype-uca.obj
 0003:0000bec8       _page017data               004edec8     strings:ctype-uca.obj
 0003:0000c4c8       _page018data               004ee4c8     strings:ctype-uca.obj
 0003:0000cac8       _page019data               004eeac8     strings:ctype-uca.obj
 0003:0000d0c8       _page01Ddata               004ef0c8     strings:ctype-uca.obj
 0003:0000d6c8       _page01Edata               004ef6c8     strings:ctype-uca.obj
 0003:0000dcc8       _page01Fdata               004efcc8     strings:ctype-uca.obj
 0003:0000e2c8       _page020data               004f02c8     strings:ctype-uca.obj
 0003:0000ecc8       _page021data               004f0cc8     strings:ctype-uca.obj
 0003:0000f6c8       _page022data               004f16c8     strings:ctype-uca.obj
 0003:0000fec8       _page023data               004f1ec8     strings:ctype-uca.obj
 0003:000104c8       _page024data               004f24c8     strings:ctype-uca.obj
 0003:00010ec8       _page025data               004f2ec8     strings:ctype-uca.obj
 0003:000112c8       _page026data               004f32c8     strings:ctype-uca.obj
 0003:000118c8       _page027data               004f38c8     strings:ctype-uca.obj
 0003:00011ec8       _page028data               004f3ec8     strings:ctype-uca.obj
 0003:000122c8       _page029data               004f42c8     strings:ctype-uca.obj
 0003:000126c8       _page02Adata               004f46c8     strings:ctype-uca.obj
 0003:000130c8       _page02Bdata               004f50c8     strings:ctype-uca.obj
 0003:000136c8       _page02Edata               004f56c8     strings:ctype-uca.obj
 0003:00013cc8       _page02Fdata               004f5cc8     strings:ctype-uca.obj
 0003:000142c8       _page030data               004f62c8     strings:ctype-uca.obj
 0003:000148c8       _page031data               004f68c8     strings:ctype-uca.obj
 0003:00014ec8       _page032data               004f6ec8     strings:ctype-uca.obj
 0003:00015ec8       _page033data               004f7ec8     strings:ctype-uca.obj
 0003:000170c8       _page04Ddata               004f90c8     strings:ctype-uca.obj
 0003:000176c8       _page0A0data               004f96c8     strings:ctype-uca.obj
 0003:00017ac8       _page0A1data               004f9ac8     strings:ctype-uca.obj
 0003:00017ec8       _page0A2data               004f9ec8     strings:ctype-uca.obj
 0003:000182c8       _page0A3data               004fa2c8     strings:ctype-uca.obj
 0003:000186c8       _page0A4data               004fa6c8     strings:ctype-uca.obj
 0003:00018cc8       _page0F9data               004facc8     strings:ctype-uca.obj
 0003:000192c8       _page0FAdata               004fb2c8     strings:ctype-uca.obj
 0003:000198c8       _page0FBdata               004fb8c8     strings:ctype-uca.obj
 0003:0001a0c8       _page0FCdata               004fc0c8     strings:ctype-uca.obj
 0003:0001a6c8       _page0FDdata               004fc6c8     strings:ctype-uca.obj
 0003:0001b8c8       _page0FEdata               004fd8c8     strings:ctype-uca.obj
 0003:0001bec8       _page0FFdata               004fdec8     strings:ctype-uca.obj
 0003:0001c4c8       _uca_length                004fe4c8     strings:ctype-uca.obj
 0003:0001c5c8       _uca_weight                004fe5c8     strings:ctype-uca.obj
 0003:0001c9d8       _my_collation_ucs2_uca_handler 004fe9d8     strings:ctype-uca.obj
 0003:0001ca04       _my_collation_any_uca_handler 004fea04     strings:ctype-uca.obj
 0003:0001ca30       _my_charset_ucs2_unicode_ci 004fea30     strings:ctype-uca.obj
 0003:0001caa0       _my_charset_ucs2_icelandic_uca_ci 004feaa0     strings:ctype-uca.obj
 0003:0001cb10       _my_charset_ucs2_latvian_uca_ci 004feb10     strings:ctype-uca.obj
 0003:0001cb80       _my_charset_ucs2_romanian_uca_ci 004feb80     strings:ctype-uca.obj
 0003:0001cbf0       _my_charset_ucs2_slovenian_uca_ci 004febf0     strings:ctype-uca.obj
 0003:0001cc60       _my_charset_ucs2_polish_uca_ci 004fec60     strings:ctype-uca.obj
 0003:0001ccd0       _my_charset_ucs2_estonian_uca_ci 004fecd0     strings:ctype-uca.obj
 0003:0001cd40       _my_charset_ucs2_spanish_uca_ci 004fed40     strings:ctype-uca.obj
 0003:0001cdb0       _my_charset_ucs2_swedish_uca_ci 004fedb0     strings:ctype-uca.obj
 0003:0001ce20       _my_charset_ucs2_turkish_uca_ci 004fee20     strings:ctype-uca.obj
 0003:0001ce90       _my_charset_ucs2_czech_uca_ci 004fee90     strings:ctype-uca.obj
 0003:0001cf00       _my_charset_ucs2_danish_uca_ci 004fef00     strings:ctype-uca.obj
 0003:0001cf70       _my_charset_ucs2_lithuanian_uca_ci 004fef70     strings:ctype-uca.obj
 0003:0001cfe0       _my_charset_ucs2_slovak_uca_ci 004fefe0     strings:ctype-uca.obj
 0003:0001d050       _my_charset_ucs2_spanish2_uca_ci 004ff050     strings:ctype-uca.obj
 0003:0001d0c0       _my_charset_ucs2_roman_uca_ci 004ff0c0     strings:ctype-uca.obj
 0003:0001d130       _my_charset_ucs2_persian_uca_ci 004ff130     strings:ctype-uca.obj
 0003:0001d1a0       _my_charset_ucs2_esperanto_uca_ci 004ff1a0     strings:ctype-uca.obj
 0003:0001d210       _my_charset_ucs2_hungarian_uca_ci 004ff210     strings:ctype-uca.obj
 0003:0001d388       _my_charset_utf8_unicode_ci 004ff388     strings:ctype-uca.obj
 0003:0001d3f8       _my_charset_utf8_icelandic_uca_ci 004ff3f8     strings:ctype-uca.obj
 0003:0001d468       _my_charset_utf8_latvian_uca_ci 004ff468     strings:ctype-uca.obj
 0003:0001d4d8       _my_charset_utf8_romanian_uca_ci 004ff4d8     strings:ctype-uca.obj
 0003:0001d548       _my_charset_utf8_slovenian_uca_ci 004ff548     strings:ctype-uca.obj
 0003:0001d5b8       _my_charset_utf8_polish_uca_ci 004ff5b8     strings:ctype-uca.obj
 0003:0001d628       _my_charset_utf8_estonian_uca_ci 004ff628     strings:ctype-uca.obj
 0003:0001d698       _my_charset_utf8_spanish_uca_ci 004ff698     strings:ctype-uca.obj
 0003:0001d708       _my_charset_utf8_swedish_uca_ci 004ff708     strings:ctype-uca.obj
 0003:0001d778       _my_charset_utf8_turkish_uca_ci 004ff778     strings:ctype-uca.obj
 0003:0001d7e8       _my_charset_utf8_czech_uca_ci 004ff7e8     strings:ctype-uca.obj
 0003:0001d858       _my_charset_utf8_danish_uca_ci 004ff858     strings:ctype-uca.obj
 0003:0001d8c8       _my_charset_utf8_lithuanian_uca_ci 004ff8c8     strings:ctype-uca.obj
 0003:0001d938       _my_charset_utf8_slovak_uca_ci 004ff938     strings:ctype-uca.obj
 0003:0001d9a8       _my_charset_utf8_spanish2_uca_ci 004ff9a8     strings:ctype-uca.obj
 0003:0001da18       _my_charset_utf8_roman_uca_ci 004ffa18     strings:ctype-uca.obj
 0003:0001da88       _my_charset_utf8_persian_uca_ci 004ffa88     strings:ctype-uca.obj
 0003:0001daf8       _my_charset_utf8_esperanto_uca_ci 004ffaf8     strings:ctype-uca.obj
 0003:0001db68       _my_charset_utf8_hungarian_uca_ci 004ffb68     strings:ctype-uca.obj
 0003:00030f08       _my_charset_cp932_japanese_ci 00512f08     strings:ctype-cp932.obj
 0003:00030f78       _my_charset_cp932_bin      00512f78     strings:ctype-cp932.obj
 0003:00030fe8       _ctype_dec8_swedish_ci     00512fe8     strings:ctype-extra.obj
 0003:000310f0       _to_lower_dec8_swedish_ci  005130f0     strings:ctype-extra.obj
 0003:000311f0       _to_upper_dec8_swedish_ci  005131f0     strings:ctype-extra.obj
 0003:000312f0       _sort_order_dec8_swedish_ci 005132f0     strings:ctype-extra.obj
 0003:000313f0       _to_uni_dec8_swedish_ci    005133f0     strings:ctype-extra.obj
 0003:000315f0       _ctype_cp850_general_ci    005135f0     strings:ctype-extra.obj
 0003:000316f8       _to_lower_cp850_general_ci 005136f8     strings:ctype-extra.obj
 0003:000317f8       _to_upper_cp850_general_ci 005137f8     strings:ctype-extra.obj
 0003:000318f8       _sort_order_cp850_general_ci 005138f8     strings:ctype-extra.obj
 0003:000319f8       _to_uni_cp850_general_ci   005139f8     strings:ctype-extra.obj
 0003:00031bf8       _ctype_latin1_german1_ci   00513bf8     strings:ctype-extra.obj
 0003:00031d00       _to_lower_latin1_german1_ci 00513d00     strings:ctype-extra.obj
 0003:00031e00       _to_upper_latin1_german1_ci 00513e00     strings:ctype-extra.obj
 0003:00031f00       _sort_order_latin1_german1_ci 00513f00     strings:ctype-extra.obj
 0003:00032000       _to_uni_latin1_german1_ci  00514000     strings:ctype-extra.obj
 0003:00032200       _ctype_hp8_english_ci      00514200     strings:ctype-extra.obj
 0003:00032308       _to_lower_hp8_english_ci   00514308     strings:ctype-extra.obj
 0003:00032408       _to_upper_hp8_english_ci   00514408     strings:ctype-extra.obj
 0003:00032508       _sort_order_hp8_english_ci 00514508     strings:ctype-extra.obj
 0003:00032608       _to_uni_hp8_english_ci     00514608     strings:ctype-extra.obj
 0003:00032808       _ctype_koi8r_general_ci    00514808     strings:ctype-extra.obj
 0003:00032910       _to_lower_koi8r_general_ci 00514910     strings:ctype-extra.obj
 0003:00032a10       _to_upper_koi8r_general_ci 00514a10     strings:ctype-extra.obj
 0003:00032b10       _sort_order_koi8r_general_ci 00514b10     strings:ctype-extra.obj
 0003:00032c10       _to_uni_koi8r_general_ci   00514c10     strings:ctype-extra.obj
 0003:00032e10       _ctype_latin2_general_ci   00514e10     strings:ctype-extra.obj
 0003:00032f18       _to_lower_latin2_general_ci 00514f18     strings:ctype-extra.obj
 0003:00033018       _to_upper_latin2_general_ci 00515018     strings:ctype-extra.obj
 0003:00033118       _sort_order_latin2_general_ci 00515118     strings:ctype-extra.obj
 0003:00033218       _to_uni_latin2_general_ci  00515218     strings:ctype-extra.obj
 0003:00033418       _ctype_swe7_swedish_ci     00515418     strings:ctype-extra.obj
 0003:00033520       _to_lower_swe7_swedish_ci  00515520     strings:ctype-extra.obj
 0003:00033620       _to_upper_swe7_swedish_ci  00515620     strings:ctype-extra.obj
 0003:00033720       _sort_order_swe7_swedish_ci 00515720     strings:ctype-extra.obj
 0003:00033820       _to_uni_swe7_swedish_ci    00515820     strings:ctype-extra.obj
 0003:00033a20       _ctype_ascii_general_ci    00515a20     strings:ctype-extra.obj
 0003:00033b28       _to_lower_ascii_general_ci 00515b28     strings:ctype-extra.obj
 0003:00033c28       _to_upper_ascii_general_ci 00515c28     strings:ctype-extra.obj
 0003:00033d28       _sort_order_ascii_general_ci 00515d28     strings:ctype-extra.obj
 0003:00033e28       _to_uni_ascii_general_ci   00515e28     strings:ctype-extra.obj
 0003:00034028       _ctype_cp1251_bulgarian_ci 00516028     strings:ctype-extra.obj
 0003:00034130       _to_lower_cp1251_bulgarian_ci 00516130     strings:ctype-extra.obj
 0003:00034230       _to_upper_cp1251_bulgarian_ci 00516230     strings:ctype-extra.obj
 0003:00034330       _sort_order_cp1251_bulgarian_ci 00516330     strings:ctype-extra.obj
 0003:00034430       _to_uni_cp1251_bulgarian_ci 00516430     strings:ctype-extra.obj
 0003:00034630       _ctype_latin1_danish_ci    00516630     strings:ctype-extra.obj
 0003:00034738       _to_lower_latin1_danish_ci 00516738     strings:ctype-extra.obj
 0003:00034838       _to_upper_latin1_danish_ci 00516838     strings:ctype-extra.obj
 0003:00034938       _sort_order_latin1_danish_ci 00516938     strings:ctype-extra.obj
 0003:00034a38       _to_uni_latin1_danish_ci   00516a38     strings:ctype-extra.obj
 0003:00034c38       _ctype_hebrew_general_ci   00516c38     strings:ctype-extra.obj
 0003:00034d40       _to_lower_hebrew_general_ci 00516d40     strings:ctype-extra.obj
 0003:00034e40       _to_upper_hebrew_general_ci 00516e40     strings:ctype-extra.obj
 0003:00034f40       _sort_order_hebrew_general_ci 00516f40     strings:ctype-extra.obj
 0003:00035040       _to_uni_hebrew_general_ci  00517040     strings:ctype-extra.obj
 0003:00035240       _ctype_latin7_estonian_cs  00517240     strings:ctype-extra.obj
 0003:00035348       _to_lower_latin7_estonian_cs 00517348     strings:ctype-extra.obj
 0003:00035448       _to_upper_latin7_estonian_cs 00517448     strings:ctype-extra.obj
 0003:00035548       _sort_order_latin7_estonian_cs 00517548     strings:ctype-extra.obj
 0003:00035648       _to_uni_latin7_estonian_cs 00517648     strings:ctype-extra.obj
 0003:00035848       _ctype_latin2_hungarian_ci 00517848     strings:ctype-extra.obj
 0003:00035950       _to_lower_latin2_hungarian_ci 00517950     strings:ctype-extra.obj
 0003:00035a50       _to_upper_latin2_hungarian_ci 00517a50     strings:ctype-extra.obj
 0003:00035b50       _sort_order_latin2_hungarian_ci 00517b50     strings:ctype-extra.obj
 0003:00035c50       _to_uni_latin2_hungarian_ci 00517c50     strings:ctype-extra.obj
 0003:00035e50       _ctype_koi8u_general_ci    00517e50     strings:ctype-extra.obj
 0003:00035f58       _to_lower_koi8u_general_ci 00517f58     strings:ctype-extra.obj
 0003:00036058       _to_upper_koi8u_general_ci 00518058     strings:ctype-extra.obj
 0003:00036158       _sort_order_koi8u_general_ci 00518158     strings:ctype-extra.obj
 0003:00036258       _to_uni_koi8u_general_ci   00518258     strings:ctype-extra.obj
 0003:00036458       _ctype_cp1251_ukrainian_ci 00518458     strings:ctype-extra.obj
 0003:00036560       _to_lower_cp1251_ukrainian_ci 00518560     strings:ctype-extra.obj
 0003:00036660       _to_upper_cp1251_ukrainian_ci 00518660     strings:ctype-extra.obj
 0003:00036760       _sort_order_cp1251_ukrainian_ci 00518760     strings:ctype-extra.obj
 0003:00036860       _to_uni_cp1251_ukrainian_ci 00518860     strings:ctype-extra.obj
 0003:00036a60       _ctype_greek_general_ci    00518a60     strings:ctype-extra.obj
 0003:00036b68       _to_lower_greek_general_ci 00518b68     strings:ctype-extra.obj
 0003:00036c68       _to_upper_greek_general_ci 00518c68     strings:ctype-extra.obj
 0003:00036d68       _sort_order_greek_general_ci 00518d68     strings:ctype-extra.obj
 0003:00036e68       _to_uni_greek_general_ci   00518e68     strings:ctype-extra.obj
 0003:00037068       _ctype_cp1250_general_ci   00519068     strings:ctype-extra.obj
 0003:00037170       _to_lower_cp1250_general_ci 00519170     strings:ctype-extra.obj
 0003:00037270       _to_upper_cp1250_general_ci 00519270     strings:ctype-extra.obj
 0003:00037370       _sort_order_cp1250_general_ci 00519370     strings:ctype-extra.obj
 0003:00037470       _to_uni_cp1250_general_ci  00519470     strings:ctype-extra.obj
 0003:00037670       _ctype_latin2_croatian_ci  00519670     strings:ctype-extra.obj
 0003:00037778       _to_lower_latin2_croatian_ci 00519778     strings:ctype-extra.obj
 0003:00037878       _to_upper_latin2_croatian_ci 00519878     strings:ctype-extra.obj
 0003:00037978       _sort_order_latin2_croatian_ci 00519978     strings:ctype-extra.obj
 0003:00037a78       _to_uni_latin2_croatian_ci 00519a78     strings:ctype-extra.obj
 0003:00037c78       _ctype_cp1257_lithuanian_ci 00519c78     strings:ctype-extra.obj
 0003:00037d80       _to_lower_cp1257_lithuanian_ci 00519d80     strings:ctype-extra.obj
 0003:00037e80       _to_upper_cp1257_lithuanian_ci 00519e80     strings:ctype-extra.obj
 0003:00037f80       _sort_order_cp1257_lithuanian_ci 00519f80     strings:ctype-extra.obj
 0003:00038080       _to_uni_cp1257_lithuanian_ci 0051a080     strings:ctype-extra.obj
 0003:00038280       _ctype_latin5_turkish_ci   0051a280     strings:ctype-extra.obj
 0003:00038388       _to_lower_latin5_turkish_ci 0051a388     strings:ctype-extra.obj
 0003:00038488       _to_upper_latin5_turkish_ci 0051a488     strings:ctype-extra.obj
 0003:00038588       _sort_order_latin5_turkish_ci 0051a588     strings:ctype-extra.obj
 0003:00038688       _to_uni_latin5_turkish_ci  0051a688     strings:ctype-extra.obj
 0003:00038888       _ctype_armscii8_general_ci 0051a888     strings:ctype-extra.obj
 0003:00038990       _to_lower_armscii8_general_ci 0051a990     strings:ctype-extra.obj
 0003:00038a90       _to_upper_armscii8_general_ci 0051aa90     strings:ctype-extra.obj
 0003:00038b90       _sort_order_armscii8_general_ci 0051ab90     strings:ctype-extra.obj
 0003:00038c90       _to_uni_armscii8_general_ci 0051ac90     strings:ctype-extra.obj
 0003:00038e90       _ctype_cp866_general_ci    0051ae90     strings:ctype-extra.obj
 0003:00038f98       _to_lower_cp866_general_ci 0051af98     strings:ctype-extra.obj
 0003:00039098       _to_upper_cp866_general_ci 0051b098     strings:ctype-extra.obj
 0003:00039198       _sort_order_cp866_general_ci 0051b198     strings:ctype-extra.obj
 0003:00039298       _to_uni_cp866_general_ci   0051b298     strings:ctype-extra.obj
 0003:00039498       _ctype_keybcs2_general_ci  0051b498     strings:ctype-extra.obj
 0003:000395a0       _to_lower_keybcs2_general_ci 0051b5a0     strings:ctype-extra.obj
 0003:000396a0       _to_upper_keybcs2_general_ci 0051b6a0     strings:ctype-extra.obj
 0003:000397a0       _sort_order_keybcs2_general_ci 0051b7a0     strings:ctype-extra.obj
 0003:000398a0       _to_uni_keybcs2_general_ci 0051b8a0     strings:ctype-extra.obj
 0003:00039aa0       _ctype_macce_general_ci    0051baa0     strings:ctype-extra.obj
 0003:00039ba8       _to_lower_macce_general_ci 0051bba8     strings:ctype-extra.obj
 0003:00039ca8       _to_upper_macce_general_ci 0051bca8     strings:ctype-extra.obj
 0003:00039da8       _sort_order_macce_general_ci 0051bda8     strings:ctype-extra.obj
 0003:00039ea8       _to_uni_macce_general_ci   0051bea8     strings:ctype-extra.obj
 0003:0003a0a8       _ctype_macroman_general_ci 0051c0a8     strings:ctype-extra.obj
 0003:0003a1b0       _to_lower_macroman_general_ci 0051c1b0     strings:ctype-extra.obj
 0003:0003a2b0       _to_upper_macroman_general_ci 0051c2b0     strings:ctype-extra.obj
 0003:0003a3b0       _sort_order_macroman_general_ci 0051c3b0     strings:ctype-extra.obj
 0003:0003a4b0       _to_uni_macroman_general_ci 0051c4b0     strings:ctype-extra.obj
 0003:0003a6b0       _ctype_cp852_general_ci    0051c6b0     strings:ctype-extra.obj
 0003:0003a7b8       _to_lower_cp852_general_ci 0051c7b8     strings:ctype-extra.obj
 0003:0003a8b8       _to_upper_cp852_general_ci 0051c8b8     strings:ctype-extra.obj
 0003:0003a9b8       _sort_order_cp852_general_ci 0051c9b8     strings:ctype-extra.obj
 0003:0003aab8       _to_uni_cp852_general_ci   0051cab8     strings:ctype-extra.obj
 0003:0003acb8       _ctype_latin7_general_ci   0051ccb8     strings:ctype-extra.obj
 0003:0003adc0       _to_lower_latin7_general_ci 0051cdc0     strings:ctype-extra.obj
 0003:0003aec0       _to_upper_latin7_general_ci 0051cec0     strings:ctype-extra.obj
 0003:0003afc0       _sort_order_latin7_general_ci 0051cfc0     strings:ctype-extra.obj
 0003:0003b0c0       _to_uni_latin7_general_ci  0051d0c0     strings:ctype-extra.obj
 0003:0003b2c0       _ctype_latin7_general_cs   0051d2c0     strings:ctype-extra.obj
 0003:0003b3c8       _to_lower_latin7_general_cs 0051d3c8     strings:ctype-extra.obj
 0003:0003b4c8       _to_upper_latin7_general_cs 0051d4c8     strings:ctype-extra.obj
 0003:0003b5c8       _sort_order_latin7_general_cs 0051d5c8     strings:ctype-extra.obj
 0003:0003b6c8       _to_uni_latin7_general_cs  0051d6c8     strings:ctype-extra.obj
 0003:0003b8c8       _ctype_macce_bin           0051d8c8     strings:ctype-extra.obj
 0003:0003b9d0       _to_lower_macce_bin        0051d9d0     strings:ctype-extra.obj
 0003:0003bad0       _to_upper_macce_bin        0051dad0     strings:ctype-extra.obj
 0003:0003bbd0       _to_uni_macce_bin          0051dbd0     strings:ctype-extra.obj
 0003:0003bdd0       _ctype_cp1250_croatian_ci  0051ddd0     strings:ctype-extra.obj
 0003:0003bed8       _to_lower_cp1250_croatian_ci 0051ded8     strings:ctype-extra.obj
 0003:0003bfd8       _to_upper_cp1250_croatian_ci 0051dfd8     strings:ctype-extra.obj
 0003:0003c0d8       _sort_order_cp1250_croatian_ci 0051e0d8     strings:ctype-extra.obj
 0003:0003c1d8       _to_uni_cp1250_croatian_ci 0051e1d8     strings:ctype-extra.obj
 0003:0003c3d8       _ctype_latin1_general_ci   0051e3d8     strings:ctype-extra.obj
 0003:0003c4e0       _to_lower_latin1_general_ci 0051e4e0     strings:ctype-extra.obj
 0003:0003c5e0       _to_upper_latin1_general_ci 0051e5e0     strings:ctype-extra.obj
 0003:0003c6e0       _sort_order_latin1_general_ci 0051e6e0     strings:ctype-extra.obj
 0003:0003c7e0       _to_uni_latin1_general_ci  0051e7e0     strings:ctype-extra.obj
 0003:0003c9e0       _ctype_latin1_general_cs   0051e9e0     strings:ctype-extra.obj
 0003:0003cae8       _to_lower_latin1_general_cs 0051eae8     strings:ctype-extra.obj
 0003:0003cbe8       _to_upper_latin1_general_cs 0051ebe8     strings:ctype-extra.obj
 0003:0003cce8       _sort_order_latin1_general_cs 0051ece8     strings:ctype-extra.obj
 0003:0003cde8       _to_uni_latin1_general_cs  0051ede8     strings:ctype-extra.obj
 0003:0003cfe8       _ctype_cp1251_bin          0051efe8     strings:ctype-extra.obj
 0003:0003d0f0       _to_lower_cp1251_bin       0051f0f0     strings:ctype-extra.obj
 0003:0003d1f0       _to_upper_cp1251_bin       0051f1f0     strings:ctype-extra.obj
 0003:0003d2f0       _to_uni_cp1251_bin         0051f2f0     strings:ctype-extra.obj
 0003:0003d4f0       _ctype_cp1251_general_ci   0051f4f0     strings:ctype-extra.obj
 0003:0003d5f8       _to_lower_cp1251_general_ci 0051f5f8     strings:ctype-extra.obj
 0003:0003d6f8       _to_upper_cp1251_general_ci 0051f6f8     strings:ctype-extra.obj
 0003:0003d7f8       _sort_order_cp1251_general_ci 0051f7f8     strings:ctype-extra.obj
 0003:0003d8f8       _to_uni_cp1251_general_ci  0051f8f8     strings:ctype-extra.obj
 0003:0003daf8       _ctype_cp1251_general_cs   0051faf8     strings:ctype-extra.obj
 0003:0003dc00       _to_lower_cp1251_general_cs 0051fc00     strings:ctype-extra.obj
 0003:0003dd00       _to_upper_cp1251_general_cs 0051fd00     strings:ctype-extra.obj
 0003:0003de00       _sort_order_cp1251_general_cs 0051fe00     strings:ctype-extra.obj
 0003:0003df00       _to_uni_cp1251_general_cs  0051ff00     strings:ctype-extra.obj
 0003:0003e100       _ctype_macroman_bin        00520100     strings:ctype-extra.obj
 0003:0003e208       _to_lower_macroman_bin     00520208     strings:ctype-extra.obj
 0003:0003e308       _to_upper_macroman_bin     00520308     strings:ctype-extra.obj
 0003:0003e408       _to_uni_macroman_bin       00520408     strings:ctype-extra.obj
 0003:0003e608       _ctype_cp1256_general_ci   00520608     strings:ctype-extra.obj
 0003:0003e710       _to_lower_cp1256_general_ci 00520710     strings:ctype-extra.obj
 0003:0003e810       _to_upper_cp1256_general_ci 00520810     strings:ctype-extra.obj
 0003:0003e910       _sort_order_cp1256_general_ci 00520910     strings:ctype-extra.obj
 0003:0003ea10       _to_uni_cp1256_general_ci  00520a10     strings:ctype-extra.obj
 0003:0003ec10       _ctype_cp1257_bin          00520c10     strings:ctype-extra.obj
 0003:0003ed18       _to_lower_cp1257_bin       00520d18     strings:ctype-extra.obj
 0003:0003ee18       _to_upper_cp1257_bin       00520e18     strings:ctype-extra.obj
 0003:0003ef18       _to_uni_cp1257_bin         00520f18     strings:ctype-extra.obj
 0003:0003f118       _ctype_cp1257_general_ci   00521118     strings:ctype-extra.obj
 0003:0003f220       _to_lower_cp1257_general_ci 00521220     strings:ctype-extra.obj
 0003:0003f320       _to_upper_cp1257_general_ci 00521320     strings:ctype-extra.obj
 0003:0003f420       _sort_order_cp1257_general_ci 00521420     strings:ctype-extra.obj
 0003:0003f520       _to_uni_cp1257_general_ci  00521520     strings:ctype-extra.obj
 0003:0003f720       _ctype_armscii8_bin        00521720     strings:ctype-extra.obj
 0003:0003f828       _to_lower_armscii8_bin     00521828     strings:ctype-extra.obj
 0003:0003f928       _to_upper_armscii8_bin     00521928     strings:ctype-extra.obj
 0003:0003fa28       _to_uni_armscii8_bin       00521a28     strings:ctype-extra.obj
 0003:0003fc28       _ctype_ascii_bin           00521c28     strings:ctype-extra.obj
 0003:0003fd30       _to_lower_ascii_bin        00521d30     strings:ctype-extra.obj
 0003:0003fe30       _to_upper_ascii_bin        00521e30     strings:ctype-extra.obj
 0003:0003ff30       _to_uni_ascii_bin          00521f30     strings:ctype-extra.obj
 0003:00040130       _ctype_cp1250_bin          00522130     strings:ctype-extra.obj
 0003:00040238       _to_lower_cp1250_bin       00522238     strings:ctype-extra.obj
 0003:00040338       _to_upper_cp1250_bin       00522338     strings:ctype-extra.obj
 0003:00040438       _to_uni_cp1250_bin         00522438     strings:ctype-extra.obj
 0003:00040638       _ctype_cp1256_bin          00522638     strings:ctype-extra.obj
 0003:00040740       _to_lower_cp1256_bin       00522740     strings:ctype-extra.obj
 0003:00040840       _to_upper_cp1256_bin       00522840     strings:ctype-extra.obj
 0003:00040940       _to_uni_cp1256_bin         00522940     strings:ctype-extra.obj
 0003:00040b40       _ctype_cp866_bin           00522b40     strings:ctype-extra.obj
 0003:00040c48       _to_lower_cp866_bin        00522c48     strings:ctype-extra.obj
 0003:00040d48       _to_upper_cp866_bin        00522d48     strings:ctype-extra.obj
 0003:00040e48       _to_uni_cp866_bin          00522e48     strings:ctype-extra.obj
 0003:00041048       _ctype_dec8_bin            00523048     strings:ctype-extra.obj
 0003:00041150       _to_lower_dec8_bin         00523150     strings:ctype-extra.obj
 0003:00041250       _to_upper_dec8_bin         00523250     strings:ctype-extra.obj
 0003:00041350       _to_uni_dec8_bin           00523350     strings:ctype-extra.obj
 0003:00041550       _ctype_greek_bin           00523550     strings:ctype-extra.obj
 0003:00041658       _to_lower_greek_bin        00523658     strings:ctype-extra.obj
 0003:00041758       _to_upper_greek_bin        00523758     strings:ctype-extra.obj
 0003:00041858       _to_uni_greek_bin          00523858     strings:ctype-extra.obj
 0003:00041a58       _ctype_hebrew_bin          00523a58     strings:ctype-extra.obj
 0003:00041b60       _to_lower_hebrew_bin       00523b60     strings:ctype-extra.obj
 0003:00041c60       _to_upper_hebrew_bin       00523c60     strings:ctype-extra.obj
 0003:00041d60       _to_uni_hebrew_bin         00523d60     strings:ctype-extra.obj
 0003:00041f60       _ctype_hp8_bin             00523f60     strings:ctype-extra.obj
 0003:00042068       _to_lower_hp8_bin          00524068     strings:ctype-extra.obj
 0003:00042168       _to_upper_hp8_bin          00524168     strings:ctype-extra.obj
 0003:00042268       _to_uni_hp8_bin            00524268     strings:ctype-extra.obj
 0003:00042468       _ctype_keybcs2_bin         00524468     strings:ctype-extra.obj
 0003:00042570       _to_lower_keybcs2_bin      00524570     strings:ctype-extra.obj
 0003:00042670       _to_upper_keybcs2_bin      00524670     strings:ctype-extra.obj
 0003:00042770       _to_uni_keybcs2_bin        00524770     strings:ctype-extra.obj
 0003:00042970       _ctype_koi8r_bin           00524970     strings:ctype-extra.obj
 0003:00042a78       _to_lower_koi8r_bin        00524a78     strings:ctype-extra.obj
 0003:00042b78       _to_upper_koi8r_bin        00524b78     strings:ctype-extra.obj
 0003:00042c78       _to_uni_koi8r_bin          00524c78     strings:ctype-extra.obj
 0003:00042e78       _ctype_koi8u_bin           00524e78     strings:ctype-extra.obj
 0003:00042f80       _to_lower_koi8u_bin        00524f80     strings:ctype-extra.obj
 0003:00043080       _to_upper_koi8u_bin        00525080     strings:ctype-extra.obj
 0003:00043180       _to_uni_koi8u_bin          00525180     strings:ctype-extra.obj
 0003:00043380       _ctype_latin2_bin          00525380     strings:ctype-extra.obj
 0003:00043488       _to_lower_latin2_bin       00525488     strings:ctype-extra.obj
 0003:00043588       _to_upper_latin2_bin       00525588     strings:ctype-extra.obj
 0003:00043688       _to_uni_latin2_bin         00525688     strings:ctype-extra.obj
 0003:00043888       _ctype_latin5_bin          00525888     strings:ctype-extra.obj
 0003:00043990       _to_lower_latin5_bin       00525990     strings:ctype-extra.obj
 0003:00043a90       _to_upper_latin5_bin       00525a90     strings:ctype-extra.obj
 0003:00043b90       _to_uni_latin5_bin         00525b90     strings:ctype-extra.obj
 0003:00043d90       _ctype_latin7_bin          00525d90     strings:ctype-extra.obj
 0003:00043e98       _to_lower_latin7_bin       00525e98     strings:ctype-extra.obj
 0003:00043f98       _to_upper_latin7_bin       00525f98     strings:ctype-extra.obj
 0003:00044098       _to_uni_latin7_bin         00526098     strings:ctype-extra.obj
 0003:00044298       _ctype_cp850_bin           00526298     strings:ctype-extra.obj
 0003:000443a0       _to_lower_cp850_bin        005263a0     strings:ctype-extra.obj
 0003:000444a0       _to_upper_cp850_bin        005264a0     strings:ctype-extra.obj
 0003:000445a0       _to_uni_cp850_bin          005265a0     strings:ctype-extra.obj
 0003:000447a0       _ctype_cp852_bin           005267a0     strings:ctype-extra.obj
 0003:000448a8       _to_lower_cp852_bin        005268a8     strings:ctype-extra.obj
 0003:000449a8       _to_upper_cp852_bin        005269a8     strings:ctype-extra.obj
 0003:00044aa8       _to_uni_cp852_bin          00526aa8     strings:ctype-extra.obj
 0003:00044ca8       _ctype_swe7_bin            00526ca8     strings:ctype-extra.obj
 0003:00044db0       _to_lower_swe7_bin         00526db0     strings:ctype-extra.obj
 0003:00044eb0       _to_upper_swe7_bin         00526eb0     strings:ctype-extra.obj
 0003:00044fb0       _to_uni_swe7_bin           00526fb0     strings:ctype-extra.obj
 0003:000451b0       _ctype_geostd8_general_ci  005271b0     strings:ctype-extra.obj
 0003:000452b8       _to_lower_geostd8_general_ci 005272b8     strings:ctype-extra.obj
 0003:000453b8       _to_upper_geostd8_general_ci 005273b8     strings:ctype-extra.obj
 0003:000454b8       _sort_order_geostd8_general_ci 005274b8     strings:ctype-extra.obj
 0003:000455b8       _to_uni_geostd8_general_ci 005275b8     strings:ctype-extra.obj
 0003:000457b8       _ctype_geostd8_bin         005277b8     strings:ctype-extra.obj
 0003:000458c0       _to_lower_geostd8_bin      005278c0     strings:ctype-extra.obj
 0003:000459c0       _to_upper_geostd8_bin      005279c0     strings:ctype-extra.obj
 0003:00045ac0       _to_uni_geostd8_bin        00527ac0     strings:ctype-extra.obj
 0003:00045cc0       _ctype_latin1_spanish_ci   00527cc0     strings:ctype-extra.obj
 0003:00045dc8       _to_lower_latin1_spanish_ci 00527dc8     strings:ctype-extra.obj
 0003:00045ec8       _to_upper_latin1_spanish_ci 00527ec8     strings:ctype-extra.obj
 0003:00045fc8       _sort_order_latin1_spanish_ci 00527fc8     strings:ctype-extra.obj
 0003:000460c8       _to_uni_latin1_spanish_ci  005280c8     strings:ctype-extra.obj
 0003:000462c8       _ctype_cp1250_polish_ci    005282c8     strings:ctype-extra.obj
 0003:000463d0       _to_lower_cp1250_polish_ci 005283d0     strings:ctype-extra.obj
 0003:000464d0       _to_upper_cp1250_polish_ci 005284d0     strings:ctype-extra.obj
 0003:000465d0       _sort_order_cp1250_polish_ci 005285d0     strings:ctype-extra.obj
 0003:000466d0       _to_uni_cp1250_polish_ci   005286d0     strings:ctype-extra.obj
 0003:000468d0       _compiled_charsets         005288d0     strings:ctype-extra.obj
 0003:0004bfd0       _my_uni_ctype              0052dfd0     strings:ctype-utf8.obj
 0003:000509d0       _my_unicase_default        005329d0     strings:ctype-utf8.obj
 0003:000513d0       _my_unicase_turkish        005333d0     strings:ctype-utf8.obj
 0003:00051b08       _my_charset_utf8_handler   00533b08     strings:ctype-utf8.obj
 0003:00051b78       _my_charset_utf8_general_ci 00533b78     strings:ctype-utf8.obj
 0003:00051be8       _my_charset_utf8_bin       00533be8     strings:ctype-utf8.obj
 0003:00055d10       _my_charset_filename       00537d10     strings:ctype-utf8.obj
 0003:00070350       _my_charset_ujis_japanese_ci 00552350     strings:ctype-ujis.obj
 0003:000703c0       _my_charset_ujis_bin       005523c0     strings:ctype-ujis.obj
 0003:000707b8       _my_charset_ucs2_handler   005527b8     strings:ctype-ucs2.obj
 0003:00070828       _my_charset_ucs2_general_ci 00552828     strings:ctype-ucs2.obj
 0003:00070898       _my_charset_ucs2_bin       00552898     strings:ctype-ucs2.obj
 0003:00072ab0       _my_charset_tis620_thai_ci 00554ab0     strings:ctype-tis620.obj
 0003:00072b20       _my_charset_tis620_bin     00554b20     strings:ctype-tis620.obj
 0003:00082c18       _my_charset_sjis_japanese_ci 00564c18     strings:ctype-sjis.obj
 0003:00082c88       _my_charset_sjis_bin       00564c88     strings:ctype-sjis.obj
 0003:000aa4a0       _my_charset_gbk_chinese_ci 0058c4a0     strings:ctype-gbk.obj
 0003:000aa510       _my_charset_gbk_bin        0058c510     strings:ctype-gbk.obj
 0003:000bfa08       _my_charset_gb2312_chinese_ci 005a1a08     strings:ctype-gb2312.obj
 0003:000bfa78       _my_charset_gb2312_bin     005a1a78     strings:ctype-gb2312.obj
 0003:000e06d0       _my_charset_euckr_korean_ci 005c26d0     strings:ctype-euc_kr.obj
 0003:000e0740       _my_charset_euckr_bin      005c2740     strings:ctype-euc_kr.obj
 0003:000fb228       _my_charset_eucjpms_japanese_ci 005dd228     strings:ctype-eucjpms.obj
 0003:000fb298       _my_charset_eucjpms_bin    005dd298     strings:ctype-eucjpms.obj
 0003:000fbb30       _my_charset_latin2_czech_ci 005ddb30     strings:ctype-czech.obj
 0003:000fc868       _my_charset_cp1250_czech_ci 005de868     strings:ctype-win1250ch.obj
 0003:00113118       _my_charset_big5_chinese_ci 005f5118     strings:ctype-big5.obj
 0003:00113188       _my_charset_big5_bin       005f5188     strings:ctype-big5.obj
 0003:001148f8       _my_collation_mb_bin_handler 005f68f8     strings:ctype-mb.obj
 0003:00114924       _my_str_malloc             005f6924     strings:str_alloc.obj
 0003:00114928       _my_str_free               005f6928     strings:str_alloc.obj
 0003:00114b98       ??_R0?AUMessage@yaSSL@@@8  005f6b98     yassl:ssl.obj
 0003:00114bb4       ??_R0?AVvirtual_base@yaSSL@@@8 005f6bb4     yassl:ssl.obj
 0003:00114bd8       ??_R0?AVHandShakeBase@yaSSL@@@8 005f6bd8     yassl:ssl.obj
 0003:00114bfc       ??_R0?AVHASH@TaoCrypt@@@8  005f6bfc     yassl:ssl.obj
 0003:00114c18       ??_R0?AVvirtual_base@TaoCrypt@@@8 005f6c18     yassl:ssl.obj
 0003:00114c3c       ??_R0?AVMD5@TaoCrypt@@@8   005f6c3c     yassl:ssl.obj
 0003:00114c58       ??_R0?AVHASHwithTransform@TaoCrypt@@@8 005f6c58     yassl:ssl.obj
 0003:00114c84       ??_R0?AVMD4@TaoCrypt@@@8   005f6c84     yassl:ssl.obj
 0003:001150d0       ??_R0?AUDigest@yaSSL@@@8   005f70d0     yassl:crypto_wrapper.obj
 0003:001150ec       ??_R0?AUBulkCipher@yaSSL@@@8 005f70ec     yassl:crypto_wrapper.obj
 0003:0011510c       ??_R0?AUAuth@yaSSL@@@8     005f710c     yassl:crypto_wrapper.obj
 0003:00115128       ??_R0?AVSHA@TaoCrypt@@@8   005f7128     yassl:crypto_wrapper.obj
 0003:00115144       ??_R0?AVRIPEMD160@TaoCrypt@@@8 005f7144     yassl:crypto_wrapper.obj
 0003:00115168       ??_R0?AVMode_BASE@TaoCrypt@@@8 005f7168     yassl:crypto_wrapper.obj
 0003:0011518c       ??_R0?AVDES@TaoCrypt@@@8   005f718c     yassl:crypto_wrapper.obj
 0003:001151a8       ??_R0?AVBasicDES@TaoCrypt@@@8 005f71a8     yassl:crypto_wrapper.obj
 0003:001151c8       ??_R0?AVDES_EDE3@TaoCrypt@@@8 005f71c8     yassl:crypto_wrapper.obj
 0003:001151e8       ??_R0?AVAES@TaoCrypt@@@8   005f71e8     yassl:crypto_wrapper.obj
 0003:00115204       ??_R0?AVMD5@yaSSL@@@8      005f7204     yassl:crypto_wrapper.obj
 0003:0011521c       ??_R0?AVSHA@yaSSL@@@8      005f721c     yassl:crypto_wrapper.obj
 0003:00115234       ??_R0?AVRMD@yaSSL@@@8      005f7234     yassl:crypto_wrapper.obj
 0003:0011524c       ??_R0?AVRC4@yaSSL@@@8      005f724c     yassl:crypto_wrapper.obj
 0003:00115264       ??_R0?AVAES@yaSSL@@@8      005f7264     yassl:crypto_wrapper.obj
 0003:0011527c       ??_R0?AVHMAC_MD5@yaSSL@@@8 005f727c     yassl:crypto_wrapper.obj
 0003:0011529c       ??_R0?AVHMAC_SHA@yaSSL@@@8 005f729c     yassl:crypto_wrapper.obj
 0003:001152bc       ??_R0?AVHMAC_RMD@yaSSL@@@8 005f72bc     yassl:crypto_wrapper.obj
 0003:001152dc       ??_R0?AVDES@yaSSL@@@8      005f72dc     yassl:crypto_wrapper.obj
 0003:001152f4       ??_R0?AVDES_EDE@yaSSL@@@8  005f72f4     yassl:crypto_wrapper.obj
 0003:00115310       ??_R0?AVDSS@yaSSL@@@8      005f7310     yassl:crypto_wrapper.obj
 0003:00115328       ??_R0?AVRSA@yaSSL@@@8      005f7328     yassl:crypto_wrapper.obj
 0003:00115548       ??_R0?AVHandShakeHeader@yaSSL@@@8 005f7548     yassl:yassl_imp.obj
 0003:0011556c       ??_R0?AUServerKeyBase@yaSSL@@@8 005f756c     yassl:yassl_imp.obj
 0003:00115590       ??_R0?AUClientKeyBase@yaSSL@@@8 005f7590     yassl:yassl_imp.obj
 0003:001155b4       ??_R0?AVClientDiffieHellmanPublic@yaSSL@@@8 005f75b4     yassl:yassl_imp.obj
 0003:001155e4       ??_R0?AVChangeCipherSpec@yaSSL@@@8 005f75e4     yassl:yassl_imp.obj
 0003:0011560c       ??_R0?AVAlert@yaSSL@@@8    005f760c     yassl:yassl_imp.obj
 0003:00115628       ??_R0?AVData@yaSSL@@@8     005f7628     yassl:yassl_imp.obj
 0003:00115644       ??_R0?AVCertificate@yaSSL@@@8 005f7644     yassl:yassl_imp.obj
 0003:00115664       ??_R0?AVServerHello@yaSSL@@@8 005f7664     yassl:yassl_imp.obj
 0003:00115684       ??_R0?AUServerHelloDone@yaSSL@@@8 005f7684     yassl:yassl_imp.obj
 0003:001156a8       ??_R0?AVClientHello@yaSSL@@@8 005f76a8     yassl:yassl_imp.obj
 0003:001156c8       ??_R0?AVServerKeyExchange@yaSSL@@@8 005f76c8     yassl:yassl_imp.obj
 0003:001156f0       ??_R0?AVCertificateVerify@yaSSL@@@8 005f76f0     yassl:yassl_imp.obj
 0003:00115718       ??_R0?AVClientKeyExchange@yaSSL@@@8 005f7718     yassl:yassl_imp.obj
 0003:00115740       ??_R0?AVFinished@yaSSL@@@8 005f7740     yassl:yassl_imp.obj
 0003:00115760       ??_R0?AUHelloRequest@yaSSL@@@8 005f7760     yassl:yassl_imp.obj
 0003:00115784       ??_R0?AURSA_Server@yaSSL@@@8 005f7784     yassl:yassl_imp.obj
 0003:001157a4       ??_R0?AUFortezza_Server@yaSSL@@@8 005f77a4     yassl:yassl_imp.obj
 0003:001157c8       ??_R0?AUFortezzaKeys@yaSSL@@@8 005f77c8     yassl:yassl_imp.obj
 0003:001157ec       ??_R0?AVEncryptedPreMasterSecret@yaSSL@@@8 005f77ec     yassl:yassl_imp.obj
 0003:0011581c       ??_R0?AVDH_Server@yaSSL@@@8 005f781c     yassl:yassl_imp.obj
 0003:0011583c       ??_R0?AVCertificateRequest@yaSSL@@@8 005f783c     yassl:yassl_imp.obj
 0003:00115eb8       __fltused                  005f7eb8     LIBCMT:fpinit.obj
 0003:00115ebc       __ldused                   005f7ebc     LIBCMT:fpinit.obj
 0003:00115ec4       ??_R0?AVtype_info@@@8      005f7ec4     LIBCMT:typinfo.obj
 0003:00115ee0       ___security_cookie         005f7ee0     LIBCMT:gs_cookie.obj
 0003:00115ee4       ___security_cookie_complement 005f7ee4     LIBCMT:gs_cookie.obj
 0003:00115eec       ??_R0?AVbad_alloc@std@@@8  005f7eec     LIBCMT:new.obj
 0003:00115f08       ??_R0?AVexception@std@@@8  005f7f08     LIBCMT:new.obj
 0003:001160a0       __iob                      005f80a0     LIBCMT:_file.obj
 0003:00116320       __aexit_rtn                005f8320     LIBCMT:crt0dat.obj
 0003:00116334       ___app_type                005f8334     LIBCMT:crt0.obj
 0003:00116360       __cfltcvt_tab              005f8360     LIBCMT:cmiscdat.obj
 0003:00116390       ___abort_behavior          005f8390     LIBCMT:abort.obj
 0003:00116450       ___flsindex                005f8450     LIBCMT:tidtable.obj
 0003:00116454       ___getvalueindex           005f8454     LIBCMT:tidtable.obj
 0003:00116464       ??_R0?AVbad_cast@std@@@8   005f8464     LIBCMT:stdexcpt.obj
 0003:00116480       ??_R0?AVbad_typeid@std@@@8 005f8480     LIBCMT:stdexcpt.obj
 0003:001164a0       ??_R0?AV__non_rtti_object@std@@@8 005f84a0     LIBCMT:stdexcpt.obj
 0003:001164c8       __sys_errlist              005f84c8     LIBCMT:syserr.obj
 0003:00116578       __sys_nerr                 005f8578     LIBCMT:syserr.obj
 0003:0011657c       ___nullstring              005f857c     LIBCMT:output.obj
 0003:00116580       ___wnullstring             005f8580     LIBCMT:output.obj
 0003:00116588       ___badioinfo               005f8588     LIBCMT:ioinit.obj
 0003:001166e8       __XcptActTab               005f86e8     LIBCMT:winxfltr.obj
 0003:00116760       __First_FPE_Indx           005f8760     LIBCMT:winxfltr.obj
 0003:00116764       __Num_FPE                  005f8764     LIBCMT:winxfltr.obj
 0003:00116768       __XcptActTabSize           005f8768     LIBCMT:winxfltr.obj
 0003:0011676c       __XcptActTabCount          005f876c     LIBCMT:winxfltr.obj
 0003:00116778       ___initialmbcinfo          005f8778     LIBCMT:mbctype.obj
 0003:00116998       __mbctype                  005f8998     LIBCMT:mbctype.obj
 0003:00116aa0       __mbcasemap                005f8aa0     LIBCMT:mbctype.obj
 0003:00116ba0       ___ptmbcinfo               005f8ba0     LIBCMT:mbctype.obj
 0003:00116c9c       ___globallocalestatus      005f8c9c     LIBCMT:glstatus.obj
 0003:00116ca0       ___clocalestr              005f8ca0     LIBCMT:nlsdata2.obj
 0003:00116ca8       ___initiallocinfo          005f8ca8     LIBCMT:nlsdata2.obj
 0003:00116d80       ___ptlocinfo               005f8d80     LIBCMT:nlsdata2.obj
 0003:00116d84       ___lc_clike                005f8d84     LIBCMT:nlsdata2.obj
 0003:00116d88       ___initiallocalestructinfo 005f8d88     LIBCMT:nlsdata2.obj
 0003:00116d90       __coninpfh                 005f8d90     LIBCMT:initcon.obj
 0003:00116d94       __confh                    005f8d94     LIBCMT:initcon.obj
 0003:00116d98       __amblksiz                 005f8d98     LIBCMT:heapinit.obj
 0003:00116da0       __timezone                 005f8da0     LIBCMT:timeset.obj
 0003:00116da4       __daylight                 005f8da4     LIBCMT:timeset.obj
 0003:00116da8       __dstbias                  005f8da8     LIBCMT:timeset.obj
 0003:00116e30       __tzname                   005f8e30     LIBCMT:timeset.obj
 0003:00116e40       __lpdays                   005f8e40     LIBCMT:days.obj
 0003:00116e74       __days                     005f8e74     LIBCMT:days.obj
 0003:00116ea8       __lookuptrailbytes         005f8ea8     LIBCMT:read.obj
 0003:00116fa8       __d_inf                    005f8fa8     LIBCMT:util.obj
 0003:00116fb0       __d_ind                    005f8fb0     LIBCMT:util.obj
 0003:00116fb8       __d_max                    005f8fb8     LIBCMT:util.obj
 0003:00116fc0       __d_min                    005f8fc0     LIBCMT:util.obj
 0003:00116fc8       __d_mzero                  005f8fc8     LIBCMT:util.obj
 0003:001170e0       ??_R0?AVDNameNode@@@8      005f90e0     LIBCMT:undname.obj
 0003:001170f8       ??_R0?AVcharNode@@@8       005f90f8     LIBCMT:undname.obj
 0003:00117110       ??_R0?AVpDNameNode@@@8     005f9110     LIBCMT:undname.obj
 0003:0011712c       ??_R0?AVDNameStatusNode@@@8 005f912c     LIBCMT:undname.obj
 0003:0011714c       ??_R0?AVpcharNode@@@8      005f914c     LIBCMT:undname.obj
 0003:00117174       __matherr_flag             005f9174     LIBCMT:matherr.obj
 0003:00117178       __pctype                   005f9178     LIBCMT:ctype.obj
 0003:0011717c       __pwctype                  005f917c     LIBCMT:ctype.obj
 0003:00117180       ___lc_time_c               005f9180     LIBCMT:strftime.obj
 0003:00117238       ___lc_time_curr            005f9238     LIBCMT:strftime.obj
 0003:0011723c       ___lconv_static_decimal    005f923c     LIBCMT:lconv.obj
 0003:00117240       ___lconv_c                 005f9240     LIBCMT:lconv.obj
 0003:00117270       ___lconv                   005f9270     LIBCMT:lconv.obj
 0003:00117274       ___mb_cur_max              005f9274     LIBCMT:nlsdata1.obj
 0003:00117278       ___decimal_point           005f9278     LIBCMT:nlsdata1.obj
 0003:0011727c       ___decimal_point_length    005f927c     LIBCMT:nlsdata1.obj
 0003:00117280       __NLG_Destination          005f9280     LIBCMT:exsup.obj
 0003:001172c0       __pow10pos                 005f92c0     LIBCMT:constpow.obj
 0003:00117420       __pow10neg                 005f9420     LIBCMT:constpow.obj
 0003:00117580       ??_R0?AVHASH64withTransform@TaoCrypt@@@8 005f9580     taocrypt:hash.obj
 0003:001175b0       ??_R0?AVMultiplicativeGroupT@AbstractRing@TaoCrypt@@@8 005f95b0     taocrypt:integer.obj
 0003:001175ec       ??_R0?AVAbstractGroup@TaoCrypt@@@8 005f95ec     taocrypt:integer.obj
 0003:00117614       ??_R0?AVModularArithmetic@TaoCrypt@@@8 005f9614     taocrypt:integer.obj
 0003:00117640       ??_R0?AVAbstractRing@TaoCrypt@@@8 005f9640     taocrypt:integer.obj
 0003:00117664       ??_R0?AVMontgomeryRepresentation@TaoCrypt@@@8 005f9664     taocrypt:integer.obj
 0003:00117694       ??_R0?AVEuclideanDomainOf@TaoCrypt@@@8 005f9694     taocrypt:integer.obj
 0003:001176c0       ??_R0?AVAbstractEuclideanDomain@TaoCrypt@@@8 005f96c0     taocrypt:integer.obj
 0003:001176f0       ??_R0?AVSHA256@TaoCrypt@@@8 005f96f0     taocrypt:sha.obj
 0003:00117710       ??_R0?AVSHA224@TaoCrypt@@@8 005f9710     taocrypt:sha.obj
 0003:00117730       ??_R0?AVSHA512@TaoCrypt@@@8 005f9730     taocrypt:sha.obj
 0003:00117750       ??_R0?AVSHA384@TaoCrypt@@@8 005f9750     taocrypt:sha.obj
 0003:00117770       ?Te0@AES@TaoCrypt@@0PBIB   005f9770     taocrypt:aes.obj
 0003:00117774       ?Te1@AES@TaoCrypt@@0PBIB   005f9774     taocrypt:aes.obj
 0003:00117778       ?Te2@AES@TaoCrypt@@0PBIB   005f9778     taocrypt:aes.obj
 0003:0011777c       ?Te3@AES@TaoCrypt@@0PBIB   005f977c     taocrypt:aes.obj
 0003:00117780       ?Te4@AES@TaoCrypt@@0PBIB   005f9780     taocrypt:aes.obj
 0003:00117784       ?Td0@AES@TaoCrypt@@0PBIB   005f9784     taocrypt:aes.obj
 0003:00117788       ?Td1@AES@TaoCrypt@@0PBIB   005f9788     taocrypt:aes.obj
 0003:0011778c       ?Td2@AES@TaoCrypt@@0PBIB   005f978c     taocrypt:aes.obj
 0003:00117790       ?Td3@AES@TaoCrypt@@0PBIB   005f9790     taocrypt:aes.obj
 0003:00117794       ?Td4@AES@TaoCrypt@@0PBIB   005f9794     taocrypt:aes.obj
 0003:0011779c       ??_R0?AVBER_Decoder@TaoCrypt@@@8 005f979c     taocrypt:dsa.obj
 0003:001177c0       ??_R0?AVDSA_Private_Decoder@TaoCrypt@@@8 005f97c0     taocrypt:dsa.obj
 0003:001177ec       ??_R0?AVDSA_Public_Decoder@TaoCrypt@@@8 005f97ec     taocrypt:dsa.obj
 0003:0011781c       ??_R0?AVDH_Decoder@TaoCrypt@@@8 005f981c     taocrypt:dh.obj
 0003:00117844       ??_R0?AVRSA_Private_Decoder@TaoCrypt@@@8 005f9844     taocrypt:rsa.obj
 0003:00117870       ??_R0?AVRSA_Public_Decoder@TaoCrypt@@@8 005f9870     taocrypt:rsa.obj
 0003:001178a0       ??_R0?AVPKCS12_Decoder@TaoCrypt@@@8 005f98a0     taocrypt:asn.obj
 0003:001178c8       ??_R0?AVDER_Encoder@TaoCrypt@@@8 005f98c8     taocrypt:asn.obj
 0003:001178ec       ??_R0?AVCertDecoder@TaoCrypt@@@8 005f98ec     taocrypt:asn.obj
 0003:00117910       ??_R0?AVSignature_Encoder@TaoCrypt@@@8 005f9910     taocrypt:asn.obj
 0003:00117940       ??_R0?AVMD2@TaoCrypt@@@8   005f9940     taocrypt:md2.obj
 0003:00117960       __half                     005f9960     LIBCMT:pow.obj
 0003:001179e0       __infinity                 005f99e0     LIBCMT:87tran.obj
 0003:001179ea       __minfinity                005f99ea     LIBCMT:87tran.obj
 0003:001179f4       __logemax                  005f99f4     LIBCMT:87tran.obj
 0003:00117a1a       __OP_EXPjmptab             005f9a1a     LIBCMT:87tran.obj
 0003:00117a40       __indefinite               005f9a40     LIBCMT:87disp.obj
 0003:00117a4a       __piby2                    005f9a4a     LIBCMT:87disp.obj
 0003:0014f6e0       ?p_user_map@Manager@@0PAVUser_map@@A 006316e0     manager.obj
 0003:0014f6e4       ?p_guardian@Manager@@0PAVGuardian@@A 006316e4     manager.obj
 0003:0014f6e8       ?have_signal@@3_NA         006316e8     manager.obj
 0003:0014f6ec       ?p_instance_map@Manager@@0PAVInstance_map@@A 006316ec     manager.obj
 0003:0014f6f0       ?p_thread_registry@Manager@@0PAVThread_registry@@A 006316f0     manager.obj
 0003:0014f6f8       ?remove_service@Service@Options@@2DA 006316f8     options.obj
 0003:0014f6f9       ?install_as_service@Service@Options@@2DA 006316f9     options.obj
 0003:0014f6fa       ?stand_alone@Service@Options@@2DA 006316fa     options.obj
 0003:0014ff00       ?is_forced_default_file@Main@Options@@2_NA 00631f00     options.obj
 0003:0014ff01       ?mysqld_safe_compatible@Main@Options@@2DA 00631f01     options.obj
 0003:0014ff04       ?bind_address@Main@Options@@2PBDB 00631f04     options.obj
 0003:0014ff08       ?default_directories@Options@@2PAPBDA 00631f08     options.obj
 0003:0014ff0c       ?user_name@User_management@Options@@2PADA 00631f0c     options.obj
 0003:0014ff10       ?password@User_management@Options@@2PADA 00631f10     options.obj
 0003:0014ff14       ?cmd@User_management@Options@@2PAVUser_management_cmd@@A 00631f14     options.obj
 0003:0014ff18       ?saved_argv@Options@@0PAPADA 00631f18     options.obj
 0003:001500bc       ?open_files_limit@@3KA     006320bc     priv.obj
 0003:001500c0       ?test_flags@@3IA           006320c0     priv.obj
 0003:001500c4       ?bytes_sent@@3KA           006320c4     priv.obj
 0003:001500c8       ?bytes_received@@3KA       006320c8     priv.obj
 0003:0015080c       _mysql_port                0063280c     client.obj
 0003:00150810       _mysql_unix_port           00632810     client.obj
 0003:00150818       _charsets_dir              00632818     mysys:charset.obj
 0003:00150820       _all_charsets              00632820     mysys:charset.obj
 0003:00150c28       _my_defaults_file          00632c28     mysys:default.obj
 0003:00150c2c       _my_defaults_group_suffix  00632c2c     mysys:default.obj
 0003:00150c30       _my_defaults_extra_file    00632c30     mysys:default.obj
 0003:00150c38       _THR_thread_count          00632c38     mysys:my_thr_init.obj
 0003:00150c40       _timed_mutexes             00632c40     mysys:my_static.obj
 0003:00150c41       _my_disable_locking        00632c41     mysys:my_static.obj
 0003:00150c42       _my_disable_async_io       00632c42     mysys:my_static.obj
 0003:00150c43       _my_disable_flush_key_blocks 00632c43     mysys:my_static.obj
 0003:00150c44       _home_dir                  00632c44     mysys:my_static.obj
 0003:00150c48       _my_progname               00632c48     mysys:my_static.obj
 0003:00150c4c       _my_stream_opened          00632c4c     mysys:my_static.obj
 0003:00150c50       _curr_dir                  00632c50     mysys:my_static.obj
 0003:00150e50       _home_dir_buff             00632e50     mysys:my_static.obj
 0003:00151050       _my_file_opened            00633050     mysys:my_static.obj
 0003:00151054       _my_tmp_file_created       00633054     mysys:my_static.obj
 0003:00151058       _my_file_total_opened      00633058     mysys:my_static.obj
 0003:0015105c       _my_dont_interrupt         0063305c     mysys:my_static.obj
 0003:00151060       _my_file_info_default      00633060     mysys:my_static.obj
 0003:00151860       __my_signals               00633860     mysys:my_static.obj
 0003:00151864       _my_once_root_block        00633864     mysys:my_static.obj
 0003:00151868       __my_sig_remember          00633868     mysys:my_static.obj
 0003:001518b8       _sf_malloc_prehunc         006338b8     mysys:my_static.obj
 0003:001518bc       _sf_malloc_endhunc         006338bc     mysys:my_static.obj
 0003:001518c0       _sf_malloc_quick           006338c0     mysys:my_static.obj
 0003:001518c4       _sf_malloc_cur_memory      006338c4     mysys:my_static.obj
 0003:001518c8       _sf_malloc_max_memory      006338c8     mysys:my_static.obj
 0003:001518cc       _sf_malloc_count           006338cc     mysys:my_static.obj
 0003:001518d0       _sf_max_adress             006338d0     mysys:my_static.obj
 0003:001518d4       _sf_malloc_root            006338d4     mysys:my_static.obj
 0003:001518d8       _my_have_got_alarm         006338d8     mysys:my_static.obj
 0003:001518dc       _my_disable_symlinks       006338dc     mysys:my_static.obj
 0003:001518dd       _mysys_uses_curses         006338dd     mysys:my_static.obj
 0003:001518e0       _have_tcpip                006338e0     mysys:my_init.obj
 0003:001518e1       _my_init_done              006338e1     mysys:my_init.obj
 0003:001518e4       _mysys_usage_id            006338e4     mysys:my_init.obj
 0003:001518ec       _my_getopt_skip_unknown    006338ec     mysys:my_getopt.obj
 0003:001518f0       _thd_lib_detected          006338f0     mysys:my_pthread.obj
 0003:0015190c       _thr_alarm_inited          0063390c     mysys:thr_alarm.obj
 0003:0015190d       _alarm_thread_running      0063390d     mysys:thr_alarm.obj
 0003:0015190e       _my_use_symdir             0063390e     mysys:mf_pack.obj
 0003:00151934       ___fastflag                00633934     LIBCMT:fpinit.obj
 0003:00151938       __adjust_fdiv              00633938     LIBCMT:fpinit.obj
 0003:00151950       __cflush                   00633950     LIBCMT:_file.obj
 0003:00151954       __umaskval                 00633954     LIBCMT:crt0dat.obj
 0003:00151958       __osplatform               00633958     LIBCMT:crt0dat.obj
 0003:0015195c       __osver                    0063395c     LIBCMT:crt0dat.obj
 0003:00151960       __winver                   00633960     LIBCMT:crt0dat.obj
 0003:00151964       __winmajor                 00633964     LIBCMT:crt0dat.obj
 0003:00151968       __winminor                 00633968     LIBCMT:crt0dat.obj
 0003:0015196c       ___argc                    0063396c     LIBCMT:crt0dat.obj
 0003:00151970       ___argv                    00633970     LIBCMT:crt0dat.obj
 0003:00151974       ___wargv                   00633974     LIBCMT:crt0dat.obj
 0003:00151978       __environ                  00633978     LIBCMT:crt0dat.obj
 0003:0015197c       ___initenv                 0063397c     LIBCMT:crt0dat.obj
 0003:00151980       __wenviron                 00633980     LIBCMT:crt0dat.obj
 0003:00151984       ___winitenv                00633984     LIBCMT:crt0dat.obj
 0003:00151988       __pgmptr                   00633988     LIBCMT:crt0dat.obj
 0003:0015198c       __wpgmptr                  0063398c     LIBCMT:crt0dat.obj
 0003:00151990       __exitflag                 00633990     LIBCMT:crt0dat.obj
 0003:00151994       __C_Termination_Done       00633994     LIBCMT:crt0dat.obj
 0003:00151998       __C_Exit_Done              00633998     LIBCMT:crt0dat.obj
 0003:001519b0       __aenvptr                  006339b0     LIBCMT:crt0.obj
 0003:001519b4       __wenvptr                  006339b4     LIBCMT:crt0.obj
 0003:001519b8       ___error_mode              006339b8     LIBCMT:crt0.obj
 0003:001519bc       __tls_index                006339bc     LIBCMT:tlssup.obj
 0003:00151a78       ___pInvalidArgHandler      00633a78     LIBCMT:invarg.obj
 0003:00151d9c       _gpFlsAlloc                00633d9c     LIBCMT:tidtable.obj
 0003:00151da0       _gpFlsGetValue             00633da0     LIBCMT:tidtable.obj
 0003:00151da4       _gpFlsSetValue             00633da4     LIBCMT:tidtable.obj
 0003:00151da8       _gpFlsFree                 00633da8     LIBCMT:tidtable.obj
 0003:00151db4       ___pPurecall               00633db4     LIBCMT:inithelp.obj
 0003:001520dc       ?_pnhHeap@@3P6AHI@ZA       006340dc     LIBCMT:handler.obj
 0003:001520e0       __maxwait                  006340e0     LIBCMT:crtheap.obj
 0003:001520e4       __stdbuf                   006340e4     LIBCMT:_sftbuf.obj
 0003:00152240       ?__pInconsistency@@3P6AXXZA 00634240     LIBCMT:hooks.obj
 0003:00152254       ___mbulinfo                00634254     LIBCMT:mbctype.obj
 0003:00152260       ___mbcodepage              00634260     LIBCMT:mbctype.obj
 0003:00152264       ___ismbcodepage            00634264     LIBCMT:mbctype.obj
 0003:00152268       ___mblcid                  00634268     LIBCMT:mbctype.obj
 0003:0015226c       ___locale_changed          0063426c     LIBCMT:setlocal.obj
 0003:00152270       ___lc_handle               00634270     LIBCMT:nlsdata2.obj
 0003:00152288       ___lc_codepage             00634288     LIBCMT:nlsdata2.obj
 0003:0015228c       ___lc_collate_cp           0063428c     LIBCMT:nlsdata2.obj
 0003:0015239c       __crtheap                  0063439c     LIBCMT:heapinit.obj
 0003:001523a0       __newmode                  006343a0     LIBCMT:_newmode.obj
 0003:001523a4       ___sbh_pHeaderDefer        006343a4     LIBCMT:sbheap.obj
 0003:001523a8       __outputformat             006343a8     LIBCMT:outputformat.obj
 0003:001523c0       ?pArgList@UnDecorator@@0PAVReplicator@@A 006343c0     LIBCMT:undname.obj
 0003:001523c4       ?pZNameList@UnDecorator@@0PAVReplicator@@A 006343c4     LIBCMT:undname.obj
 0003:001523c8       ?pTemplateArgList@UnDecorator@@0PAVReplicator@@A 006343c8     LIBCMT:undname.obj
 0003:001523cc       ?gName@UnDecorator@@0PBDB  006343cc     LIBCMT:undname.obj
 0003:001523d0       ?name@UnDecorator@@0PBDB   006343d0     LIBCMT:undname.obj
 0003:001523d4       ?outputString@UnDecorator@@0PADA 006343d4     LIBCMT:undname.obj
 0003:001523d8       ?maxStringLength@UnDecorator@@0HA 006343d8     LIBCMT:undname.obj
 0003:001523dc       ?disableFlags@UnDecorator@@0KA 006343dc     LIBCMT:undname.obj
 0003:001523e0       ?m_pGetParameter@UnDecorator@@0P6APADJ@ZA 006343e0     LIBCMT:undname.obj
 0003:001523e4       ?fExplicitTemplateParams@UnDecorator@@0_NA 006343e4     LIBCMT:undname.obj
 0003:001523e5       ?fGetTemplateArgumentList@UnDecorator@@0_NA 006343e5     LIBCMT:undname.obj
 0003:00152410       ___lconv_static_null       00634410     LIBCMT:lconv.obj
 0003:00152414       __commode                  00634414     LIBCMT:ncommode.obj
 0003:0015241c       __fmode                    0063441c     LIBCMT:txtmode.obj
 0003:0015243d       ?isMMX@TaoCrypt@@3_NA      0063443d     taocrypt:misc.obj
 0003:00152460       _mysql_server_last_error   00634460     <common>
 0003:001526d0       _mysql_server_last_errno   006346d0     <common>
 0003:001526d4       _thr_client_alarm          006346d4     <common>
 0003:001526e0       _query_performance_frequency 006346e0     <common>
 0003:001526f4       _my_signals                006346f4     <common>
 0003:001526f8       _query_performance_offset  006346f8     <common>
 0003:00152700       _THR_LOCK_threads          00634700     <common>
 0003:00152780       _LOCK_gethostbyname_r      00634780     <common>
 0003:001527a0       _THR_LOCK_myisam_mmap      006347a0     <common>
 0003:001527c0       _THR_LOCK_time             006347c0     <common>
 0003:001527e0       _THR_COND_threads          006347e0     <common>
 0003:00152820       _THR_LOCK_malloc           00634820     <common>
 0003:00152840       _THR_LOCK_isam             00634840     <common>
 0003:00152860       _THR_LOCK_myisam           00634860     <common>
 0003:00152880       _THR_LOCK_heap             00634880     <common>
 0003:001528a0       _THR_LOCK_open             006348a0     <common>
 0003:001528c0       _THR_LOCK_charset          006348c0     <common>
 0003:001528e0       _THR_LOCK_lock             006348e0     <common>
 0003:00152900       _LOCK_localtime_r          00634900     <common>
 0003:00152920       _THR_LOCK_net              00634920     <common>
 0003:00152938       __debugger_hook_dummy      00634938     <common>
 0003:00152944       ___sbh_initialized         00634944     <common>
 0003:00152958       ___sbh_cntHeaderList       00634958     <common>
 0003:0015295c       ___sbh_pHeaderList         0063495c     <common>
 0003:00152960       ___sbh_threshold           00634960     <common>
 0003:00152964       ___sbh_pHeaderScan         00634964     <common>
 0003:00152968       ___sbh_sizeHeaderList      00634968     <common>
 0003:0015296c       ___sbh_indGroupDefer       0063496c     <common>
 0003:00152970       ___active_heap             00634970     <common>
 0003:0015297c       ___setlc_active            0063497c     <common>
 0003:0015298c       ___unguarded_readlc_active 0063498c     <common>
 0003:00152990       __pmatherr                 00634990     <common>
 0003:0015299c       __pDestructExceptionObject 0063499c     <common>
 0003:001529a8       __nhandle                  006349a8     <common>
 0003:00152a00       ___pioinfo                 00634a00     <common>
 0003:00152b00       ___use_sse2_mathfcns       00634b00     <common>
 0003:00152b10       ___sse2_available          00634b10     <common>
 0003:00152b14       __acmdln                   00634b14     <common>
 0003:00152b20       ___env_initialized         00634b20     <common>
 0003:00152b30       ___onexitend               00634b30     <common>
 0003:00152b34       ___onexitbegin             00634b34     <common>
 0003:00152b38       ___mbctype_initialized     00634b38     <common>
 0003:00152b3c       ___dyn_tls_init_callback   00634b3c     <common>
 0003:00152b40       ___piob                    00634b40     <common>
 0003:00152e80       __bufin                    00634e80     <common>
 0003:00153e80       __nstream                  00635e80     <common>
 0004:00000000       __IMPORT_DESCRIPTOR_KERNEL32 00636000     kernel32:KERNEL32.dll
 0004:00000014       __IMPORT_DESCRIPTOR_ADVAPI32 00636014     advapi32:ADVAPI32.dll
 0004:00000028       __IMPORT_DESCRIPTOR_WSOCK32 00636028     wsock32:WSOCK32.dll
 0004:0000003c       __IMPORT_DESCRIPTOR_USER32 0063603c     user32:USER32.dll
 0004:00000050       __NULL_IMPORT_DESCRIPTOR   00636050     kernel32:KERNEL32.dll
 0004:00000468       __imp__CryptGenRandom@12   00636468     advapi32:ADVAPI32.dll
 0004:0000046c       __imp__RegEnumValueA@32    0063646c     advapi32:ADVAPI32.dll
 0004:00000470       __imp__RegOpenKeyExA@20    00636470     advapi32:ADVAPI32.dll
 0004:00000474       __imp__CryptAcquireContextA@20 00636474     advapi32:ADVAPI32.dll
 0004:00000478       __imp__CryptReleaseContext@8 00636478     advapi32:ADVAPI32.dll
 0004:0000047c       __imp__StartServiceCtrlDispatcherA@4 0063647c     advapi32:ADVAPI32.dll
 0004:00000480       __imp__RegisterServiceCtrlHandlerA@8 00636480     advapi32:ADVAPI32.dll
 0004:00000484       __imp__DeleteService@4     00636484     advapi32:ADVAPI32.dll
 0004:00000488       __imp__CreateServiceA@52   00636488     advapi32:ADVAPI32.dll
 0004:0000048c       __imp__SetServiceStatus@8  0063648c     advapi32:ADVAPI32.dll
 0004:00000490       __imp__OpenSCManagerA@12   00636490     advapi32:ADVAPI32.dll
 0004:00000494       __imp__OpenServiceA@12     00636494     advapi32:ADVAPI32.dll
 0004:00000498       __imp__CloseServiceHandle@4 00636498     advapi32:ADVAPI32.dll
 0004:0000049c       __imp__RegCloseKey@4       0063649c     advapi32:ADVAPI32.dll
 0004:000004a0       \177ADVAPI32_NULL_THUNK_DATA 006364a0     advapi32:ADVAPI32.dll
 0004:000004d4       __imp__GetModuleHandleA@4  006364d4     kernel32:KERNEL32.dll
 0004:000004d8       __imp__TerminateProcess@8  006364d8     kernel32:KERNEL32.dll
 0004:000004dc       __imp__OpenProcess@12      006364dc     kernel32:KERNEL32.dll
 0004:000004e0       __imp__GetCurrentThreadId@0 006364e0     kernel32:KERNEL32.dll
 0004:000004e4       __imp__Sleep@4             006364e4     kernel32:KERNEL32.dll
 0004:000004e8       __imp__GetFullPathNameA@16 006364e8     kernel32:KERNEL32.dll
 0004:000004ec       __imp__GetModuleFileNameA@12 006364ec     kernel32:KERNEL32.dll
 0004:000004f0       __imp__SetHandleInformation@12 006364f0     kernel32:KERNEL32.dll
 0004:000004f4       __imp__GetCurrentProcess@0 006364f4     kernel32:KERNEL32.dll
 0004:000004f8       __imp__ReadFile@20         006364f8     kernel32:KERNEL32.dll
 0004:000004fc       __imp__SetNamedPipeHandleState@16 006364fc     kernel32:KERNEL32.dll
 0004:00000500       __imp__WaitNamedPipeA@8    00636500     kernel32:KERNEL32.dll
 0004:00000504       __imp__CreateFileA@28      00636504     kernel32:KERNEL32.dll
 0004:00000508       __imp__DuplicateHandle@28  00636508     kernel32:KERNEL32.dll
 0004:0000050c       __imp__GetProcAddress@8    0063650c     kernel32:KERNEL32.dll
 0004:00000510       __imp__CreateRemoteThread@28 00636510     kernel32:KERNEL32.dll
 0004:00000514       __imp__GetLastError@0      00636514     kernel32:KERNEL32.dll
 0004:00000518       __imp__SetLastError@4      00636518     kernel32:KERNEL32.dll
 0004:0000051c       __imp__CreateProcessA@40   0063651c     kernel32:KERNEL32.dll
 0004:00000520       __imp__WaitForSingleObject@8 00636520     kernel32:KERNEL32.dll
 0004:00000524       __imp__GetExitCodeProcess@8 00636524     kernel32:KERNEL32.dll
 0004:00000528       __imp__CloseHandle@4       00636528     kernel32:KERNEL32.dll
 0004:0000052c       __imp__GetSystemTimeAsFileTime@4 0063652c     kernel32:KERNEL32.dll
 0004:00000530       __imp__DeleteCriticalSection@4 00636530     kernel32:KERNEL32.dll
 0004:00000534       __imp__LoadLibraryW@4      00636534     kernel32:KERNEL32.dll
 0004:00000538       __imp__SetEnvironmentVariableW@8 00636538     kernel32:KERNEL32.dll
 0004:0000053c       __imp__GetModuleFileNameW@12 0063653c     kernel32:KERNEL32.dll
 0004:00000540       __imp__LeaveCriticalSection@4 00636540     kernel32:KERNEL32.dll
 0004:00000544       __imp__EnterCriticalSection@4 00636544     kernel32:KERNEL32.dll
 0004:00000548       __imp__CreatePipe@16       00636548     kernel32:KERNEL32.dll
 0004:0000054c       __imp__IsValidLocale@8     0063654c     kernel32:KERNEL32.dll
 0004:00000550       __imp__EnumSystemLocalesA@8 00636550     kernel32:KERNEL32.dll
 0004:00000554       __imp__GetUserDefaultLCID@0 00636554     kernel32:KERNEL32.dll
 0004:00000558       __imp__GetDateFormatA@24   00636558     kernel32:KERNEL32.dll
 0004:0000055c       __imp__GetTimeFormatA@24   0063655c     kernel32:KERNEL32.dll
 0004:00000560       __imp__GetStringTypeW@16   00636560     kernel32:KERNEL32.dll
 0004:00000564       __imp__GetStringTypeA@20   00636564     kernel32:KERNEL32.dll
 0004:00000568       __imp__SetEnvironmentVariableA@8 00636568     kernel32:KERNEL32.dll
 0004:0000056c       __imp__CompareStringW@24   0063656c     kernel32:KERNEL32.dll
 0004:00000570       __imp__CompareStringA@24   00636570     kernel32:KERNEL32.dll
 0004:00000574       __imp__WriteConsoleW@20    00636574     kernel32:KERNEL32.dll
 0004:00000578       __imp__GetConsoleOutputCP@0 00636578     kernel32:KERNEL32.dll
 0004:0000057c       __imp__WriteConsoleA@20    0063657c     kernel32:KERNEL32.dll
 0004:00000580       __imp__LCMapStringW@24     00636580     kernel32:KERNEL32.dll
 0004:00000584       __imp__LCMapStringA@24     00636584     kernel32:KERNEL32.dll
 0004:00000588       __imp__GetLocaleInfoW@16   00636588     kernel32:KERNEL32.dll
 0004:0000058c       __imp__MultiByteToWideChar@24 0063658c     kernel32:KERNEL32.dll
 0004:00000590       __imp__RtlUnwind@16        00636590     kernel32:KERNEL32.dll
 0004:00000594       __imp__GetLocaleInfoA@16   00636594     kernel32:KERNEL32.dll
 0004:00000598       __imp__CreateEventA@16     00636598     kernel32:KERNEL32.dll
 0004:0000059c       __imp__SetEvent@4          0063659c     kernel32:KERNEL32.dll
 0004:000005a0       __imp__ResetEvent@4        006365a0     kernel32:KERNEL32.dll
 0004:000005a4       __imp__WaitForMultipleObjects@16 006365a4     kernel32:KERNEL32.dll
 0004:000005a8       __imp__GetFileAttributesExA@12 006365a8     kernel32:KERNEL32.dll
 0004:000005ac       __imp__GetSystemDirectoryA@8 006365ac     kernel32:KERNEL32.dll
 0004:000005b0       __imp__GetWindowsDirectoryA@8 006365b0     kernel32:KERNEL32.dll
 0004:000005b4       __imp__InterlockedIncrement@4 006365b4     kernel32:KERNEL32.dll
 0004:000005b8       __imp__DeleteFileA@4       006365b8     kernel32:KERNEL32.dll
 0004:000005bc       __imp__MoveFileA@8         006365bc     kernel32:KERNEL32.dll
 0004:000005c0       __imp__GetTickCount@0      006365c0     kernel32:KERNEL32.dll
 0004:000005c4       __imp__QueryPerformanceCounter@4 006365c4     kernel32:KERNEL32.dll
 0004:000005c8       __imp__QueryPerformanceFrequency@4 006365c8     kernel32:KERNEL32.dll
 0004:000005cc       __imp__TryEnterCriticalSection@4 006365cc     kernel32:KERNEL32.dll
 0004:000005d0       __imp__InterlockedCompareExchange@12 006365d0     kernel32:KERNEL32.dll
 0004:000005d4       __imp__SetThreadPriority@8 006365d4     kernel32:KERNEL32.dll
 0004:000005d8       __imp__SetEndOfFile@4      006365d8     kernel32:KERNEL32.dll
 0004:000005dc       __imp__SetFilePointer@16   006365dc     kernel32:KERNEL32.dll
 0004:000005e0       __imp__GetFileAttributesA@4 006365e0     kernel32:KERNEL32.dll
 0004:000005e4       __imp__GetOverlappedResult@16 006365e4     kernel32:KERNEL32.dll
 0004:000005e8       __imp__CancelIo@4          006365e8     kernel32:KERNEL32.dll
 0004:000005ec       __imp__WriteFile@20        006365ec     kernel32:KERNEL32.dll
 0004:000005f0       __imp__DisconnectNamedPipe@4 006365f0     kernel32:KERNEL32.dll
 0004:000005f4       __imp__UnmapViewOfFile@4   006365f4     kernel32:KERNEL32.dll
 0004:000005f8       __imp__FindClose@4         006365f8     kernel32:KERNEL32.dll
 0004:000005fc       __imp__FindNextFileA@8     006365fc     kernel32:KERNEL32.dll
 0004:00000600       __imp__FindFirstFileA@8    00636600     kernel32:KERNEL32.dll
 0004:00000604       __imp__FileTimeToSystemTime@8 00636604     kernel32:KERNEL32.dll
 0004:00000608       __imp__FileTimeToLocalFileTime@8 00636608     kernel32:KERNEL32.dll
 0004:0000060c       __imp__GetDriveTypeA@4     0063660c     kernel32:KERNEL32.dll
 0004:00000610       __imp__ExitProcess@4       00636610     kernel32:KERNEL32.dll
 0004:00000614       __imp__SetConsoleCtrlHandler@8 00636614     kernel32:KERNEL32.dll
 0004:00000618       __imp__ReadConsoleInputA@16 00636618     kernel32:KERNEL32.dll
 0004:0000061c       __imp__SetConsoleMode@8    0063661c     kernel32:KERNEL32.dll
 0004:00000620       __imp__GetConsoleMode@8    00636620     kernel32:KERNEL32.dll
 0004:00000624       __imp__PeekConsoleInputA@16 00636624     kernel32:KERNEL32.dll
 0004:00000628       __imp__GetNumberOfConsoleInputEvents@8 00636628     kernel32:KERNEL32.dll
 0004:0000062c       __imp__GetCommandLineA@0   0063662c     kernel32:KERNEL32.dll
 0004:00000630       __imp__HeapFree@12         00636630     kernel32:KERNEL32.dll
 0004:00000634       __imp__GetVersionExA@4     00636634     kernel32:KERNEL32.dll
 0004:00000638       __imp__HeapAlloc@12        00636638     kernel32:KERNEL32.dll
 0004:0000063c       __imp__GetProcessHeap@0    0063663c     kernel32:KERNEL32.dll
 0004:00000640       __imp__HeapReAlloc@16      00636640     kernel32:KERNEL32.dll
 0004:00000644       __imp__GetFileInformationByHandle@8 00636644     kernel32:KERNEL32.dll
 0004:00000648       __imp__PeekNamedPipe@24    00636648     kernel32:KERNEL32.dll
 0004:0000064c       __imp__GetFileType@4       0063664c     kernel32:KERNEL32.dll
 0004:00000650       __imp__SetStdHandle@8      00636650     kernel32:KERNEL32.dll
 0004:00000654       __imp__WideCharToMultiByte@32 00636654     kernel32:KERNEL32.dll
 0004:00000658       __imp__GetTimeZoneInformation@4 00636658     kernel32:KERNEL32.dll
 0004:0000065c       __imp__UnhandledExceptionFilter@4 0063665c     kernel32:KERNEL32.dll
 0004:00000660       __imp__SetUnhandledExceptionFilter@4 00636660     kernel32:KERNEL32.dll
 0004:00000664       __imp__IsDebuggerPresent@0 00636664     kernel32:KERNEL32.dll
 0004:00000668       __imp__ExitThread@4        00636668     kernel32:KERNEL32.dll
 0004:0000066c       __imp__ResumeThread@4      0063666c     kernel32:KERNEL32.dll
 0004:00000670       __imp__CreateThread@24     00636670     kernel32:KERNEL32.dll
 0004:00000674       __imp__FlushFileBuffers@4  00636674     kernel32:KERNEL32.dll
 0004:00000678       __imp__GetStdHandle@4      00636678     kernel32:KERNEL32.dll
 0004:0000067c       __imp__TlsGetValue@4       0063667c     kernel32:KERNEL32.dll
 0004:00000680       __imp__TlsAlloc@0          00636680     kernel32:KERNEL32.dll
 0004:00000684       __imp__TlsSetValue@8       00636684     kernel32:KERNEL32.dll
 0004:00000688       __imp__TlsFree@4           00636688     kernel32:KERNEL32.dll
 0004:0000068c       __imp__InterlockedDecrement@4 0063668c     kernel32:KERNEL32.dll
 0004:00000690       __imp__GetCurrentThread@0  00636690     kernel32:KERNEL32.dll
 0004:00000694       __imp__GetCurrentDirectoryA@8 00636694     kernel32:KERNEL32.dll
 0004:00000698       __imp__SetCurrentDirectoryA@4 00636698     kernel32:KERNEL32.dll
 0004:0000069c       __imp__RaiseException@16   0063669c     kernel32:KERNEL32.dll
 0004:000006a0       __imp__SetHandleCount@4    006366a0     kernel32:KERNEL32.dll
 0004:000006a4       __imp__GetStartupInfoA@4   006366a4     kernel32:KERNEL32.dll
 0004:000006a8       __imp__FatalAppExitA@8     006366a8     kernel32:KERNEL32.dll
 0004:000006ac       __imp__GetConsoleCP@0      006366ac     kernel32:KERNEL32.dll
 0004:000006b0       __imp__FreeLibrary@4       006366b0     kernel32:KERNEL32.dll
 0004:000006b4       __imp__InterlockedExchange@8 006366b4     kernel32:KERNEL32.dll
 0004:000006b8       __imp__LoadLibraryA@4      006366b8     kernel32:KERNEL32.dll
 0004:000006bc       __imp__GetCPInfo@8         006366bc     kernel32:KERNEL32.dll
 0004:000006c0       __imp__GetACP@0            006366c0     kernel32:KERNEL32.dll
 0004:000006c4       __imp__GetOEMCP@0          006366c4     kernel32:KERNEL32.dll
 0004:000006c8       __imp__IsValidCodePage@4   006366c8     kernel32:KERNEL32.dll
 0004:000006cc       __imp__FreeEnvironmentStringsA@4 006366cc     kernel32:KERNEL32.dll
 0004:000006d0       __imp__GetEnvironmentStrings@0 006366d0     kernel32:KERNEL32.dll
 0004:000006d4       __imp__FreeEnvironmentStringsW@4 006366d4     kernel32:KERNEL32.dll
 0004:000006d8       __imp__GetEnvironmentStringsW@0 006366d8     kernel32:KERNEL32.dll
 0004:000006dc       __imp__HeapDestroy@4       006366dc     kernel32:KERNEL32.dll
 0004:000006e0       __imp__HeapCreate@12       006366e0     kernel32:KERNEL32.dll
 0004:000006e4       __imp__VirtualFree@12      006366e4     kernel32:KERNEL32.dll
 0004:000006e8       __imp__GetCurrentProcessId@0 006366e8     kernel32:KERNEL32.dll
 0004:000006ec       __imp__VirtualAlloc@16     006366ec     kernel32:KERNEL32.dll
 0004:000006f0       __imp__HeapSize@12         006366f0     kernel32:KERNEL32.dll
 0004:000006f4       __imp__InitializeCriticalSection@4 006366f4     kernel32:KERNEL32.dll
 0004:000006f8       \177KERNEL32_NULL_THUNK_DATA 006366f8     kernel32:KERNEL32.dll
 0004:00000790       __imp__PeekMessageA@20     00636790     user32:USER32.dll
 0004:00000794       __imp__KillTimer@8         00636794     user32:USER32.dll
 0004:00000798       __imp__SetTimer@16         00636798     user32:USER32.dll
 0004:0000079c       \177USER32_NULL_THUNK_DATA 0063679c     user32:USER32.dll
 0004:000007c8       __imp__recv@16             006367c8     wsock32:WSOCK32.dll
 0004:000007cc       __imp__gethostbyname@4     006367cc     wsock32:WSOCK32.dll
 0004:000007d0       __imp__inet_ntoa@4         006367d0     wsock32:WSOCK32.dll
 0004:000007d4       __imp__WSAStartup@8        006367d4     wsock32:WSOCK32.dll
 0004:000007d8       __imp__WSACleanup@0        006367d8     wsock32:WSOCK32.dll
 0004:000007dc       __imp__WSAGetLastError@0   006367dc     wsock32:WSOCK32.dll
 0004:000007e0       __imp__send@16             006367e0     wsock32:WSOCK32.dll
 0004:000007e4       __imp__select@20           006367e4     wsock32:WSOCK32.dll
 0004:000007e8       __imp____WSAFDIsSet@8      006367e8     wsock32:WSOCK32.dll
 0004:000007ec       __imp__accept@12           006367ec     wsock32:WSOCK32.dll
 0004:000007f0       __imp__shutdown@8          006367f0     wsock32:WSOCK32.dll
 0004:000007f4       __imp__socket@12           006367f4     wsock32:WSOCK32.dll
 0004:000007f8       __imp__inet_addr@4         006367f8     wsock32:WSOCK32.dll
 0004:000007fc       __imp__ntohs@4             006367fc     wsock32:WSOCK32.dll
 0004:00000800       __imp__getpeername@12      00636800     wsock32:WSOCK32.dll
 0004:00000804       __imp__WSASetLastError@4   00636804     wsock32:WSOCK32.dll
 0004:00000808       __imp__connect@12          00636808     wsock32:WSOCK32.dll
 0004:0000080c       __imp__htonl@4             0063680c     wsock32:WSOCK32.dll
 0004:00000810       __imp__htons@4             00636810     wsock32:WSOCK32.dll
 0004:00000814       __imp__setsockopt@20       00636814     wsock32:WSOCK32.dll
 0004:00000818       __imp__bind@12             00636818     wsock32:WSOCK32.dll
 0004:0000081c       __imp__listen@8            0063681c     wsock32:WSOCK32.dll
 0004:00000820       __imp__closesocket@4       00636820     wsock32:WSOCK32.dll
 0004:00000824       __imp__ioctlsocket@12      00636824     wsock32:WSOCK32.dll
 0004:00000828       __imp__gethostname@8       00636828     wsock32:WSOCK32.dll
 0004:0000082c       \177WSOCK32_NULL_THUNK_DATA 0063682c     wsock32:WSOCK32.dll
 0005:00000000       __tls_start                00638000     LIBCMT:tlssup.obj
 0005:00000108       _THR_KEY_mysys             00638108     mysys:my_thr_init.obj
 0005:0000028e       __tls_end                  0063828e     LIBCMT:tlssup.obj

 entry point at        0001:0004ef5f

